SF:C:\Users\34404\Documents\GitHub\fireworks-collaboration\src-tauri\soak\main.rs
FN:3,_RNvCslvMaQQJU1u1_17adaptive_tls_soak4main
FN:3,_RNvCskneWWWk1ari_17adaptive_tls_soak4main
FNDA:0,_RNvCslvMaQQJU1u1_17adaptive_tls_soak4main
FNDA:0,_RNvCskneWWWk1ari_17adaptive_tls_soak4main
FNF:1
FNH:0
DA:3,0
DA:4,0
DA:5,0
DA:6,0
DA:7,0
DA:8,0
DA:9,0
DA:10,0
DA:11,0
DA:12,0
DA:13,0
DA:16,0
BRF:0
BRH:0
LF:12
LH:0
end_of_record
SF:C:\Users\34404\Documents\GitHub\fireworks-collaboration\src-tauri\src\app\commands\config.rs
FN:26,_RNvNtNtNtCscu9j8SGJFlb_27fireworks_collaboration_lib3app8commands6config10get_config
FN:36,_RNvNtNtNtCscu9j8SGJFlb_27fireworks_collaboration_lib3app8commands6config10set_config
FN:85,_RNvNtNtNtCscu9j8SGJFlb_27fireworks_collaboration_lib3app8commands6config27export_team_config_template
FN:110,_RNvNtNtNtCscu9j8SGJFlb_27fireworks_collaboration_lib3app8commands6config27import_team_config_template
FN:176,_RNvNtNtNtCscu9j8SGJFlb_27fireworks_collaboration_lib3app8commands6config5greet
FN:27,_RNCNCNvNtNtNtCscu9j8SGJFlb_27fireworks_collaboration_lib3app8commands6config10get_config00Bb_
FN:27,_RNCNCNvNtNtNtCscu9j8SGJFlb_27fireworks_collaboration_lib3app8commands6config10get_config0s_0Bb_
FN:45,_RNCNCNvNtNtNtCscu9j8SGJFlb_27fireworks_collaboration_lib3app8commands6config10set_config00Bb_
FN:53,_RNCNCNvNtNtNtCscu9j8SGJFlb_27fireworks_collaboration_lib3app8commands6config10set_config0s_0Bb_
FN:91,_RNCNCNvNtNtNtCscu9j8SGJFlb_27fireworks_collaboration_lib3app8commands6config27export_team_config_template00Bb_
FN:97,_RNCNCNvNtNtNtCscu9j8SGJFlb_27fireworks_collaboration_lib3app8commands6config27export_team_config_template0s0_0Bb_
FN:103,_RNCNCNvNtNtNtCscu9j8SGJFlb_27fireworks_collaboration_lib3app8commands6config27export_team_config_template0s1_0Bb_
FN:95,_RNCNCNvNtNtNtCscu9j8SGJFlb_27fireworks_collaboration_lib3app8commands6config27export_team_config_template0s_0Bb_
FN:117,_RNCNCNvNtNtNtCscu9j8SGJFlb_27fireworks_collaboration_lib3app8commands6config27import_team_config_template00Bb_
FN:126,_RNCNCNvNtNtNtCscu9j8SGJFlb_27fireworks_collaboration_lib3app8commands6config27import_team_config_template0s0_0Bb_
FN:128,_RNCNCNvNtNtNtCscu9j8SGJFlb_27fireworks_collaboration_lib3app8commands6config27import_team_config_template0s1_0Bb_
FN:133,_RNCNCNvNtNtNtCscu9j8SGJFlb_27fireworks_collaboration_lib3app8commands6config27import_team_config_template0s2_0Bb_
FN:135,_RNCNCNvNtNtNtCscu9j8SGJFlb_27fireworks_collaboration_lib3app8commands6config27import_team_config_template0s3_0Bb_
FN:137,_RNCNCNvNtNtNtCscu9j8SGJFlb_27fireworks_collaboration_lib3app8commands6config27import_team_config_template0s4_0Bb_
FN:140,_RNCNCNvNtNtNtCscu9j8SGJFlb_27fireworks_collaboration_lib3app8commands6config27import_team_config_template0s5_0Bb_
FN:123,_RNCNCNvNtNtNtCscu9j8SGJFlb_27fireworks_collaboration_lib3app8commands6config27import_team_config_template0s_0Bb_
FN:26,_RNCNvNtNtNtCscu9j8SGJFlb_27fireworks_collaboration_lib3app8commands6config10get_config0B9_
FN:42,_RNCNvNtNtNtCscu9j8SGJFlb_27fireworks_collaboration_lib3app8commands6config10set_config0B9_
FN:90,_RNCNvNtNtNtCscu9j8SGJFlb_27fireworks_collaboration_lib3app8commands6config27export_team_config_template0B9_
FN:116,_RNCNvNtNtNtCscu9j8SGJFlb_27fireworks_collaboration_lib3app8commands6config27import_team_config_template0B9_
FN:27,_RNCNCNvNtNtNtCsfvgE7hV3dwJ_27fireworks_collaboration_lib3app8commands6config10get_config00Bb_
FN:27,_RNCNCNvNtNtNtCsfvgE7hV3dwJ_27fireworks_collaboration_lib3app8commands6config10get_config0s_0Bb_
FN:45,_RNCNCNvNtNtNtCsfvgE7hV3dwJ_27fireworks_collaboration_lib3app8commands6config10set_config00Bb_
FN:53,_RNCNCNvNtNtNtCsfvgE7hV3dwJ_27fireworks_collaboration_lib3app8commands6config10set_config0s_0Bb_
FN:91,_RNCNCNvNtNtNtCsfvgE7hV3dwJ_27fireworks_collaboration_lib3app8commands6config27export_team_config_template00Bb_
FN:97,_RNCNCNvNtNtNtCsfvgE7hV3dwJ_27fireworks_collaboration_lib3app8commands6config27export_team_config_template0s0_0Bb_
FN:103,_RNCNCNvNtNtNtCsfvgE7hV3dwJ_27fireworks_collaboration_lib3app8commands6config27export_team_config_template0s1_0Bb_
FN:95,_RNCNCNvNtNtNtCsfvgE7hV3dwJ_27fireworks_collaboration_lib3app8commands6config27export_team_config_template0s_0Bb_
FN:117,_RNCNCNvNtNtNtCsfvgE7hV3dwJ_27fireworks_collaboration_lib3app8commands6config27import_team_config_template00Bb_
FN:126,_RNCNCNvNtNtNtCsfvgE7hV3dwJ_27fireworks_collaboration_lib3app8commands6config27import_team_config_template0s0_0Bb_
FN:128,_RNCNCNvNtNtNtCsfvgE7hV3dwJ_27fireworks_collaboration_lib3app8commands6config27import_team_config_template0s1_0Bb_
FN:133,_RNCNCNvNtNtNtCsfvgE7hV3dwJ_27fireworks_collaboration_lib3app8commands6config27import_team_config_template0s2_0Bb_
FN:135,_RNCNCNvNtNtNtCsfvgE7hV3dwJ_27fireworks_collaboration_lib3app8commands6config27import_team_config_template0s3_0Bb_
FN:137,_RNCNCNvNtNtNtCsfvgE7hV3dwJ_27fireworks_collaboration_lib3app8commands6config27import_team_config_template0s4_0Bb_
FN:140,_RNCNCNvNtNtNtCsfvgE7hV3dwJ_27fireworks_collaboration_lib3app8commands6config27import_team_config_template0s5_0Bb_
FN:123,_RNCNCNvNtNtNtCsfvgE7hV3dwJ_27fireworks_collaboration_lib3app8commands6config27import_team_config_template0s_0Bb_
FN:26,_RNCNvNtNtNtCsfvgE7hV3dwJ_27fireworks_collaboration_lib3app8commands6config10get_config0B9_
FN:42,_RNCNvNtNtNtCsfvgE7hV3dwJ_27fireworks_collaboration_lib3app8commands6config10set_config0B9_
FN:90,_RNCNvNtNtNtCsfvgE7hV3dwJ_27fireworks_collaboration_lib3app8commands6config27export_team_config_template0B9_
FN:116,_RNCNvNtNtNtCsfvgE7hV3dwJ_27fireworks_collaboration_lib3app8commands6config27import_team_config_template0B9_
FN:26,_RNvNtNtNtCsfvgE7hV3dwJ_27fireworks_collaboration_lib3app8commands6config10get_config
FN:36,_RNvNtNtNtCsfvgE7hV3dwJ_27fireworks_collaboration_lib3app8commands6config10set_config
FN:85,_RNvNtNtNtCsfvgE7hV3dwJ_27fireworks_collaboration_lib3app8commands6config27export_team_config_template
FN:110,_RNvNtNtNtCsfvgE7hV3dwJ_27fireworks_collaboration_lib3app8commands6config27import_team_config_template
FN:176,_RNvNtNtNtCsfvgE7hV3dwJ_27fireworks_collaboration_lib3app8commands6config5greet
FNDA:0,_RNvNtNtNtCscu9j8SGJFlb_27fireworks_collaboration_lib3app8commands6config10get_config
FNDA:0,_RNvNtNtNtCscu9j8SGJFlb_27fireworks_collaboration_lib3app8commands6config10set_config
FNDA:0,_RNvNtNtNtCscu9j8SGJFlb_27fireworks_collaboration_lib3app8commands6config27export_team_config_template
FNDA:0,_RNvNtNtNtCscu9j8SGJFlb_27fireworks_collaboration_lib3app8commands6config27import_team_config_template
FNDA:0,_RNvNtNtNtCscu9j8SGJFlb_27fireworks_collaboration_lib3app8commands6config5greet
FNDA:0,_RNCNCNvNtNtNtCscu9j8SGJFlb_27fireworks_collaboration_lib3app8commands6config10get_config00Bb_
FNDA:0,_RNCNCNvNtNtNtCscu9j8SGJFlb_27fireworks_collaboration_lib3app8commands6config10get_config0s_0Bb_
FNDA:0,_RNCNCNvNtNtNtCscu9j8SGJFlb_27fireworks_collaboration_lib3app8commands6config10set_config00Bb_
FNDA:0,_RNCNCNvNtNtNtCscu9j8SGJFlb_27fireworks_collaboration_lib3app8commands6config10set_config0s_0Bb_
FNDA:0,_RNCNCNvNtNtNtCscu9j8SGJFlb_27fireworks_collaboration_lib3app8commands6config27export_team_config_template00Bb_
FNDA:0,_RNCNCNvNtNtNtCscu9j8SGJFlb_27fireworks_collaboration_lib3app8commands6config27export_team_config_template0s0_0Bb_
FNDA:0,_RNCNCNvNtNtNtCscu9j8SGJFlb_27fireworks_collaboration_lib3app8commands6config27export_team_config_template0s1_0Bb_
FNDA:0,_RNCNCNvNtNtNtCscu9j8SGJFlb_27fireworks_collaboration_lib3app8commands6config27export_team_config_template0s_0Bb_
FNDA:0,_RNCNCNvNtNtNtCscu9j8SGJFlb_27fireworks_collaboration_lib3app8commands6config27import_team_config_template00Bb_
FNDA:0,_RNCNCNvNtNtNtCscu9j8SGJFlb_27fireworks_collaboration_lib3app8commands6config27import_team_config_template0s0_0Bb_
FNDA:0,_RNCNCNvNtNtNtCscu9j8SGJFlb_27fireworks_collaboration_lib3app8commands6config27import_team_config_template0s1_0Bb_
FNDA:0,_RNCNCNvNtNtNtCscu9j8SGJFlb_27fireworks_collaboration_lib3app8commands6config27import_team_config_template0s2_0Bb_
FNDA:0,_RNCNCNvNtNtNtCscu9j8SGJFlb_27fireworks_collaboration_lib3app8commands6config27import_team_config_template0s3_0Bb_
FNDA:0,_RNCNCNvNtNtNtCscu9j8SGJFlb_27fireworks_collaboration_lib3app8commands6config27import_team_config_template0s4_0Bb_
FNDA:0,_RNCNCNvNtNtNtCscu9j8SGJFlb_27fireworks_collaboration_lib3app8commands6config27import_team_config_template0s5_0Bb_
FNDA:0,_RNCNCNvNtNtNtCscu9j8SGJFlb_27fireworks_collaboration_lib3app8commands6config27import_team_config_template0s_0Bb_
FNDA:0,_RNCNvNtNtNtCscu9j8SGJFlb_27fireworks_collaboration_lib3app8commands6config10get_config0B9_
FNDA:0,_RNCNvNtNtNtCscu9j8SGJFlb_27fireworks_collaboration_lib3app8commands6config10set_config0B9_
FNDA:0,_RNCNvNtNtNtCscu9j8SGJFlb_27fireworks_collaboration_lib3app8commands6config27export_team_config_template0B9_
FNDA:0,_RNCNvNtNtNtCscu9j8SGJFlb_27fireworks_collaboration_lib3app8commands6config27import_team_config_template0B9_
FNDA:0,_RNCNCNvNtNtNtCsfvgE7hV3dwJ_27fireworks_collaboration_lib3app8commands6config10get_config00Bb_
FNDA:0,_RNCNCNvNtNtNtCsfvgE7hV3dwJ_27fireworks_collaboration_lib3app8commands6config10get_config0s_0Bb_
FNDA:0,_RNCNCNvNtNtNtCsfvgE7hV3dwJ_27fireworks_collaboration_lib3app8commands6config10set_config00Bb_
FNDA:0,_RNCNCNvNtNtNtCsfvgE7hV3dwJ_27fireworks_collaboration_lib3app8commands6config10set_config0s_0Bb_
FNDA:0,_RNCNCNvNtNtNtCsfvgE7hV3dwJ_27fireworks_collaboration_lib3app8commands6config27export_team_config_template00Bb_
FNDA:0,_RNCNCNvNtNtNtCsfvgE7hV3dwJ_27fireworks_collaboration_lib3app8commands6config27export_team_config_template0s0_0Bb_
FNDA:0,_RNCNCNvNtNtNtCsfvgE7hV3dwJ_27fireworks_collaboration_lib3app8commands6config27export_team_config_template0s1_0Bb_
FNDA:0,_RNCNCNvNtNtNtCsfvgE7hV3dwJ_27fireworks_collaboration_lib3app8commands6config27export_team_config_template0s_0Bb_
FNDA:0,_RNCNCNvNtNtNtCsfvgE7hV3dwJ_27fireworks_collaboration_lib3app8commands6config27import_team_config_template00Bb_
FNDA:0,_RNCNCNvNtNtNtCsfvgE7hV3dwJ_27fireworks_collaboration_lib3app8commands6config27import_team_config_template0s0_0Bb_
FNDA:0,_RNCNCNvNtNtNtCsfvgE7hV3dwJ_27fireworks_collaboration_lib3app8commands6config27import_team_config_template0s1_0Bb_
FNDA:0,_RNCNCNvNtNtNtCsfvgE7hV3dwJ_27fireworks_collaboration_lib3app8commands6config27import_team_config_template0s2_0Bb_
FNDA:0,_RNCNCNvNtNtNtCsfvgE7hV3dwJ_27fireworks_collaboration_lib3app8commands6config27import_team_config_template0s3_0Bb_
FNDA:0,_RNCNCNvNtNtNtCsfvgE7hV3dwJ_27fireworks_collaboration_lib3app8commands6config27import_team_config_template0s4_0Bb_
FNDA:0,_RNCNCNvNtNtNtCsfvgE7hV3dwJ_27fireworks_collaboration_lib3app8commands6config27import_team_config_template0s5_0Bb_
FNDA:0,_RNCNCNvNtNtNtCsfvgE7hV3dwJ_27fireworks_collaboration_lib3app8commands6config27import_team_config_template0s_0Bb_
FNDA:0,_RNCNvNtNtNtCsfvgE7hV3dwJ_27fireworks_collaboration_lib3app8commands6config10get_config0B9_
FNDA:0,_RNCNvNtNtNtCsfvgE7hV3dwJ_27fireworks_collaboration_lib3app8commands6config10set_config0B9_
FNDA:0,_RNCNvNtNtNtCsfvgE7hV3dwJ_27fireworks_collaboration_lib3app8commands6config27export_team_config_template0B9_
FNDA:0,_RNCNvNtNtNtCsfvgE7hV3dwJ_27fireworks_collaboration_lib3app8commands6config27import_team_config_template0B9_
FNDA:0,_RNvNtNtNtCsfvgE7hV3dwJ_27fireworks_collaboration_lib3app8commands6config10get_config
FNDA:0,_RNvNtNtNtCsfvgE7hV3dwJ_27fireworks_collaboration_lib3app8commands6config10set_config
FNDA:0,_RNvNtNtNtCsfvgE7hV3dwJ_27fireworks_collaboration_lib3app8commands6config27export_team_config_template
FNDA:0,_RNvNtNtNtCsfvgE7hV3dwJ_27fireworks_collaboration_lib3app8commands6config27import_team_config_template
FNDA:0,_RNvNtNtNtCsfvgE7hV3dwJ_27fireworks_collaboration_lib3app8commands6config5greet
FNF:25
FNH:0
DA:26,0
DA:27,0
DA:28,0
DA:36,0
DA:37,0
DA:38,0
DA:39,0
DA:40,0
DA:41,0
DA:42,0
DA:45,0
DA:46,0
DA:50,0
DA:53,0
DA:56,0
DA:57,0
DA:58,0
DA:59,0
DA:60,0
DA:62,0
DA:65,0
DA:67,0
DA:71,0
DA:72,0
DA:75,0
DA:80,0
DA:81,0
DA:85,0
DA:86,0
DA:87,0
DA:88,0
DA:89,0
DA:90,0
DA:91,0
DA:92,0
DA:94,0
DA:95,0
DA:97,0
DA:98,0
DA:99,0
DA:100,0
DA:101,0
DA:103,0
DA:105,0
DA:106,0
DA:110,0
DA:111,0
DA:112,0
DA:113,0
DA:114,0
DA:115,0
DA:116,0
DA:117,0
DA:118,0
DA:119,0
DA:120,0
DA:121,0
DA:123,0
DA:124,0
DA:126,0
DA:128,0
DA:130,0
DA:131,0
DA:132,0
DA:133,0
DA:135,0
DA:137,0
DA:139,0
DA:140,0
DA:141,0
DA:143,0
DA:144,0
DA:146,0
DA:147,0
DA:148,0
DA:149,0
DA:150,0
DA:152,0
DA:154,0
DA:158,0
DA:159,0
DA:162,0
DA:167,0
DA:168,0
DA:169,0
DA:171,0
DA:172,0
DA:176,0
DA:177,0
DA:178,0
BRF:0
BRH:0
LF:110
LH:0
end_of_record
SF:C:\Users\34404\Documents\GitHub\fireworks-collaboration\src-tauri\src\app\commands\credential.rs
FN:48,_RNCNCNvXNtNtNtCscu9j8SGJFlb_27fireworks_collaboration_lib3app8commands10credentialNtB6_14CredentialInfoINtNtCs5cb5cxfFw7H_4core7convert4FromRNtNtNtNtBc_4core10credential5model10CredentialE4from00Bc_
FN:54,_RNCNCNvXNtNtNtCscu9j8SGJFlb_27fireworks_collaboration_lib3app8commands10credentialNtB6_14CredentialInfoINtNtCs5cb5cxfFw7H_4core7convert4FromRNtNtNtNtBc_4core10credential5model10CredentialE4froms_00Bc_
FN:585,_RNCNvNtNtNtCscu9j8SGJFlb_27fireworks_collaboration_lib3app8commands10credential27initialize_credential_store0B9_
FN:45,_RNCNvXNtNtNtCscu9j8SGJFlb_27fireworks_collaboration_lib3app8commands10credentialNtB4_14CredentialInfoINtNtCs5cb5cxfFw7H_4core7convert4FromRNtNtNtNtBa_4core10credential5model10CredentialE4from0Ba_
FN:51,_RNCNvXNtNtNtCscu9j8SGJFlb_27fireworks_collaboration_lib3app8commands10credentialNtB4_14CredentialInfoINtNtCs5cb5cxfFw7H_4core7convert4FromRNtNtNtNtBa_4core10credential5model10CredentialE4froms_0Ba_
FN:444,_RNCNCNvNtNtNtCscu9j8SGJFlb_27fireworks_collaboration_lib3app8commands10credential12unlock_store00Bb_
FN:460,_RNCNCNvNtNtNtCscu9j8SGJFlb_27fireworks_collaboration_lib3app8commands10credential12unlock_store0s_0Bb_
FN:108,_RNCNCNvNtNtNtCscu9j8SGJFlb_27fireworks_collaboration_lib3app8commands10credential14add_credential00Bb_
FN:134,_RNCNCNvNtNtNtCscu9j8SGJFlb_27fireworks_collaboration_lib3app8commands10credential14add_credential0s0_0Bb_
FN:115,_RNCNCNvNtNtNtCscu9j8SGJFlb_27fireworks_collaboration_lib3app8commands10credential14add_credential0s_0Bb_
FN:179,_RNCNCNvNtNtNtCscu9j8SGJFlb_27fireworks_collaboration_lib3app8commands10credential14get_credential00Bb_
FN:186,_RNCNCNvNtNtNtCscu9j8SGJFlb_27fireworks_collaboration_lib3app8commands10credential14get_credential0s_0Bb_
FN:500,_RNCNCNvNtNtNtCscu9j8SGJFlb_27fireworks_collaboration_lib3app8commands10credential16export_audit_log00Bb_
FN:504,_RNCNCNvNtNtNtCscu9j8SGJFlb_27fireworks_collaboration_lib3app8commands10credential16export_audit_log0s_0Bb_
FN:347,_RNCNCNvNtNtNtCscu9j8SGJFlb_27fireworks_collaboration_lib3app8commands10credential16list_credentials00Bb_
FN:354,_RNCNCNvNtNtNtCscu9j8SGJFlb_27fireworks_collaboration_lib3app8commands10credential16list_credentials0s_0Bb_
FN:299,_RNCNCNvNtNtNtCscu9j8SGJFlb_27fireworks_collaboration_lib3app8commands10credential17delete_credential00Bb_
FN:306,_RNCNCNvNtNtNtCscu9j8SGJFlb_27fireworks_collaboration_lib3app8commands10credential17delete_credential0s_0Bb_
FN:223,_RNCNCNvNtNtNtCscu9j8SGJFlb_27fireworks_collaboration_lib3app8commands10credential17update_credential00Bb_
FN:235,_RNCNCNvNtNtNtCscu9j8SGJFlb_27fireworks_collaboration_lib3app8commands10credential17update_credential0s0_0Bb_
FN:254,_RNCNCNvNtNtNtCscu9j8SGJFlb_27fireworks_collaboration_lib3app8commands10credential17update_credential0s1_0Bb_
FN:230,_RNCNCNvNtNtNtCscu9j8SGJFlb_27fireworks_collaboration_lib3app8commands10credential17update_credential0s_0Bb_
FN:609,_RNCNCNvNtNtNtCscu9j8SGJFlb_27fireworks_collaboration_lib3app8commands10credential18cleanup_audit_logs00Bb_
FN:402,_RNCNCNvNtNtNtCscu9j8SGJFlb_27fireworks_collaboration_lib3app8commands10credential19set_master_password00Bb_
FN:406,_RNCNCNvNtNtNtCscu9j8SGJFlb_27fireworks_collaboration_lib3app8commands10credential19set_master_password0s_0Bb_
FN:627,_RNCNCNvNtNtNtCscu9j8SGJFlb_27fireworks_collaboration_lib3app8commands10credential20is_credential_locked00Bb_
FN:645,_RNCNCNvNtNtNtCscu9j8SGJFlb_27fireworks_collaboration_lib3app8commands10credential21reset_credential_lock00Bb_
FN:668,_RNCNCNvNtNtNtCscu9j8SGJFlb_27fireworks_collaboration_lib3app8commands10credential23remaining_auth_attempts00Bb_
FN:526,_RNCNCNvNtNtNtCscu9j8SGJFlb_27fireworks_collaboration_lib3app8commands10credential27cleanup_expired_credentials00Bb_
FN:543,_RNCNCNvNtNtNtCscu9j8SGJFlb_27fireworks_collaboration_lib3app8commands10credential27cleanup_expired_credentials0s0_0Bb_
FN:534,_RNCNCNvNtNtNtCscu9j8SGJFlb_27fireworks_collaboration_lib3app8commands10credential27cleanup_expired_credentials0s_0Bb_
FN:439,_RNCNvNtNtNtCscu9j8SGJFlb_27fireworks_collaboration_lib3app8commands10credential12unlock_store0B9_
FN:105,_RNCNvNtNtNtCscu9j8SGJFlb_27fireworks_collaboration_lib3app8commands10credential14add_credential0B9_
FN:176,_RNCNvNtNtNtCscu9j8SGJFlb_27fireworks_collaboration_lib3app8commands10credential14get_credential0B9_
FN:497,_RNCNvNtNtNtCscu9j8SGJFlb_27fireworks_collaboration_lib3app8commands10credential16export_audit_log0B9_
FN:344,_RNCNvNtNtNtCscu9j8SGJFlb_27fireworks_collaboration_lib3app8commands10credential16list_credentials0B9_
FN:296,_RNCNvNtNtNtCscu9j8SGJFlb_27fireworks_collaboration_lib3app8commands10credential17delete_credential0B9_
FN:220,_RNCNvNtNtNtCscu9j8SGJFlb_27fireworks_collaboration_lib3app8commands10credential17update_credential0B9_
FN:602,_RNCNvNtNtNtCscu9j8SGJFlb_27fireworks_collaboration_lib3app8commands10credential18cleanup_audit_logs0B9_
FN:390,_RNCNvNtNtNtCscu9j8SGJFlb_27fireworks_collaboration_lib3app8commands10credential19set_master_password0B9_
FN:624,_RNCNvNtNtNtCscu9j8SGJFlb_27fireworks_collaboration_lib3app8commands10credential20is_credential_locked0B9_
FN:642,_RNCNvNtNtNtCscu9j8SGJFlb_27fireworks_collaboration_lib3app8commands10credential21reset_credential_lock0B9_
FN:665,_RNCNvNtNtNtCscu9j8SGJFlb_27fireworks_collaboration_lib3app8commands10credential23remaining_auth_attempts0B9_
FN:523,_RNCNvNtNtNtCscu9j8SGJFlb_27fireworks_collaboration_lib3app8commands10credential27cleanup_expired_credentials0B9_
FN:434,_RNvNtNtNtCscu9j8SGJFlb_27fireworks_collaboration_lib3app8commands10credential12unlock_store
FN:101,_RNvNtNtNtCscu9j8SGJFlb_27fireworks_collaboration_lib3app8commands10credential14add_credential
FN:171,_RNvNtNtNtCscu9j8SGJFlb_27fireworks_collaboration_lib3app8commands10credential14get_credential
FN:497,_RNvNtNtNtCscu9j8SGJFlb_27fireworks_collaboration_lib3app8commands10credential16export_audit_log
FN:341,_RNvNtNtNtCscu9j8SGJFlb_27fireworks_collaboration_lib3app8commands10credential16list_credentials
FN:291,_RNvNtNtNtCscu9j8SGJFlb_27fireworks_collaboration_lib3app8commands10credential17delete_credential
FN:216,_RNvNtNtNtCscu9j8SGJFlb_27fireworks_collaboration_lib3app8commands10credential17update_credential
FN:599,_RNvNtNtNtCscu9j8SGJFlb_27fireworks_collaboration_lib3app8commands10credential18cleanup_audit_logs
FN:386,_RNvNtNtNtCscu9j8SGJFlb_27fireworks_collaboration_lib3app8commands10credential19set_master_password
FN:624,_RNvNtNtNtCscu9j8SGJFlb_27fireworks_collaboration_lib3app8commands10credential20is_credential_locked
FN:642,_RNvNtNtNtCscu9j8SGJFlb_27fireworks_collaboration_lib3app8commands10credential21reset_credential_lock
FN:665,_RNvNtNtNtCscu9j8SGJFlb_27fireworks_collaboration_lib3app8commands10credential23remaining_auth_attempts
FN:520,_RNvNtNtNtCscu9j8SGJFlb_27fireworks_collaboration_lib3app8commands10credential27cleanup_expired_credentials
FN:582,_RNvNtNtNtCscu9j8SGJFlb_27fireworks_collaboration_lib3app8commands10credential27initialize_credential_store
FN:38,_RNvXNtNtNtCscu9j8SGJFlb_27fireworks_collaboration_lib3app8commands10credentialNtB2_14CredentialInfoINtNtCs5cb5cxfFw7H_4core7convert4FromRNtNtNtNtB8_4core10credential5model10CredentialE4from
FN:444,_RNCNCNvNtNtNtCsfvgE7hV3dwJ_27fireworks_collaboration_lib3app8commands10credential12unlock_store00Bb_
FN:460,_RNCNCNvNtNtNtCsfvgE7hV3dwJ_27fireworks_collaboration_lib3app8commands10credential12unlock_store0s_0Bb_
FN:108,_RNCNCNvNtNtNtCsfvgE7hV3dwJ_27fireworks_collaboration_lib3app8commands10credential14add_credential00Bb_
FN:134,_RNCNCNvNtNtNtCsfvgE7hV3dwJ_27fireworks_collaboration_lib3app8commands10credential14add_credential0s0_0Bb_
FN:115,_RNCNCNvNtNtNtCsfvgE7hV3dwJ_27fireworks_collaboration_lib3app8commands10credential14add_credential0s_0Bb_
FN:179,_RNCNCNvNtNtNtCsfvgE7hV3dwJ_27fireworks_collaboration_lib3app8commands10credential14get_credential00Bb_
FN:186,_RNCNCNvNtNtNtCsfvgE7hV3dwJ_27fireworks_collaboration_lib3app8commands10credential14get_credential0s_0Bb_
FN:500,_RNCNCNvNtNtNtCsfvgE7hV3dwJ_27fireworks_collaboration_lib3app8commands10credential16export_audit_log00Bb_
FN:504,_RNCNCNvNtNtNtCsfvgE7hV3dwJ_27fireworks_collaboration_lib3app8commands10credential16export_audit_log0s_0Bb_
FN:347,_RNCNCNvNtNtNtCsfvgE7hV3dwJ_27fireworks_collaboration_lib3app8commands10credential16list_credentials00Bb_
FN:354,_RNCNCNvNtNtNtCsfvgE7hV3dwJ_27fireworks_collaboration_lib3app8commands10credential16list_credentials0s_0Bb_
FN:299,_RNCNCNvNtNtNtCsfvgE7hV3dwJ_27fireworks_collaboration_lib3app8commands10credential17delete_credential00Bb_
FN:306,_RNCNCNvNtNtNtCsfvgE7hV3dwJ_27fireworks_collaboration_lib3app8commands10credential17delete_credential0s_0Bb_
FN:223,_RNCNCNvNtNtNtCsfvgE7hV3dwJ_27fireworks_collaboration_lib3app8commands10credential17update_credential00Bb_
FN:235,_RNCNCNvNtNtNtCsfvgE7hV3dwJ_27fireworks_collaboration_lib3app8commands10credential17update_credential0s0_0Bb_
FN:254,_RNCNCNvNtNtNtCsfvgE7hV3dwJ_27fireworks_collaboration_lib3app8commands10credential17update_credential0s1_0Bb_
FN:230,_RNCNCNvNtNtNtCsfvgE7hV3dwJ_27fireworks_collaboration_lib3app8commands10credential17update_credential0s_0Bb_
FN:609,_RNCNCNvNtNtNtCsfvgE7hV3dwJ_27fireworks_collaboration_lib3app8commands10credential18cleanup_audit_logs00Bb_
FN:402,_RNCNCNvNtNtNtCsfvgE7hV3dwJ_27fireworks_collaboration_lib3app8commands10credential19set_master_password00Bb_
FN:406,_RNCNCNvNtNtNtCsfvgE7hV3dwJ_27fireworks_collaboration_lib3app8commands10credential19set_master_password0s_0Bb_
FN:627,_RNCNCNvNtNtNtCsfvgE7hV3dwJ_27fireworks_collaboration_lib3app8commands10credential20is_credential_locked00Bb_
FN:645,_RNCNCNvNtNtNtCsfvgE7hV3dwJ_27fireworks_collaboration_lib3app8commands10credential21reset_credential_lock00Bb_
FN:668,_RNCNCNvNtNtNtCsfvgE7hV3dwJ_27fireworks_collaboration_lib3app8commands10credential23remaining_auth_attempts00Bb_
FN:526,_RNCNCNvNtNtNtCsfvgE7hV3dwJ_27fireworks_collaboration_lib3app8commands10credential27cleanup_expired_credentials00Bb_
FN:543,_RNCNCNvNtNtNtCsfvgE7hV3dwJ_27fireworks_collaboration_lib3app8commands10credential27cleanup_expired_credentials0s0_0Bb_
FN:534,_RNCNCNvNtNtNtCsfvgE7hV3dwJ_27fireworks_collaboration_lib3app8commands10credential27cleanup_expired_credentials0s_0Bb_
FN:48,_RNCNCNvXNtNtNtCsfvgE7hV3dwJ_27fireworks_collaboration_lib3app8commands10credentialNtB6_14CredentialInfoINtNtCs5cb5cxfFw7H_4core7convert4FromRNtNtNtNtBc_4core10credential5model10CredentialE4from00Bc_
FN:54,_RNCNCNvXNtNtNtCsfvgE7hV3dwJ_27fireworks_collaboration_lib3app8commands10credentialNtB6_14CredentialInfoINtNtCs5cb5cxfFw7H_4core7convert4FromRNtNtNtNtBc_4core10credential5model10CredentialE4froms_00Bc_
FN:439,_RNCNvNtNtNtCsfvgE7hV3dwJ_27fireworks_collaboration_lib3app8commands10credential12unlock_store0B9_
FN:105,_RNCNvNtNtNtCsfvgE7hV3dwJ_27fireworks_collaboration_lib3app8commands10credential14add_credential0B9_
FN:176,_RNCNvNtNtNtCsfvgE7hV3dwJ_27fireworks_collaboration_lib3app8commands10credential14get_credential0B9_
FN:497,_RNCNvNtNtNtCsfvgE7hV3dwJ_27fireworks_collaboration_lib3app8commands10credential16export_audit_log0B9_
FN:344,_RNCNvNtNtNtCsfvgE7hV3dwJ_27fireworks_collaboration_lib3app8commands10credential16list_credentials0B9_
FN:296,_RNCNvNtNtNtCsfvgE7hV3dwJ_27fireworks_collaboration_lib3app8commands10credential17delete_credential0B9_
FN:220,_RNCNvNtNtNtCsfvgE7hV3dwJ_27fireworks_collaboration_lib3app8commands10credential17update_credential0B9_
FN:602,_RNCNvNtNtNtCsfvgE7hV3dwJ_27fireworks_collaboration_lib3app8commands10credential18cleanup_audit_logs0B9_
FN:390,_RNCNvNtNtNtCsfvgE7hV3dwJ_27fireworks_collaboration_lib3app8commands10credential19set_master_password0B9_
FN:624,_RNCNvNtNtNtCsfvgE7hV3dwJ_27fireworks_collaboration_lib3app8commands10credential20is_credential_locked0B9_
FN:642,_RNCNvNtNtNtCsfvgE7hV3dwJ_27fireworks_collaboration_lib3app8commands10credential21reset_credential_lock0B9_
FN:665,_RNCNvNtNtNtCsfvgE7hV3dwJ_27fireworks_collaboration_lib3app8commands10credential23remaining_auth_attempts0B9_
FN:523,_RNCNvNtNtNtCsfvgE7hV3dwJ_27fireworks_collaboration_lib3app8commands10credential27cleanup_expired_credentials0B9_
FN:585,_RNCNvNtNtNtCsfvgE7hV3dwJ_27fireworks_collaboration_lib3app8commands10credential27initialize_credential_store0B9_
FN:45,_RNCNvXNtNtNtCsfvgE7hV3dwJ_27fireworks_collaboration_lib3app8commands10credentialNtB4_14CredentialInfoINtNtCs5cb5cxfFw7H_4core7convert4FromRNtNtNtNtBa_4core10credential5model10CredentialE4from0Ba_
FN:51,_RNCNvXNtNtNtCsfvgE7hV3dwJ_27fireworks_collaboration_lib3app8commands10credentialNtB4_14CredentialInfoINtNtCs5cb5cxfFw7H_4core7convert4FromRNtNtNtNtBa_4core10credential5model10CredentialE4froms_0Ba_
FN:434,_RNvNtNtNtCsfvgE7hV3dwJ_27fireworks_collaboration_lib3app8commands10credential12unlock_store
FN:101,_RNvNtNtNtCsfvgE7hV3dwJ_27fireworks_collaboration_lib3app8commands10credential14add_credential
FN:171,_RNvNtNtNtCsfvgE7hV3dwJ_27fireworks_collaboration_lib3app8commands10credential14get_credential
FN:497,_RNvNtNtNtCsfvgE7hV3dwJ_27fireworks_collaboration_lib3app8commands10credential16export_audit_log
FN:341,_RNvNtNtNtCsfvgE7hV3dwJ_27fireworks_collaboration_lib3app8commands10credential16list_credentials
FN:291,_RNvNtNtNtCsfvgE7hV3dwJ_27fireworks_collaboration_lib3app8commands10credential17delete_credential
FN:216,_RNvNtNtNtCsfvgE7hV3dwJ_27fireworks_collaboration_lib3app8commands10credential17update_credential
FN:599,_RNvNtNtNtCsfvgE7hV3dwJ_27fireworks_collaboration_lib3app8commands10credential18cleanup_audit_logs
FN:386,_RNvNtNtNtCsfvgE7hV3dwJ_27fireworks_collaboration_lib3app8commands10credential19set_master_password
FN:624,_RNvNtNtNtCsfvgE7hV3dwJ_27fireworks_collaboration_lib3app8commands10credential20is_credential_locked
FN:642,_RNvNtNtNtCsfvgE7hV3dwJ_27fireworks_collaboration_lib3app8commands10credential21reset_credential_lock
FN:665,_RNvNtNtNtCsfvgE7hV3dwJ_27fireworks_collaboration_lib3app8commands10credential23remaining_auth_attempts
FN:520,_RNvNtNtNtCsfvgE7hV3dwJ_27fireworks_collaboration_lib3app8commands10credential27cleanup_expired_credentials
FN:582,_RNvNtNtNtCsfvgE7hV3dwJ_27fireworks_collaboration_lib3app8commands10credential27initialize_credential_store
FN:38,_RNvXNtNtNtCsfvgE7hV3dwJ_27fireworks_collaboration_lib3app8commands10credentialNtB2_14CredentialInfoINtNtCs5cb5cxfFw7H_4core7convert4FromRNtNtNtNtB8_4core10credential5model10CredentialE4from
FNDA:2,_RNCNCNvXNtNtNtCscu9j8SGJFlb_27fireworks_collaboration_lib3app8commands10credentialNtB6_14CredentialInfoINtNtCs5cb5cxfFw7H_4core7convert4FromRNtNtNtNtBc_4core10credential5model10CredentialE4from00Bc_
FNDA:0,_RNCNCNvXNtNtNtCscu9j8SGJFlb_27fireworks_collaboration_lib3app8commands10credentialNtB6_14CredentialInfoINtNtCs5cb5cxfFw7H_4core7convert4FromRNtNtNtNtBc_4core10credential5model10CredentialE4froms_00Bc_
FNDA:0,_RNCNvNtNtNtCscu9j8SGJFlb_27fireworks_collaboration_lib3app8commands10credential27initialize_credential_store0B9_
FNDA:2,_RNCNvXNtNtNtCscu9j8SGJFlb_27fireworks_collaboration_lib3app8commands10credentialNtB4_14CredentialInfoINtNtCs5cb5cxfFw7H_4core7convert4FromRNtNtNtNtBa_4core10credential5model10CredentialE4from0Ba_
FNDA:0,_RNCNvXNtNtNtCscu9j8SGJFlb_27fireworks_collaboration_lib3app8commands10credentialNtB4_14CredentialInfoINtNtCs5cb5cxfFw7H_4core7convert4FromRNtNtNtNtBa_4core10credential5model10CredentialE4froms_0Ba_
FNDA:0,_RNCNCNvNtNtNtCscu9j8SGJFlb_27fireworks_collaboration_lib3app8commands10credential12unlock_store00Bb_
FNDA:0,_RNCNCNvNtNtNtCscu9j8SGJFlb_27fireworks_collaboration_lib3app8commands10credential12unlock_store0s_0Bb_
FNDA:0,_RNCNCNvNtNtNtCscu9j8SGJFlb_27fireworks_collaboration_lib3app8commands10credential14add_credential00Bb_
FNDA:0,_RNCNCNvNtNtNtCscu9j8SGJFlb_27fireworks_collaboration_lib3app8commands10credential14add_credential0s0_0Bb_
FNDA:0,_RNCNCNvNtNtNtCscu9j8SGJFlb_27fireworks_collaboration_lib3app8commands10credential14add_credential0s_0Bb_
FNDA:0,_RNCNCNvNtNtNtCscu9j8SGJFlb_27fireworks_collaboration_lib3app8commands10credential14get_credential00Bb_
FNDA:0,_RNCNCNvNtNtNtCscu9j8SGJFlb_27fireworks_collaboration_lib3app8commands10credential14get_credential0s_0Bb_
FNDA:0,_RNCNCNvNtNtNtCscu9j8SGJFlb_27fireworks_collaboration_lib3app8commands10credential16export_audit_log00Bb_
FNDA:0,_RNCNCNvNtNtNtCscu9j8SGJFlb_27fireworks_collaboration_lib3app8commands10credential16export_audit_log0s_0Bb_
FNDA:0,_RNCNCNvNtNtNtCscu9j8SGJFlb_27fireworks_collaboration_lib3app8commands10credential16list_credentials00Bb_
FNDA:0,_RNCNCNvNtNtNtCscu9j8SGJFlb_27fireworks_collaboration_lib3app8commands10credential16list_credentials0s_0Bb_
FNDA:0,_RNCNCNvNtNtNtCscu9j8SGJFlb_27fireworks_collaboration_lib3app8commands10credential17delete_credential00Bb_
FNDA:0,_RNCNCNvNtNtNtCscu9j8SGJFlb_27fireworks_collaboration_lib3app8commands10credential17delete_credential0s_0Bb_
FNDA:0,_RNCNCNvNtNtNtCscu9j8SGJFlb_27fireworks_collaboration_lib3app8commands10credential17update_credential00Bb_
FNDA:0,_RNCNCNvNtNtNtCscu9j8SGJFlb_27fireworks_collaboration_lib3app8commands10credential17update_credential0s0_0Bb_
FNDA:0,_RNCNCNvNtNtNtCscu9j8SGJFlb_27fireworks_collaboration_lib3app8commands10credential17update_credential0s1_0Bb_
FNDA:0,_RNCNCNvNtNtNtCscu9j8SGJFlb_27fireworks_collaboration_lib3app8commands10credential17update_credential0s_0Bb_
FNDA:0,_RNCNCNvNtNtNtCscu9j8SGJFlb_27fireworks_collaboration_lib3app8commands10credential18cleanup_audit_logs00Bb_
FNDA:0,_RNCNCNvNtNtNtCscu9j8SGJFlb_27fireworks_collaboration_lib3app8commands10credential19set_master_password00Bb_
FNDA:0,_RNCNCNvNtNtNtCscu9j8SGJFlb_27fireworks_collaboration_lib3app8commands10credential19set_master_password0s_0Bb_
FNDA:0,_RNCNCNvNtNtNtCscu9j8SGJFlb_27fireworks_collaboration_lib3app8commands10credential20is_credential_locked00Bb_
FNDA:0,_RNCNCNvNtNtNtCscu9j8SGJFlb_27fireworks_collaboration_lib3app8commands10credential21reset_credential_lock00Bb_
FNDA:0,_RNCNCNvNtNtNtCscu9j8SGJFlb_27fireworks_collaboration_lib3app8commands10credential23remaining_auth_attempts00Bb_
FNDA:0,_RNCNCNvNtNtNtCscu9j8SGJFlb_27fireworks_collaboration_lib3app8commands10credential27cleanup_expired_credentials00Bb_
FNDA:0,_RNCNCNvNtNtNtCscu9j8SGJFlb_27fireworks_collaboration_lib3app8commands10credential27cleanup_expired_credentials0s0_0Bb_
FNDA:0,_RNCNCNvNtNtNtCscu9j8SGJFlb_27fireworks_collaboration_lib3app8commands10credential27cleanup_expired_credentials0s_0Bb_
FNDA:0,_RNCNvNtNtNtCscu9j8SGJFlb_27fireworks_collaboration_lib3app8commands10credential12unlock_store0B9_
FNDA:0,_RNCNvNtNtNtCscu9j8SGJFlb_27fireworks_collaboration_lib3app8commands10credential14add_credential0B9_
FNDA:0,_RNCNvNtNtNtCscu9j8SGJFlb_27fireworks_collaboration_lib3app8commands10credential14get_credential0B9_
FNDA:0,_RNCNvNtNtNtCscu9j8SGJFlb_27fireworks_collaboration_lib3app8commands10credential16export_audit_log0B9_
FNDA:0,_RNCNvNtNtNtCscu9j8SGJFlb_27fireworks_collaboration_lib3app8commands10credential16list_credentials0B9_
FNDA:0,_RNCNvNtNtNtCscu9j8SGJFlb_27fireworks_collaboration_lib3app8commands10credential17delete_credential0B9_
FNDA:0,_RNCNvNtNtNtCscu9j8SGJFlb_27fireworks_collaboration_lib3app8commands10credential17update_credential0B9_
FNDA:0,_RNCNvNtNtNtCscu9j8SGJFlb_27fireworks_collaboration_lib3app8commands10credential18cleanup_audit_logs0B9_
FNDA:0,_RNCNvNtNtNtCscu9j8SGJFlb_27fireworks_collaboration_lib3app8commands10credential19set_master_password0B9_
FNDA:0,_RNCNvNtNtNtCscu9j8SGJFlb_27fireworks_collaboration_lib3app8commands10credential20is_credential_locked0B9_
FNDA:0,_RNCNvNtNtNtCscu9j8SGJFlb_27fireworks_collaboration_lib3app8commands10credential21reset_credential_lock0B9_
FNDA:0,_RNCNvNtNtNtCscu9j8SGJFlb_27fireworks_collaboration_lib3app8commands10credential23remaining_auth_attempts0B9_
FNDA:0,_RNCNvNtNtNtCscu9j8SGJFlb_27fireworks_collaboration_lib3app8commands10credential27cleanup_expired_credentials0B9_
FNDA:0,_RNvNtNtNtCscu9j8SGJFlb_27fireworks_collaboration_lib3app8commands10credential12unlock_store
FNDA:0,_RNvNtNtNtCscu9j8SGJFlb_27fireworks_collaboration_lib3app8commands10credential14add_credential
FNDA:0,_RNvNtNtNtCscu9j8SGJFlb_27fireworks_collaboration_lib3app8commands10credential14get_credential
FNDA:0,_RNvNtNtNtCscu9j8SGJFlb_27fireworks_collaboration_lib3app8commands10credential16export_audit_log
FNDA:0,_RNvNtNtNtCscu9j8SGJFlb_27fireworks_collaboration_lib3app8commands10credential16list_credentials
FNDA:0,_RNvNtNtNtCscu9j8SGJFlb_27fireworks_collaboration_lib3app8commands10credential17delete_credential
FNDA:0,_RNvNtNtNtCscu9j8SGJFlb_27fireworks_collaboration_lib3app8commands10credential17update_credential
FNDA:0,_RNvNtNtNtCscu9j8SGJFlb_27fireworks_collaboration_lib3app8commands10credential18cleanup_audit_logs
FNDA:0,_RNvNtNtNtCscu9j8SGJFlb_27fireworks_collaboration_lib3app8commands10credential19set_master_password
FNDA:0,_RNvNtNtNtCscu9j8SGJFlb_27fireworks_collaboration_lib3app8commands10credential20is_credential_locked
FNDA:0,_RNvNtNtNtCscu9j8SGJFlb_27fireworks_collaboration_lib3app8commands10credential21reset_credential_lock
FNDA:0,_RNvNtNtNtCscu9j8SGJFlb_27fireworks_collaboration_lib3app8commands10credential23remaining_auth_attempts
FNDA:0,_RNvNtNtNtCscu9j8SGJFlb_27fireworks_collaboration_lib3app8commands10credential27cleanup_expired_credentials
FNDA:0,_RNvNtNtNtCscu9j8SGJFlb_27fireworks_collaboration_lib3app8commands10credential27initialize_credential_store
FNDA:5,_RNvXNtNtNtCscu9j8SGJFlb_27fireworks_collaboration_lib3app8commands10credentialNtB2_14CredentialInfoINtNtCs5cb5cxfFw7H_4core7convert4FromRNtNtNtNtB8_4core10credential5model10CredentialE4from
FNDA:0,_RNCNCNvNtNtNtCsfvgE7hV3dwJ_27fireworks_collaboration_lib3app8commands10credential12unlock_store00Bb_
FNDA:0,_RNCNCNvNtNtNtCsfvgE7hV3dwJ_27fireworks_collaboration_lib3app8commands10credential12unlock_store0s_0Bb_
FNDA:0,_RNCNCNvNtNtNtCsfvgE7hV3dwJ_27fireworks_collaboration_lib3app8commands10credential14add_credential00Bb_
FNDA:0,_RNCNCNvNtNtNtCsfvgE7hV3dwJ_27fireworks_collaboration_lib3app8commands10credential14add_credential0s0_0Bb_
FNDA:0,_RNCNCNvNtNtNtCsfvgE7hV3dwJ_27fireworks_collaboration_lib3app8commands10credential14add_credential0s_0Bb_
FNDA:0,_RNCNCNvNtNtNtCsfvgE7hV3dwJ_27fireworks_collaboration_lib3app8commands10credential14get_credential00Bb_
FNDA:0,_RNCNCNvNtNtNtCsfvgE7hV3dwJ_27fireworks_collaboration_lib3app8commands10credential14get_credential0s_0Bb_
FNDA:0,_RNCNCNvNtNtNtCsfvgE7hV3dwJ_27fireworks_collaboration_lib3app8commands10credential16export_audit_log00Bb_
FNDA:0,_RNCNCNvNtNtNtCsfvgE7hV3dwJ_27fireworks_collaboration_lib3app8commands10credential16export_audit_log0s_0Bb_
FNDA:0,_RNCNCNvNtNtNtCsfvgE7hV3dwJ_27fireworks_collaboration_lib3app8commands10credential16list_credentials00Bb_
FNDA:0,_RNCNCNvNtNtNtCsfvgE7hV3dwJ_27fireworks_collaboration_lib3app8commands10credential16list_credentials0s_0Bb_
FNDA:0,_RNCNCNvNtNtNtCsfvgE7hV3dwJ_27fireworks_collaboration_lib3app8commands10credential17delete_credential00Bb_
FNDA:0,_RNCNCNvNtNtNtCsfvgE7hV3dwJ_27fireworks_collaboration_lib3app8commands10credential17delete_credential0s_0Bb_
FNDA:0,_RNCNCNvNtNtNtCsfvgE7hV3dwJ_27fireworks_collaboration_lib3app8commands10credential17update_credential00Bb_
FNDA:0,_RNCNCNvNtNtNtCsfvgE7hV3dwJ_27fireworks_collaboration_lib3app8commands10credential17update_credential0s0_0Bb_
FNDA:0,_RNCNCNvNtNtNtCsfvgE7hV3dwJ_27fireworks_collaboration_lib3app8commands10credential17update_credential0s1_0Bb_
FNDA:0,_RNCNCNvNtNtNtCsfvgE7hV3dwJ_27fireworks_collaboration_lib3app8commands10credential17update_credential0s_0Bb_
FNDA:0,_RNCNCNvNtNtNtCsfvgE7hV3dwJ_27fireworks_collaboration_lib3app8commands10credential18cleanup_audit_logs00Bb_
FNDA:0,_RNCNCNvNtNtNtCsfvgE7hV3dwJ_27fireworks_collaboration_lib3app8commands10credential19set_master_password00Bb_
FNDA:0,_RNCNCNvNtNtNtCsfvgE7hV3dwJ_27fireworks_collaboration_lib3app8commands10credential19set_master_password0s_0Bb_
FNDA:0,_RNCNCNvNtNtNtCsfvgE7hV3dwJ_27fireworks_collaboration_lib3app8commands10credential20is_credential_locked00Bb_
FNDA:0,_RNCNCNvNtNtNtCsfvgE7hV3dwJ_27fireworks_collaboration_lib3app8commands10credential21reset_credential_lock00Bb_
FNDA:0,_RNCNCNvNtNtNtCsfvgE7hV3dwJ_27fireworks_collaboration_lib3app8commands10credential23remaining_auth_attempts00Bb_
FNDA:0,_RNCNCNvNtNtNtCsfvgE7hV3dwJ_27fireworks_collaboration_lib3app8commands10credential27cleanup_expired_credentials00Bb_
FNDA:0,_RNCNCNvNtNtNtCsfvgE7hV3dwJ_27fireworks_collaboration_lib3app8commands10credential27cleanup_expired_credentials0s0_0Bb_
FNDA:0,_RNCNCNvNtNtNtCsfvgE7hV3dwJ_27fireworks_collaboration_lib3app8commands10credential27cleanup_expired_credentials0s_0Bb_
FNDA:0,_RNCNCNvXNtNtNtCsfvgE7hV3dwJ_27fireworks_collaboration_lib3app8commands10credentialNtB6_14CredentialInfoINtNtCs5cb5cxfFw7H_4core7convert4FromRNtNtNtNtBc_4core10credential5model10CredentialE4from00Bc_
FNDA:0,_RNCNCNvXNtNtNtCsfvgE7hV3dwJ_27fireworks_collaboration_lib3app8commands10credentialNtB6_14CredentialInfoINtNtCs5cb5cxfFw7H_4core7convert4FromRNtNtNtNtBc_4core10credential5model10CredentialE4froms_00Bc_
FNDA:0,_RNCNvNtNtNtCsfvgE7hV3dwJ_27fireworks_collaboration_lib3app8commands10credential12unlock_store0B9_
FNDA:0,_RNCNvNtNtNtCsfvgE7hV3dwJ_27fireworks_collaboration_lib3app8commands10credential14add_credential0B9_
FNDA:0,_RNCNvNtNtNtCsfvgE7hV3dwJ_27fireworks_collaboration_lib3app8commands10credential14get_credential0B9_
FNDA:0,_RNCNvNtNtNtCsfvgE7hV3dwJ_27fireworks_collaboration_lib3app8commands10credential16export_audit_log0B9_
FNDA:0,_RNCNvNtNtNtCsfvgE7hV3dwJ_27fireworks_collaboration_lib3app8commands10credential16list_credentials0B9_
FNDA:0,_RNCNvNtNtNtCsfvgE7hV3dwJ_27fireworks_collaboration_lib3app8commands10credential17delete_credential0B9_
FNDA:0,_RNCNvNtNtNtCsfvgE7hV3dwJ_27fireworks_collaboration_lib3app8commands10credential17update_credential0B9_
FNDA:0,_RNCNvNtNtNtCsfvgE7hV3dwJ_27fireworks_collaboration_lib3app8commands10credential18cleanup_audit_logs0B9_
FNDA:0,_RNCNvNtNtNtCsfvgE7hV3dwJ_27fireworks_collaboration_lib3app8commands10credential19set_master_password0B9_
FNDA:0,_RNCNvNtNtNtCsfvgE7hV3dwJ_27fireworks_collaboration_lib3app8commands10credential20is_credential_locked0B9_
FNDA:0,_RNCNvNtNtNtCsfvgE7hV3dwJ_27fireworks_collaboration_lib3app8commands10credential21reset_credential_lock0B9_
FNDA:0,_RNCNvNtNtNtCsfvgE7hV3dwJ_27fireworks_collaboration_lib3app8commands10credential23remaining_auth_attempts0B9_
FNDA:0,_RNCNvNtNtNtCsfvgE7hV3dwJ_27fireworks_collaboration_lib3app8commands10credential27cleanup_expired_credentials0B9_
FNDA:0,_RNCNvNtNtNtCsfvgE7hV3dwJ_27fireworks_collaboration_lib3app8commands10credential27initialize_credential_store0B9_
FNDA:0,_RNCNvXNtNtNtCsfvgE7hV3dwJ_27fireworks_collaboration_lib3app8commands10credentialNtB4_14CredentialInfoINtNtCs5cb5cxfFw7H_4core7convert4FromRNtNtNtNtBa_4core10credential5model10CredentialE4from0Ba_
FNDA:0,_RNCNvXNtNtNtCsfvgE7hV3dwJ_27fireworks_collaboration_lib3app8commands10credentialNtB4_14CredentialInfoINtNtCs5cb5cxfFw7H_4core7convert4FromRNtNtNtNtBa_4core10credential5model10CredentialE4froms_0Ba_
FNDA:0,_RNvNtNtNtCsfvgE7hV3dwJ_27fireworks_collaboration_lib3app8commands10credential12unlock_store
FNDA:0,_RNvNtNtNtCsfvgE7hV3dwJ_27fireworks_collaboration_lib3app8commands10credential14add_credential
FNDA:0,_RNvNtNtNtCsfvgE7hV3dwJ_27fireworks_collaboration_lib3app8commands10credential14get_credential
FNDA:0,_RNvNtNtNtCsfvgE7hV3dwJ_27fireworks_collaboration_lib3app8commands10credential16export_audit_log
FNDA:0,_RNvNtNtNtCsfvgE7hV3dwJ_27fireworks_collaboration_lib3app8commands10credential16list_credentials
FNDA:0,_RNvNtNtNtCsfvgE7hV3dwJ_27fireworks_collaboration_lib3app8commands10credential17delete_credential
FNDA:0,_RNvNtNtNtCsfvgE7hV3dwJ_27fireworks_collaboration_lib3app8commands10credential17update_credential
FNDA:0,_RNvNtNtNtCsfvgE7hV3dwJ_27fireworks_collaboration_lib3app8commands10credential18cleanup_audit_logs
FNDA:0,_RNvNtNtNtCsfvgE7hV3dwJ_27fireworks_collaboration_lib3app8commands10credential19set_master_password
FNDA:0,_RNvNtNtNtCsfvgE7hV3dwJ_27fireworks_collaboration_lib3app8commands10credential20is_credential_locked
FNDA:0,_RNvNtNtNtCsfvgE7hV3dwJ_27fireworks_collaboration_lib3app8commands10credential21reset_credential_lock
FNDA:0,_RNvNtNtNtCsfvgE7hV3dwJ_27fireworks_collaboration_lib3app8commands10credential23remaining_auth_attempts
FNDA:0,_RNvNtNtNtCsfvgE7hV3dwJ_27fireworks_collaboration_lib3app8commands10credential27cleanup_expired_credentials
FNDA:0,_RNvNtNtNtCsfvgE7hV3dwJ_27fireworks_collaboration_lib3app8commands10credential27initialize_credential_store
FNDA:0,_RNvXNtNtNtCsfvgE7hV3dwJ_27fireworks_collaboration_lib3app8commands10credentialNtB2_14CredentialInfoINtNtCs5cb5cxfFw7H_4core7convert4FromRNtNtNtNtB8_4core10credential5model10CredentialE4from
FNF:59
FNH:3
DA:38,5
DA:39,5
DA:40,5
DA:41,5
DA:42,5
DA:43,5
DA:45,5
DA:46,2
DA:47,2
DA:48,2
DA:49,2
DA:51,5
DA:52,0
DA:53,0
DA:54,0
DA:55,0
DA:57,5
DA:58,5
DA:59,5
DA:60,5
DA:61,5
DA:62,5
DA:63,5
DA:64,5
DA:65,5
DA:66,5
DA:101,0
DA:102,0
DA:103,0
DA:104,0
DA:105,0
DA:106,0
DA:107,0
DA:108,0
DA:109,0
DA:110,0
DA:111,0
DA:113,0
DA:114,0
DA:115,0
DA:117,0
DA:118,0
DA:119,0
DA:120,0
DA:121,0
DA:122,0
DA:125,0
DA:126,0
DA:127,0
DA:128,0
DA:132,0
DA:133,0
DA:134,0
DA:137,0
DA:138,0
DA:139,0
DA:140,0
DA:141,0
DA:142,0
DA:143,0
DA:144,0
DA:145,0
DA:146,0
DA:148,0
DA:152,0
DA:155,0
DA:156,0
DA:171,0
DA:172,0
DA:173,0
DA:174,0
DA:175,0
DA:176,0
DA:177,0
DA:178,0
DA:179,0
DA:180,0
DA:181,0
DA:182,0
DA:184,0
DA:185,0
DA:186,0
DA:189,0
DA:190,0
DA:191,0
DA:192,0
DA:193,0
DA:194,0
DA:195,0
DA:196,0
DA:197,0
DA:198,0
DA:199,0
DA:201,0
DA:202,0
DA:216,0
DA:217,0
DA:218,0
DA:219,0
DA:220,0
DA:221,0
DA:222,0
DA:223,0
DA:224,0
DA:225,0
DA:226,0
DA:228,0
DA:229,0
DA:230,0
DA:233,0
DA:234,0
DA:235,0
DA:237,0
DA:238,0
DA:239,0
DA:240,0
DA:241,0
DA:242,0
DA:245,0
DA:246,0
DA:247,0
DA:248,0
DA:252,0
DA:253,0
DA:254,0
DA:257,0
DA:258,0
DA:259,0
DA:260,0
DA:261,0
DA:262,0
DA:263,0
DA:264,0
DA:265,0
DA:266,0
DA:268,0
DA:272,0
DA:275,0
DA:276,0
DA:291,0
DA:292,0
DA:293,0
DA:294,0
DA:295,0
DA:296,0
DA:297,0
DA:298,0
DA:299,0
DA:300,0
DA:301,0
DA:302,0
DA:304,0
DA:305,0
DA:306,0
DA:309,0
DA:310,0
DA:311,0
DA:312,0
DA:313,0
DA:314,0
DA:315,0
DA:316,0
DA:317,0
DA:318,0
DA:320,0
DA:324,0
DA:327,0
DA:328,0
DA:341,0
DA:342,0
DA:343,0
DA:344,0
DA:345,0
DA:346,0
DA:347,0
DA:348,0
DA:349,0
DA:350,0
DA:352,0
DA:353,0
DA:354,0
DA:357,0
DA:358,0
DA:359,0
DA:360,0
DA:361,0
DA:362,0
DA:363,0
DA:364,0
DA:365,0
DA:366,0
DA:368,0
DA:369,0
DA:386,0
DA:387,0
DA:388,0
DA:389,0
DA:390,0
DA:394,0
DA:395,0
DA:397,0
DA:399,0
DA:401,0
DA:402,0
DA:404,0
DA:405,0
DA:406,0
DA:408,0
DA:410,0
DA:412,0
DA:415,0
DA:416,0
DA:434,0
DA:435,0
DA:436,0
DA:437,0
DA:438,0
DA:439,0
DA:442,0
DA:443,0
DA:444,0
DA:446,0
DA:447,0
DA:448,0
DA:449,0
DA:450,0
DA:454,0
DA:458,0
DA:459,0
DA:460,0
DA:462,0
DA:463,0
DA:464,0
DA:465,0
DA:466,0
DA:467,0
DA:468,0
DA:469,0
DA:470,0
DA:471,0
DA:472,0
DA:473,0
DA:474,0
DA:475,0
DA:476,0
DA:477,0
DA:478,0
DA:479,0
DA:480,0
DA:481,0
DA:484,0
DA:485,0
DA:497,0
DA:498,0
DA:499,0
DA:500,0
DA:502,0
DA:503,0
DA:504,0
DA:505,0
DA:520,0
DA:521,0
DA:522,0
DA:523,0
DA:524,0
DA:525,0
DA:526,0
DA:527,0
DA:528,0
DA:529,0
DA:532,0
DA:533,0
DA:534,0
DA:537,0
DA:538,0
DA:539,0
DA:541,0
DA:542,0
DA:543,0
DA:546,0
DA:547,0
DA:548,0
DA:549,0
DA:550,0
DA:551,0
DA:552,0
DA:553,0
DA:554,0
DA:555,0
DA:557,0
DA:561,0
DA:564,0
DA:565,0
DA:568,0
DA:569,0
DA:572,0
DA:574,0
DA:576,0
DA:577,0
DA:582,0
DA:583,0
DA:584,0
DA:585,0
DA:586,0
DA:599,0
DA:600,0
DA:601,0
DA:602,0
DA:603,0
DA:604,0
DA:605,0
DA:607,0
DA:608,0
DA:609,0
DA:611,0
DA:612,0
DA:624,0
DA:625,0
DA:626,0
DA:627,0
DA:629,0
DA:630,0
DA:642,0
DA:643,0
DA:644,0
DA:645,0
DA:647,0
DA:648,0
DA:650,0
DA:652,0
DA:653,0
DA:665,0
DA:666,0
DA:667,0
DA:668,0
DA:670,0
DA:671,0
BRF:0
BRH:0
LF:381
LH:24
end_of_record
SF:C:\Users\34404\Documents\GitHub\fireworks-collaboration\src-tauri\src\app\commands\git.rs
FN:278,_RNCNvNtNtNtCscu9j8SGJFlb_27fireworks_collaboration_lib3app8commands3git16extract_git_host0B9_
FN:285,_RNCNvNtNtNtCscu9j8SGJFlb_27fireworks_collaboration_lib3app8commands3git16extract_git_hosts_0B9_
FN:766,_RNCNCNvNtNtNtCscu9j8SGJFlb_27fireworks_collaboration_lib3app8commands3git15git_repo_status00Bb_
FN:788,_RNCNCNvNtNtNtCscu9j8SGJFlb_27fireworks_collaboration_lib3app8commands3git15git_repo_status0s_0Bb_
FN:1282,_RNCNCNvNtNtNtCscu9j8SGJFlb_27fireworks_collaboration_lib3app8commands3git16git_worktree_add00Bb_
FN:905,_RNCNCNvNtNtNtCscu9j8SGJFlb_27fireworks_collaboration_lib3app8commands3git17git_delete_branch00Bb_
FN:690,_RNCNCNvNtNtNtCscu9j8SGJFlb_27fireworks_collaboration_lib3app8commands3git17git_list_branches00Bb_
FN:733,_RNCNCNvNtNtNtCscu9j8SGJFlb_27fireworks_collaboration_lib3app8commands3git17git_list_branches0s0_0Bb_
FN:698,_RNCNCNvNtNtNtCscu9j8SGJFlb_27fireworks_collaboration_lib3app8commands3git17git_list_branches0s_0Bb_
FN:1007,_RNCNCNvNtNtNtCscu9j8SGJFlb_27fireworks_collaboration_lib3app8commands3git17git_worktree_list00Bb_
FN:1015,_RNCNCNvNtNtNtCscu9j8SGJFlb_27fireworks_collaboration_lib3app8commands3git17git_worktree_list0s_0Bb_
FN:947,_RNCNCNvNtNtNtCscu9j8SGJFlb_27fireworks_collaboration_lib3app8commands3git19git_remote_branches00Bb_
FN:958,_RNCNCNvNtNtNtCscu9j8SGJFlb_27fireworks_collaboration_lib3app8commands3git19git_remote_branches0s0_0Bb_
FN:959,_RNCNCNvNtNtNtCscu9j8SGJFlb_27fireworks_collaboration_lib3app8commands3git19git_remote_branches0s1_0Bb_
FN:957,_RNCNCNvNtNtNtCscu9j8SGJFlb_27fireworks_collaboration_lib3app8commands3git19git_remote_branches0s_0Bb_
FN:1328,_RNCNCNvNtNtNtCscu9j8SGJFlb_27fireworks_collaboration_lib3app8commands3git19git_worktree_remove00Bb_
FN:1369,_RNCNCNvNtNtNtCscu9j8SGJFlb_27fireworks_collaboration_lib3app8commands3git19git_worktree_remove0s_0Bb_
FN:205,_RNCNCNvNtNtNtCscu9j8SGJFlb_27fireworks_collaboration_lib3app8commands3git23try_get_git_credentials00Bb_
FN:435,_RNCNvNtNtNtCscu9j8SGJFlb_27fireworks_collaboration_lib3app8commands3git10git_branch0B9_
FN:395,_RNCNvNtNtNtCscu9j8SGJFlb_27fireworks_collaboration_lib3app8commands3git10git_commit0B9_
FN:472,_RNCNvNtNtNtCscu9j8SGJFlb_27fireworks_collaboration_lib3app8commands3git12git_checkout0B9_
FN:581,_RNCNvNtNtNtCscu9j8SGJFlb_27fireworks_collaboration_lib3app8commands3git14git_remote_add0B9_
FN:549,_RNCNvNtNtNtCscu9j8SGJFlb_27fireworks_collaboration_lib3app8commands3git14git_remote_set0B9_
FN:755,_RNCNvNtNtNtCscu9j8SGJFlb_27fireworks_collaboration_lib3app8commands3git15git_repo_status0B9_
FN:1221,_RNCNvNtNtNtCscu9j8SGJFlb_27fireworks_collaboration_lib3app8commands3git16git_worktree_add0B9_
FN:893,_RNCNvNtNtNtCscu9j8SGJFlb_27fireworks_collaboration_lib3app8commands3git17git_delete_branch0B9_
FN:672,_RNCNvNtNtNtCscu9j8SGJFlb_27fireworks_collaboration_lib3app8commands3git17git_list_branches0B9_
FN:611,_RNCNvNtNtNtCscu9j8SGJFlb_27fireworks_collaboration_lib3app8commands3git17git_remote_remove0B9_
FN:991,_RNCNvNtNtNtCscu9j8SGJFlb_27fireworks_collaboration_lib3app8commands3git17git_worktree_list0B9_
FN:926,_RNCNvNtNtNtCscu9j8SGJFlb_27fireworks_collaboration_lib3app8commands3git19git_remote_branches0B9_
FN:1310,_RNCNvNtNtNtCscu9j8SGJFlb_27fireworks_collaboration_lib3app8commands3git19git_worktree_remove0B9_
FN:197,_RNCNvNtNtNtCscu9j8SGJFlb_27fireworks_collaboration_lib3app8commands3git23try_get_git_credentials0B9_
FN:361,_RNCNvNtNtNtCscu9j8SGJFlb_27fireworks_collaboration_lib3app8commands3git7git_add0B9_
FN:510,_RNCNvNtNtNtCscu9j8SGJFlb_27fireworks_collaboration_lib3app8commands3git7git_tag0B9_
FN:343,_RNCNvNtNtNtCscu9j8SGJFlb_27fireworks_collaboration_lib3app8commands3git8git_init0B9_
FN:128,_RNCNvNtNtNtCscu9j8SGJFlb_27fireworks_collaboration_lib3app8commands3git8git_push0B9_
FN:31,_RNCNvNtNtNtCscu9j8SGJFlb_27fireworks_collaboration_lib3app8commands3git9git_clone0B9_
FN:79,_RNCNvNtNtNtCscu9j8SGJFlb_27fireworks_collaboration_lib3app8commands3git9git_fetch0B9_
FN:428,_RNvNtNtNtCscu9j8SGJFlb_27fireworks_collaboration_lib3app8commands3git10git_branch
FN:387,_RNvNtNtNtCscu9j8SGJFlb_27fireworks_collaboration_lib3app8commands3git10git_commit
FN:466,_RNvNtNtNtCscu9j8SGJFlb_27fireworks_collaboration_lib3app8commands3git12git_checkout
FN:575,_RNvNtNtNtCscu9j8SGJFlb_27fireworks_collaboration_lib3app8commands3git14git_remote_add
FN:543,_RNvNtNtNtCscu9j8SGJFlb_27fireworks_collaboration_lib3app8commands3git14git_remote_set
FN:294,_RNvNtNtNtCscu9j8SGJFlb_27fireworks_collaboration_lib3app8commands3git14parse_git_host
FN:755,_RNvNtNtNtCscu9j8SGJFlb_27fireworks_collaboration_lib3app8commands3git15git_repo_status
FN:262,_RNvNtNtNtCscu9j8SGJFlb_27fireworks_collaboration_lib3app8commands3git16extract_git_host
FN:1215,_RNvNtNtNtCscu9j8SGJFlb_27fireworks_collaboration_lib3app8commands3git16git_worktree_add
FN:889,_RNvNtNtNtCscu9j8SGJFlb_27fireworks_collaboration_lib3app8commands3git17git_delete_branch
FN:669,_RNvNtNtNtCscu9j8SGJFlb_27fireworks_collaboration_lib3app8commands3git17git_list_branches
FN:606,_RNvNtNtNtCscu9j8SGJFlb_27fireworks_collaboration_lib3app8commands3git17git_remote_remove
FN:991,_RNvNtNtNtCscu9j8SGJFlb_27fireworks_collaboration_lib3app8commands3git17git_worktree_list
FN:922,_RNvNtNtNtCscu9j8SGJFlb_27fireworks_collaboration_lib3app8commands3git19git_remote_branches
FN:1302,_RNvNtNtNtCscu9j8SGJFlb_27fireworks_collaboration_lib3app8commands3git19git_worktree_remove
FN:194,_RNvNtNtNtCscu9j8SGJFlb_27fireworks_collaboration_lib3app8commands3git23try_get_git_credentials
FN:356,_RNvNtNtNtCscu9j8SGJFlb_27fireworks_collaboration_lib3app8commands3git7git_add
FN:502,_RNvNtNtNtCscu9j8SGJFlb_27fireworks_collaboration_lib3app8commands3git7git_tag
FN:339,_RNvNtNtNtCscu9j8SGJFlb_27fireworks_collaboration_lib3app8commands3git8git_init
FN:117,_RNvNtNtNtCscu9j8SGJFlb_27fireworks_collaboration_lib3app8commands3git8git_push
FN:22,_RNvNtNtNtCscu9j8SGJFlb_27fireworks_collaboration_lib3app8commands3git9git_clone
FN:70,_RNvNtNtNtCscu9j8SGJFlb_27fireworks_collaboration_lib3app8commands3git9git_fetch
FN:766,_RNCNCNvNtNtNtCsfvgE7hV3dwJ_27fireworks_collaboration_lib3app8commands3git15git_repo_status00Bb_
FN:788,_RNCNCNvNtNtNtCsfvgE7hV3dwJ_27fireworks_collaboration_lib3app8commands3git15git_repo_status0s_0Bb_
FN:1282,_RNCNCNvNtNtNtCsfvgE7hV3dwJ_27fireworks_collaboration_lib3app8commands3git16git_worktree_add00Bb_
FN:905,_RNCNCNvNtNtNtCsfvgE7hV3dwJ_27fireworks_collaboration_lib3app8commands3git17git_delete_branch00Bb_
FN:690,_RNCNCNvNtNtNtCsfvgE7hV3dwJ_27fireworks_collaboration_lib3app8commands3git17git_list_branches00Bb_
FN:733,_RNCNCNvNtNtNtCsfvgE7hV3dwJ_27fireworks_collaboration_lib3app8commands3git17git_list_branches0s0_0Bb_
FN:698,_RNCNCNvNtNtNtCsfvgE7hV3dwJ_27fireworks_collaboration_lib3app8commands3git17git_list_branches0s_0Bb_
FN:1007,_RNCNCNvNtNtNtCsfvgE7hV3dwJ_27fireworks_collaboration_lib3app8commands3git17git_worktree_list00Bb_
FN:1015,_RNCNCNvNtNtNtCsfvgE7hV3dwJ_27fireworks_collaboration_lib3app8commands3git17git_worktree_list0s_0Bb_
FN:947,_RNCNCNvNtNtNtCsfvgE7hV3dwJ_27fireworks_collaboration_lib3app8commands3git19git_remote_branches00Bb_
FN:958,_RNCNCNvNtNtNtCsfvgE7hV3dwJ_27fireworks_collaboration_lib3app8commands3git19git_remote_branches0s0_0Bb_
FN:959,_RNCNCNvNtNtNtCsfvgE7hV3dwJ_27fireworks_collaboration_lib3app8commands3git19git_remote_branches0s1_0Bb_
FN:957,_RNCNCNvNtNtNtCsfvgE7hV3dwJ_27fireworks_collaboration_lib3app8commands3git19git_remote_branches0s_0Bb_
FN:1328,_RNCNCNvNtNtNtCsfvgE7hV3dwJ_27fireworks_collaboration_lib3app8commands3git19git_worktree_remove00Bb_
FN:1369,_RNCNCNvNtNtNtCsfvgE7hV3dwJ_27fireworks_collaboration_lib3app8commands3git19git_worktree_remove0s_0Bb_
FN:205,_RNCNCNvNtNtNtCsfvgE7hV3dwJ_27fireworks_collaboration_lib3app8commands3git23try_get_git_credentials00Bb_
FN:435,_RNCNvNtNtNtCsfvgE7hV3dwJ_27fireworks_collaboration_lib3app8commands3git10git_branch0B9_
FN:395,_RNCNvNtNtNtCsfvgE7hV3dwJ_27fireworks_collaboration_lib3app8commands3git10git_commit0B9_
FN:472,_RNCNvNtNtNtCsfvgE7hV3dwJ_27fireworks_collaboration_lib3app8commands3git12git_checkout0B9_
FN:581,_RNCNvNtNtNtCsfvgE7hV3dwJ_27fireworks_collaboration_lib3app8commands3git14git_remote_add0B9_
FN:549,_RNCNvNtNtNtCsfvgE7hV3dwJ_27fireworks_collaboration_lib3app8commands3git14git_remote_set0B9_
FN:755,_RNCNvNtNtNtCsfvgE7hV3dwJ_27fireworks_collaboration_lib3app8commands3git15git_repo_status0B9_
FN:278,_RNCNvNtNtNtCsfvgE7hV3dwJ_27fireworks_collaboration_lib3app8commands3git16extract_git_host0B9_
FN:285,_RNCNvNtNtNtCsfvgE7hV3dwJ_27fireworks_collaboration_lib3app8commands3git16extract_git_hosts_0B9_
FN:1221,_RNCNvNtNtNtCsfvgE7hV3dwJ_27fireworks_collaboration_lib3app8commands3git16git_worktree_add0B9_
FN:893,_RNCNvNtNtNtCsfvgE7hV3dwJ_27fireworks_collaboration_lib3app8commands3git17git_delete_branch0B9_
FN:672,_RNCNvNtNtNtCsfvgE7hV3dwJ_27fireworks_collaboration_lib3app8commands3git17git_list_branches0B9_
FN:611,_RNCNvNtNtNtCsfvgE7hV3dwJ_27fireworks_collaboration_lib3app8commands3git17git_remote_remove0B9_
FN:991,_RNCNvNtNtNtCsfvgE7hV3dwJ_27fireworks_collaboration_lib3app8commands3git17git_worktree_list0B9_
FN:926,_RNCNvNtNtNtCsfvgE7hV3dwJ_27fireworks_collaboration_lib3app8commands3git19git_remote_branches0B9_
FN:1310,_RNCNvNtNtNtCsfvgE7hV3dwJ_27fireworks_collaboration_lib3app8commands3git19git_worktree_remove0B9_
FN:197,_RNCNvNtNtNtCsfvgE7hV3dwJ_27fireworks_collaboration_lib3app8commands3git23try_get_git_credentials0B9_
FN:361,_RNCNvNtNtNtCsfvgE7hV3dwJ_27fireworks_collaboration_lib3app8commands3git7git_add0B9_
FN:510,_RNCNvNtNtNtCsfvgE7hV3dwJ_27fireworks_collaboration_lib3app8commands3git7git_tag0B9_
FN:343,_RNCNvNtNtNtCsfvgE7hV3dwJ_27fireworks_collaboration_lib3app8commands3git8git_init0B9_
FN:128,_RNCNvNtNtNtCsfvgE7hV3dwJ_27fireworks_collaboration_lib3app8commands3git8git_push0B9_
FN:31,_RNCNvNtNtNtCsfvgE7hV3dwJ_27fireworks_collaboration_lib3app8commands3git9git_clone0B9_
FN:79,_RNCNvNtNtNtCsfvgE7hV3dwJ_27fireworks_collaboration_lib3app8commands3git9git_fetch0B9_
FN:428,_RNvNtNtNtCsfvgE7hV3dwJ_27fireworks_collaboration_lib3app8commands3git10git_branch
FN:387,_RNvNtNtNtCsfvgE7hV3dwJ_27fireworks_collaboration_lib3app8commands3git10git_commit
FN:466,_RNvNtNtNtCsfvgE7hV3dwJ_27fireworks_collaboration_lib3app8commands3git12git_checkout
FN:575,_RNvNtNtNtCsfvgE7hV3dwJ_27fireworks_collaboration_lib3app8commands3git14git_remote_add
FN:543,_RNvNtNtNtCsfvgE7hV3dwJ_27fireworks_collaboration_lib3app8commands3git14git_remote_set
FN:294,_RNvNtNtNtCsfvgE7hV3dwJ_27fireworks_collaboration_lib3app8commands3git14parse_git_host
FN:755,_RNvNtNtNtCsfvgE7hV3dwJ_27fireworks_collaboration_lib3app8commands3git15git_repo_status
FN:262,_RNvNtNtNtCsfvgE7hV3dwJ_27fireworks_collaboration_lib3app8commands3git16extract_git_host
FN:1215,_RNvNtNtNtCsfvgE7hV3dwJ_27fireworks_collaboration_lib3app8commands3git16git_worktree_add
FN:889,_RNvNtNtNtCsfvgE7hV3dwJ_27fireworks_collaboration_lib3app8commands3git17git_delete_branch
FN:669,_RNvNtNtNtCsfvgE7hV3dwJ_27fireworks_collaboration_lib3app8commands3git17git_list_branches
FN:606,_RNvNtNtNtCsfvgE7hV3dwJ_27fireworks_collaboration_lib3app8commands3git17git_remote_remove
FN:991,_RNvNtNtNtCsfvgE7hV3dwJ_27fireworks_collaboration_lib3app8commands3git17git_worktree_list
FN:922,_RNvNtNtNtCsfvgE7hV3dwJ_27fireworks_collaboration_lib3app8commands3git19git_remote_branches
FN:1302,_RNvNtNtNtCsfvgE7hV3dwJ_27fireworks_collaboration_lib3app8commands3git19git_worktree_remove
FN:194,_RNvNtNtNtCsfvgE7hV3dwJ_27fireworks_collaboration_lib3app8commands3git23try_get_git_credentials
FN:356,_RNvNtNtNtCsfvgE7hV3dwJ_27fireworks_collaboration_lib3app8commands3git7git_add
FN:502,_RNvNtNtNtCsfvgE7hV3dwJ_27fireworks_collaboration_lib3app8commands3git7git_tag
FN:339,_RNvNtNtNtCsfvgE7hV3dwJ_27fireworks_collaboration_lib3app8commands3git8git_init
FN:117,_RNvNtNtNtCsfvgE7hV3dwJ_27fireworks_collaboration_lib3app8commands3git8git_push
FN:22,_RNvNtNtNtCsfvgE7hV3dwJ_27fireworks_collaboration_lib3app8commands3git9git_clone
FN:70,_RNvNtNtNtCsfvgE7hV3dwJ_27fireworks_collaboration_lib3app8commands3git9git_fetch
FNDA:0,_RNCNvNtNtNtCscu9j8SGJFlb_27fireworks_collaboration_lib3app8commands3git16extract_git_host0B9_
FNDA:0,_RNCNvNtNtNtCscu9j8SGJFlb_27fireworks_collaboration_lib3app8commands3git16extract_git_hosts_0B9_
FNDA:0,_RNCNCNvNtNtNtCscu9j8SGJFlb_27fireworks_collaboration_lib3app8commands3git15git_repo_status00Bb_
FNDA:0,_RNCNCNvNtNtNtCscu9j8SGJFlb_27fireworks_collaboration_lib3app8commands3git15git_repo_status0s_0Bb_
FNDA:0,_RNCNCNvNtNtNtCscu9j8SGJFlb_27fireworks_collaboration_lib3app8commands3git16git_worktree_add00Bb_
FNDA:0,_RNCNCNvNtNtNtCscu9j8SGJFlb_27fireworks_collaboration_lib3app8commands3git17git_delete_branch00Bb_
FNDA:0,_RNCNCNvNtNtNtCscu9j8SGJFlb_27fireworks_collaboration_lib3app8commands3git17git_list_branches00Bb_
FNDA:0,_RNCNCNvNtNtNtCscu9j8SGJFlb_27fireworks_collaboration_lib3app8commands3git17git_list_branches0s0_0Bb_
FNDA:0,_RNCNCNvNtNtNtCscu9j8SGJFlb_27fireworks_collaboration_lib3app8commands3git17git_list_branches0s_0Bb_
FNDA:0,_RNCNCNvNtNtNtCscu9j8SGJFlb_27fireworks_collaboration_lib3app8commands3git17git_worktree_list00Bb_
FNDA:0,_RNCNCNvNtNtNtCscu9j8SGJFlb_27fireworks_collaboration_lib3app8commands3git17git_worktree_list0s_0Bb_
FNDA:0,_RNCNCNvNtNtNtCscu9j8SGJFlb_27fireworks_collaboration_lib3app8commands3git19git_remote_branches00Bb_
FNDA:0,_RNCNCNvNtNtNtCscu9j8SGJFlb_27fireworks_collaboration_lib3app8commands3git19git_remote_branches0s0_0Bb_
FNDA:0,_RNCNCNvNtNtNtCscu9j8SGJFlb_27fireworks_collaboration_lib3app8commands3git19git_remote_branches0s1_0Bb_
FNDA:0,_RNCNCNvNtNtNtCscu9j8SGJFlb_27fireworks_collaboration_lib3app8commands3git19git_remote_branches0s_0Bb_
FNDA:0,_RNCNCNvNtNtNtCscu9j8SGJFlb_27fireworks_collaboration_lib3app8commands3git19git_worktree_remove00Bb_
FNDA:0,_RNCNCNvNtNtNtCscu9j8SGJFlb_27fireworks_collaboration_lib3app8commands3git19git_worktree_remove0s_0Bb_
FNDA:0,_RNCNCNvNtNtNtCscu9j8SGJFlb_27fireworks_collaboration_lib3app8commands3git23try_get_git_credentials00Bb_
FNDA:0,_RNCNvNtNtNtCscu9j8SGJFlb_27fireworks_collaboration_lib3app8commands3git10git_branch0B9_
FNDA:0,_RNCNvNtNtNtCscu9j8SGJFlb_27fireworks_collaboration_lib3app8commands3git10git_commit0B9_
FNDA:0,_RNCNvNtNtNtCscu9j8SGJFlb_27fireworks_collaboration_lib3app8commands3git12git_checkout0B9_
FNDA:0,_RNCNvNtNtNtCscu9j8SGJFlb_27fireworks_collaboration_lib3app8commands3git14git_remote_add0B9_
FNDA:0,_RNCNvNtNtNtCscu9j8SGJFlb_27fireworks_collaboration_lib3app8commands3git14git_remote_set0B9_
FNDA:0,_RNCNvNtNtNtCscu9j8SGJFlb_27fireworks_collaboration_lib3app8commands3git15git_repo_status0B9_
FNDA:0,_RNCNvNtNtNtCscu9j8SGJFlb_27fireworks_collaboration_lib3app8commands3git16git_worktree_add0B9_
FNDA:0,_RNCNvNtNtNtCscu9j8SGJFlb_27fireworks_collaboration_lib3app8commands3git17git_delete_branch0B9_
FNDA:0,_RNCNvNtNtNtCscu9j8SGJFlb_27fireworks_collaboration_lib3app8commands3git17git_list_branches0B9_
FNDA:0,_RNCNvNtNtNtCscu9j8SGJFlb_27fireworks_collaboration_lib3app8commands3git17git_remote_remove0B9_
FNDA:0,_RNCNvNtNtNtCscu9j8SGJFlb_27fireworks_collaboration_lib3app8commands3git17git_worktree_list0B9_
FNDA:0,_RNCNvNtNtNtCscu9j8SGJFlb_27fireworks_collaboration_lib3app8commands3git19git_remote_branches0B9_
FNDA:0,_RNCNvNtNtNtCscu9j8SGJFlb_27fireworks_collaboration_lib3app8commands3git19git_worktree_remove0B9_
FNDA:0,_RNCNvNtNtNtCscu9j8SGJFlb_27fireworks_collaboration_lib3app8commands3git23try_get_git_credentials0B9_
FNDA:0,_RNCNvNtNtNtCscu9j8SGJFlb_27fireworks_collaboration_lib3app8commands3git7git_add0B9_
FNDA:0,_RNCNvNtNtNtCscu9j8SGJFlb_27fireworks_collaboration_lib3app8commands3git7git_tag0B9_
FNDA:0,_RNCNvNtNtNtCscu9j8SGJFlb_27fireworks_collaboration_lib3app8commands3git8git_init0B9_
FNDA:0,_RNCNvNtNtNtCscu9j8SGJFlb_27fireworks_collaboration_lib3app8commands3git8git_push0B9_
FNDA:0,_RNCNvNtNtNtCscu9j8SGJFlb_27fireworks_collaboration_lib3app8commands3git9git_clone0B9_
FNDA:0,_RNCNvNtNtNtCscu9j8SGJFlb_27fireworks_collaboration_lib3app8commands3git9git_fetch0B9_
FNDA:0,_RNvNtNtNtCscu9j8SGJFlb_27fireworks_collaboration_lib3app8commands3git10git_branch
FNDA:0,_RNvNtNtNtCscu9j8SGJFlb_27fireworks_collaboration_lib3app8commands3git10git_commit
FNDA:0,_RNvNtNtNtCscu9j8SGJFlb_27fireworks_collaboration_lib3app8commands3git12git_checkout
FNDA:0,_RNvNtNtNtCscu9j8SGJFlb_27fireworks_collaboration_lib3app8commands3git14git_remote_add
FNDA:0,_RNvNtNtNtCscu9j8SGJFlb_27fireworks_collaboration_lib3app8commands3git14git_remote_set
FNDA:11,_RNvNtNtNtCscu9j8SGJFlb_27fireworks_collaboration_lib3app8commands3git14parse_git_host
FNDA:0,_RNvNtNtNtCscu9j8SGJFlb_27fireworks_collaboration_lib3app8commands3git15git_repo_status
FNDA:0,_RNvNtNtNtCscu9j8SGJFlb_27fireworks_collaboration_lib3app8commands3git16extract_git_host
FNDA:0,_RNvNtNtNtCscu9j8SGJFlb_27fireworks_collaboration_lib3app8commands3git16git_worktree_add
FNDA:0,_RNvNtNtNtCscu9j8SGJFlb_27fireworks_collaboration_lib3app8commands3git17git_delete_branch
FNDA:0,_RNvNtNtNtCscu9j8SGJFlb_27fireworks_collaboration_lib3app8commands3git17git_list_branches
FNDA:0,_RNvNtNtNtCscu9j8SGJFlb_27fireworks_collaboration_lib3app8commands3git17git_remote_remove
FNDA:0,_RNvNtNtNtCscu9j8SGJFlb_27fireworks_collaboration_lib3app8commands3git17git_worktree_list
FNDA:0,_RNvNtNtNtCscu9j8SGJFlb_27fireworks_collaboration_lib3app8commands3git19git_remote_branches
FNDA:0,_RNvNtNtNtCscu9j8SGJFlb_27fireworks_collaboration_lib3app8commands3git19git_worktree_remove
FNDA:0,_RNvNtNtNtCscu9j8SGJFlb_27fireworks_collaboration_lib3app8commands3git23try_get_git_credentials
FNDA:0,_RNvNtNtNtCscu9j8SGJFlb_27fireworks_collaboration_lib3app8commands3git7git_add
FNDA:0,_RNvNtNtNtCscu9j8SGJFlb_27fireworks_collaboration_lib3app8commands3git7git_tag
FNDA:0,_RNvNtNtNtCscu9j8SGJFlb_27fireworks_collaboration_lib3app8commands3git8git_init
FNDA:0,_RNvNtNtNtCscu9j8SGJFlb_27fireworks_collaboration_lib3app8commands3git8git_push
FNDA:0,_RNvNtNtNtCscu9j8SGJFlb_27fireworks_collaboration_lib3app8commands3git9git_clone
FNDA:0,_RNvNtNtNtCscu9j8SGJFlb_27fireworks_collaboration_lib3app8commands3git9git_fetch
FNDA:0,_RNCNCNvNtNtNtCsfvgE7hV3dwJ_27fireworks_collaboration_lib3app8commands3git15git_repo_status00Bb_
FNDA:0,_RNCNCNvNtNtNtCsfvgE7hV3dwJ_27fireworks_collaboration_lib3app8commands3git15git_repo_status0s_0Bb_
FNDA:0,_RNCNCNvNtNtNtCsfvgE7hV3dwJ_27fireworks_collaboration_lib3app8commands3git16git_worktree_add00Bb_
FNDA:0,_RNCNCNvNtNtNtCsfvgE7hV3dwJ_27fireworks_collaboration_lib3app8commands3git17git_delete_branch00Bb_
FNDA:0,_RNCNCNvNtNtNtCsfvgE7hV3dwJ_27fireworks_collaboration_lib3app8commands3git17git_list_branches00Bb_
FNDA:0,_RNCNCNvNtNtNtCsfvgE7hV3dwJ_27fireworks_collaboration_lib3app8commands3git17git_list_branches0s0_0Bb_
FNDA:0,_RNCNCNvNtNtNtCsfvgE7hV3dwJ_27fireworks_collaboration_lib3app8commands3git17git_list_branches0s_0Bb_
FNDA:0,_RNCNCNvNtNtNtCsfvgE7hV3dwJ_27fireworks_collaboration_lib3app8commands3git17git_worktree_list00Bb_
FNDA:0,_RNCNCNvNtNtNtCsfvgE7hV3dwJ_27fireworks_collaboration_lib3app8commands3git17git_worktree_list0s_0Bb_
FNDA:0,_RNCNCNvNtNtNtCsfvgE7hV3dwJ_27fireworks_collaboration_lib3app8commands3git19git_remote_branches00Bb_
FNDA:0,_RNCNCNvNtNtNtCsfvgE7hV3dwJ_27fireworks_collaboration_lib3app8commands3git19git_remote_branches0s0_0Bb_
FNDA:0,_RNCNCNvNtNtNtCsfvgE7hV3dwJ_27fireworks_collaboration_lib3app8commands3git19git_remote_branches0s1_0Bb_
FNDA:0,_RNCNCNvNtNtNtCsfvgE7hV3dwJ_27fireworks_collaboration_lib3app8commands3git19git_remote_branches0s_0Bb_
FNDA:0,_RNCNCNvNtNtNtCsfvgE7hV3dwJ_27fireworks_collaboration_lib3app8commands3git19git_worktree_remove00Bb_
FNDA:0,_RNCNCNvNtNtNtCsfvgE7hV3dwJ_27fireworks_collaboration_lib3app8commands3git19git_worktree_remove0s_0Bb_
FNDA:0,_RNCNCNvNtNtNtCsfvgE7hV3dwJ_27fireworks_collaboration_lib3app8commands3git23try_get_git_credentials00Bb_
FNDA:0,_RNCNvNtNtNtCsfvgE7hV3dwJ_27fireworks_collaboration_lib3app8commands3git10git_branch0B9_
FNDA:0,_RNCNvNtNtNtCsfvgE7hV3dwJ_27fireworks_collaboration_lib3app8commands3git10git_commit0B9_
FNDA:0,_RNCNvNtNtNtCsfvgE7hV3dwJ_27fireworks_collaboration_lib3app8commands3git12git_checkout0B9_
FNDA:0,_RNCNvNtNtNtCsfvgE7hV3dwJ_27fireworks_collaboration_lib3app8commands3git14git_remote_add0B9_
FNDA:0,_RNCNvNtNtNtCsfvgE7hV3dwJ_27fireworks_collaboration_lib3app8commands3git14git_remote_set0B9_
FNDA:0,_RNCNvNtNtNtCsfvgE7hV3dwJ_27fireworks_collaboration_lib3app8commands3git15git_repo_status0B9_
FNDA:0,_RNCNvNtNtNtCsfvgE7hV3dwJ_27fireworks_collaboration_lib3app8commands3git16extract_git_host0B9_
FNDA:0,_RNCNvNtNtNtCsfvgE7hV3dwJ_27fireworks_collaboration_lib3app8commands3git16extract_git_hosts_0B9_
FNDA:0,_RNCNvNtNtNtCsfvgE7hV3dwJ_27fireworks_collaboration_lib3app8commands3git16git_worktree_add0B9_
FNDA:0,_RNCNvNtNtNtCsfvgE7hV3dwJ_27fireworks_collaboration_lib3app8commands3git17git_delete_branch0B9_
FNDA:0,_RNCNvNtNtNtCsfvgE7hV3dwJ_27fireworks_collaboration_lib3app8commands3git17git_list_branches0B9_
FNDA:0,_RNCNvNtNtNtCsfvgE7hV3dwJ_27fireworks_collaboration_lib3app8commands3git17git_remote_remove0B9_
FNDA:0,_RNCNvNtNtNtCsfvgE7hV3dwJ_27fireworks_collaboration_lib3app8commands3git17git_worktree_list0B9_
FNDA:0,_RNCNvNtNtNtCsfvgE7hV3dwJ_27fireworks_collaboration_lib3app8commands3git19git_remote_branches0B9_
FNDA:0,_RNCNvNtNtNtCsfvgE7hV3dwJ_27fireworks_collaboration_lib3app8commands3git19git_worktree_remove0B9_
FNDA:0,_RNCNvNtNtNtCsfvgE7hV3dwJ_27fireworks_collaboration_lib3app8commands3git23try_get_git_credentials0B9_
FNDA:0,_RNCNvNtNtNtCsfvgE7hV3dwJ_27fireworks_collaboration_lib3app8commands3git7git_add0B9_
FNDA:0,_RNCNvNtNtNtCsfvgE7hV3dwJ_27fireworks_collaboration_lib3app8commands3git7git_tag0B9_
FNDA:0,_RNCNvNtNtNtCsfvgE7hV3dwJ_27fireworks_collaboration_lib3app8commands3git8git_init0B9_
FNDA:0,_RNCNvNtNtNtCsfvgE7hV3dwJ_27fireworks_collaboration_lib3app8commands3git8git_push0B9_
FNDA:0,_RNCNvNtNtNtCsfvgE7hV3dwJ_27fireworks_collaboration_lib3app8commands3git9git_clone0B9_
FNDA:0,_RNCNvNtNtNtCsfvgE7hV3dwJ_27fireworks_collaboration_lib3app8commands3git9git_fetch0B9_
FNDA:0,_RNvNtNtNtCsfvgE7hV3dwJ_27fireworks_collaboration_lib3app8commands3git10git_branch
FNDA:0,_RNvNtNtNtCsfvgE7hV3dwJ_27fireworks_collaboration_lib3app8commands3git10git_commit
FNDA:0,_RNvNtNtNtCsfvgE7hV3dwJ_27fireworks_collaboration_lib3app8commands3git12git_checkout
FNDA:0,_RNvNtNtNtCsfvgE7hV3dwJ_27fireworks_collaboration_lib3app8commands3git14git_remote_add
FNDA:0,_RNvNtNtNtCsfvgE7hV3dwJ_27fireworks_collaboration_lib3app8commands3git14git_remote_set
FNDA:0,_RNvNtNtNtCsfvgE7hV3dwJ_27fireworks_collaboration_lib3app8commands3git14parse_git_host
FNDA:0,_RNvNtNtNtCsfvgE7hV3dwJ_27fireworks_collaboration_lib3app8commands3git15git_repo_status
FNDA:0,_RNvNtNtNtCsfvgE7hV3dwJ_27fireworks_collaboration_lib3app8commands3git16extract_git_host
FNDA:0,_RNvNtNtNtCsfvgE7hV3dwJ_27fireworks_collaboration_lib3app8commands3git16git_worktree_add
FNDA:0,_RNvNtNtNtCsfvgE7hV3dwJ_27fireworks_collaboration_lib3app8commands3git17git_delete_branch
FNDA:0,_RNvNtNtNtCsfvgE7hV3dwJ_27fireworks_collaboration_lib3app8commands3git17git_list_branches
FNDA:0,_RNvNtNtNtCsfvgE7hV3dwJ_27fireworks_collaboration_lib3app8commands3git17git_remote_remove
FNDA:0,_RNvNtNtNtCsfvgE7hV3dwJ_27fireworks_collaboration_lib3app8commands3git17git_worktree_list
FNDA:0,_RNvNtNtNtCsfvgE7hV3dwJ_27fireworks_collaboration_lib3app8commands3git19git_remote_branches
FNDA:0,_RNvNtNtNtCsfvgE7hV3dwJ_27fireworks_collaboration_lib3app8commands3git19git_worktree_remove
FNDA:0,_RNvNtNtNtCsfvgE7hV3dwJ_27fireworks_collaboration_lib3app8commands3git23try_get_git_credentials
FNDA:0,_RNvNtNtNtCsfvgE7hV3dwJ_27fireworks_collaboration_lib3app8commands3git7git_add
FNDA:0,_RNvNtNtNtCsfvgE7hV3dwJ_27fireworks_collaboration_lib3app8commands3git7git_tag
FNDA:0,_RNvNtNtNtCsfvgE7hV3dwJ_27fireworks_collaboration_lib3app8commands3git8git_init
FNDA:0,_RNvNtNtNtCsfvgE7hV3dwJ_27fireworks_collaboration_lib3app8commands3git8git_push
FNDA:0,_RNvNtNtNtCsfvgE7hV3dwJ_27fireworks_collaboration_lib3app8commands3git9git_clone
FNDA:0,_RNvNtNtNtCsfvgE7hV3dwJ_27fireworks_collaboration_lib3app8commands3git9git_fetch
FNF:60
FNH:1
DA:22,0
DA:23,0
DA:24,0
DA:25,0
DA:26,0
DA:27,0
DA:28,0
DA:29,0
DA:30,0
DA:31,0
DA:32,0
DA:33,0
DA:35,0
DA:36,0
DA:37,0
DA:38,0
DA:39,0
DA:40,0
DA:41,0
DA:42,0
DA:44,0
DA:45,0
DA:46,0
DA:47,0
DA:48,0
DA:49,0
DA:50,0
DA:51,0
DA:52,0
DA:53,0
DA:54,0
DA:55,0
DA:57,0
DA:58,0
DA:70,0
DA:71,0
DA:72,0
DA:73,0
DA:74,0
DA:75,0
DA:76,0
DA:77,0
DA:78,0
DA:79,0
DA:80,0
DA:82,0
DA:83,0
DA:84,0
DA:85,0
DA:86,0
DA:87,0
DA:88,0
DA:90,0
DA:91,0
DA:92,0
DA:93,0
DA:94,0
DA:95,0
DA:96,0
DA:97,0
DA:98,0
DA:99,0
DA:100,0
DA:101,0
DA:103,0
DA:104,0
DA:117,0
DA:118,0
DA:119,0
DA:120,0
DA:121,0
DA:122,0
DA:123,0
DA:124,0
DA:125,0
DA:126,0
DA:127,0
DA:128,0
DA:130,0
DA:131,0
DA:133,0
DA:134,0
DA:135,0
DA:136,0
DA:138,0
DA:141,0
DA:144,0
DA:145,0
DA:147,0
DA:148,0
DA:150,0
DA:153,0
DA:157,0
DA:160,0
DA:161,0
DA:162,0
DA:163,0
DA:164,0
DA:165,0
DA:166,0
DA:168,0
DA:169,0
DA:170,0
DA:171,0
DA:172,0
DA:173,0
DA:174,0
DA:175,0
DA:177,0
DA:178,0
DA:179,0
DA:180,0
DA:181,0
DA:182,0
DA:183,0
DA:184,0
DA:185,0
DA:186,0
DA:187,0
DA:188,0
DA:190,0
DA:191,0
DA:194,0
DA:195,0
DA:196,0
DA:197,0
DA:199,0
DA:200,0
DA:203,0
DA:204,0
DA:205,0
DA:207,0
DA:208,0
DA:209,0
DA:213,0
DA:214,0
DA:216,0
DA:219,0
DA:220,0
DA:222,0
DA:226,0
DA:227,0
DA:228,0
DA:230,0
DA:234,0
DA:235,0
DA:236,0
DA:237,0
DA:240,0
DA:242,0
DA:246,0
DA:248,0
DA:249,0
DA:250,0
DA:255,0
DA:256,0
DA:262,0
DA:266,0
DA:267,0
DA:268,0
DA:269,0
DA:272,0
DA:273,0
DA:274,0
DA:275,0
DA:276,0
DA:277,0
DA:278,0
DA:280,0
DA:281,0
DA:282,0
DA:284,0
DA:285,0
DA:286,0
DA:287,0
DA:290,0
DA:291,0
DA:294,11
DA:297,11
DA:298,6
DA:299,5
DA:301,7
DA:302,7
DA:303,7
DA:304,7
DA:306,7
DA:307,1
DA:309,6
DA:311,7
DA:312,7
DA:313,7
DA:314,7
DA:316,7
DA:317,7
DA:318,4
DA:321,4
DA:322,1
DA:323,1
DA:324,1
DA:325,3
DA:327,3
DA:328,1
DA:329,1
DA:330,1
DA:331,1
DA:332,2
DA:334,2
DA:335,11
DA:339,0
DA:340,0
DA:341,0
DA:342,0
DA:343,0
DA:344,0
DA:345,0
DA:346,0
DA:347,0
DA:348,0
DA:356,0
DA:357,0
DA:358,0
DA:359,0
DA:360,0
DA:361,0
DA:362,0
DA:363,0
DA:364,0
DA:365,0
DA:367,0
DA:368,0
DA:369,0
DA:370,0
DA:371,0
DA:372,0
DA:373,0
DA:375,0
DA:376,0
DA:387,0
DA:388,0
DA:389,0
DA:390,0
DA:391,0
DA:392,0
DA:393,0
DA:394,0
DA:395,0
DA:396,0
DA:398,0
DA:399,0
DA:400,0
DA:401,0
DA:402,0
DA:403,0
DA:404,0
DA:406,0
DA:407,0
DA:408,0
DA:409,0
DA:410,0
DA:411,0
DA:412,0
DA:413,0
DA:414,0
DA:415,0
DA:417,0
DA:418,0
DA:428,0
DA:429,0
DA:430,0
DA:431,0
DA:432,0
DA:433,0
DA:434,0
DA:435,0
DA:436,0
DA:437,0
DA:439,0
DA:440,0
DA:441,0
DA:442,0
DA:443,0
DA:444,0
DA:446,0
DA:447,0
DA:448,0
DA:449,0
DA:450,0
DA:451,0
DA:452,0
DA:453,0
DA:454,0
DA:456,0
DA:457,0
DA:466,0
DA:467,0
DA:468,0
DA:469,0
DA:470,0
DA:471,0
DA:472,0
DA:473,0
DA:475,0
DA:476,0
DA:477,0
DA:478,0
DA:479,0
DA:481,0
DA:482,0
DA:483,0
DA:484,0
DA:485,0
DA:486,0
DA:487,0
DA:488,0
DA:490,0
DA:491,0
DA:502,0
DA:503,0
DA:504,0
DA:505,0
DA:506,0
DA:507,0
DA:508,0
DA:509,0
DA:510,0
DA:511,0
DA:512,0
DA:514,0
DA:515,0
DA:516,0
DA:517,0
DA:518,0
DA:519,0
DA:520,0
DA:522,0
DA:523,0
DA:524,0
DA:525,0
DA:526,0
DA:527,0
DA:528,0
DA:529,0
DA:530,0
DA:531,0
DA:533,0
DA:534,0
DA:543,0
DA:544,0
DA:545,0
DA:546,0
DA:547,0
DA:548,0
DA:549,0
DA:550,0
DA:551,0
DA:552,0
DA:553,0
DA:554,0
DA:556,0
DA:557,0
DA:558,0
DA:559,0
DA:560,0
DA:561,0
DA:562,0
DA:563,0
DA:565,0
DA:566,0
DA:575,0
DA:576,0
DA:577,0
DA:578,0
DA:579,0
DA:580,0
DA:581,0
DA:582,0
DA:583,0
DA:584,0
DA:585,0
DA:586,0
DA:588,0
DA:589,0
DA:590,0
DA:591,0
DA:592,0
DA:593,0
DA:594,0
DA:595,0
DA:597,0
DA:598,0
DA:606,0
DA:607,0
DA:608,0
DA:609,0
DA:610,0
DA:611,0
DA:612,0
DA:613,0
DA:614,0
DA:615,0
DA:617,0
DA:618,0
DA:619,0
DA:620,0
DA:621,0
DA:622,0
DA:623,0
DA:625,0
DA:626,0
DA:669,0
DA:670,0
DA:671,0
DA:672,0
DA:673,0
DA:674,0
DA:675,0
DA:676,0
DA:678,0
DA:681,0
DA:682,0
DA:683,0
DA:684,0
DA:686,0
DA:687,0
DA:688,0
DA:689,0
DA:690,0
DA:692,0
DA:693,0
DA:694,0
DA:695,0
DA:697,0
DA:698,0
DA:700,0
DA:702,0
DA:703,0
DA:704,0
DA:705,0
DA:707,0
DA:708,0
DA:711,0
DA:712,0
DA:713,0
DA:716,0
DA:717,0
DA:719,0
DA:720,0
DA:721,0
DA:723,0
DA:724,0
DA:725,0
DA:727,0
DA:731,0
DA:732,0
DA:733,0
DA:735,0
DA:738,0
DA:739,0
DA:740,0
DA:741,0
DA:742,0
DA:743,0
DA:744,0
DA:747,0
DA:748,0
DA:755,0
DA:756,0
DA:757,0
DA:758,0
DA:759,0
DA:762,0
DA:763,0
DA:764,0
DA:765,0
DA:766,0
DA:768,0
DA:769,0
DA:770,0
DA:771,0
DA:772,0
DA:773,0
DA:775,0
DA:778,0
DA:781,0
DA:784,0
DA:785,0
DA:786,0
DA:787,0
DA:788,0
DA:790,0
DA:791,0
DA:792,0
DA:793,0
DA:795,0
DA:796,0
DA:797,0
DA:798,0
DA:799,0
DA:800,0
DA:802,0
DA:803,0
DA:804,0
DA:805,0
DA:806,0
DA:807,0
DA:808,0
DA:809,0
DA:810,0
DA:814,0
DA:817,0
DA:818,0
DA:820,0
DA:821,0
DA:822,0
DA:823,0
DA:824,0
DA:825,0
DA:826,0
DA:827,0
DA:828,0
DA:829,0
DA:831,0
DA:832,0
DA:833,0
DA:834,0
DA:835,0
DA:836,0
DA:837,0
DA:838,0
DA:839,0
DA:840,0
DA:841,0
DA:844,0
DA:845,0
DA:846,0
DA:847,0
DA:848,0
DA:850,0
DA:851,0
DA:852,0
DA:854,0
DA:857,0
DA:860,0
DA:864,0
DA:865,0
DA:866,0
DA:868,0
DA:869,0
DA:870,0
DA:871,0
DA:872,0
DA:873,0
DA:874,0
DA:875,0
DA:876,0
DA:877,0
DA:878,0
DA:879,0
DA:880,0
DA:889,0
DA:890,0
DA:891,0
DA:892,0
DA:893,0
DA:894,0
DA:895,0
DA:896,0
DA:897,0
DA:899,0
DA:901,0
DA:902,0
DA:903,0
DA:904,0
DA:905,0
DA:907,0
DA:908,0
DA:909,0
DA:910,0
DA:912,0
DA:913,0
DA:922,0
DA:923,0
DA:924,0
DA:925,0
DA:926,0
DA:927,0
DA:928,0
DA:929,0
DA:930,0
DA:932,0
DA:935,0
DA:936,0
DA:937,0
DA:938,0
DA:939,0
DA:940,0
DA:943,0
DA:944,0
DA:945,0
DA:946,0
DA:947,0
DA:949,0
DA:950,0
DA:951,0
DA:952,0
DA:954,0
DA:955,0
DA:956,0
DA:957,0
DA:958,0
DA:959,0
DA:960,0
DA:962,0
DA:963,0
DA:991,0
DA:992,0
DA:993,0
DA:994,0
DA:995,0
DA:998,0
DA:999,0
DA:1000,0
DA:1001,0
DA:1003,0
DA:1004,0
DA:1005,0
DA:1006,0
DA:1007,0
DA:1009,0
DA:1010,0
DA:1011,0
DA:1012,0
DA:1014,0
DA:1015,0
DA:1017,0
DA:1018,0
DA:1019,0
DA:1021,0
DA:1022,0
DA:1024,0
DA:1025,0
DA:1026,0
DA:1027,0
DA:1028,0
DA:1030,0
DA:1032,0
DA:1033,0
DA:1034,0
DA:1035,0
DA:1036,0
DA:1037,0
DA:1038,0
DA:1039,0
DA:1040,0
DA:1041,0
DA:1042,0
DA:1043,0
DA:1044,0
DA:1045,0
DA:1046,0
DA:1047,0
DA:1048,0
DA:1049,0
DA:1050,0
DA:1051,0
DA:1052,0
DA:1053,0
DA:1054,0
DA:1055,0
DA:1056,0
DA:1057,0
DA:1058,0
DA:1059,0
DA:1060,0
DA:1061,0
DA:1062,0
DA:1063,0
DA:1064,0
DA:1065,0
DA:1069,0
DA:1070,0
DA:1071,0
DA:1075,0
DA:1076,0
DA:1080,0
DA:1082,0
DA:1083,0
DA:1085,0
DA:1087,0
DA:1093,0
DA:1094,0
DA:1095,0
DA:1096,0
DA:1098,0
DA:1099,0
DA:1100,0
DA:1101,0
DA:1102,0
DA:1104,0
DA:1108,0
DA:1109,0
DA:1111,0
DA:1113,0
DA:1115,0
DA:1118,0
DA:1121,0
DA:1122,0
DA:1123,0
DA:1125,0
DA:1129,0
DA:1130,0
DA:1131,0
DA:1132,0
DA:1134,0
DA:1135,0
DA:1136,0
DA:1138,0
DA:1141,0
DA:1143,0
DA:1145,0
DA:1149,0
DA:1150,0
DA:1152,0
DA:1153,0
DA:1157,0
DA:1158,0
DA:1159,0
DA:1160,0
DA:1161,0
DA:1162,0
DA:1163,0
DA:1164,0
DA:1165,0
DA:1167,0
DA:1168,0
DA:1169,0
DA:1170,0
DA:1171,0
DA:1172,0
DA:1173,0
DA:1174,0
DA:1176,0
DA:1182,0
DA:1184,0
DA:1186,0
DA:1188,0
DA:1191,0
DA:1192,0
DA:1194,0
DA:1196,0
DA:1200,0
DA:1203,0
DA:1204,0
DA:1215,0
DA:1216,0
DA:1217,0
DA:1218,0
DA:1219,0
DA:1220,0
DA:1221,0
DA:1222,0
DA:1223,0
DA:1224,0
DA:1225,0
DA:1227,0
DA:1228,0
DA:1229,0
DA:1230,0
DA:1233,0
DA:1235,0
DA:1236,0
DA:1238,0
DA:1241,0
DA:1242,0
DA:1243,0
DA:1244,0
DA:1246,0
DA:1247,0
DA:1248,0
DA:1249,0
DA:1251,0
DA:1252,0
DA:1253,0
DA:1254,0
DA:1256,0
DA:1259,0
DA:1260,0
DA:1261,0
DA:1262,0
DA:1263,0
DA:1264,0
DA:1265,0
DA:1266,0
DA:1267,0
DA:1268,0
DA:1269,0
DA:1270,0
DA:1271,0
DA:1272,0
DA:1273,0
DA:1274,0
DA:1276,0
DA:1278,0
DA:1279,0
DA:1280,0
DA:1281,0
DA:1282,0
DA:1284,0
DA:1285,0
DA:1286,0
DA:1287,0
DA:1289,0
DA:1290,0
DA:1302,0
DA:1303,0
DA:1304,0
DA:1305,0
DA:1306,0
DA:1307,0
DA:1308,0
DA:1309,0
DA:1310,0
DA:1311,0
DA:1312,0
DA:1313,0
DA:1314,0
DA:1316,0
DA:1317,0
DA:1318,0
DA:1319,0
DA:1322,0
DA:1324,0
DA:1325,0
DA:1326,0
DA:1327,0
DA:1328,0
DA:1330,0
DA:1331,0
DA:1332,0
DA:1334,0
DA:1335,0
DA:1336,0
DA:1337,0
DA:1338,0
DA:1340,0
DA:1341,0
DA:1342,0
DA:1344,0
DA:1345,0
DA:1346,0
DA:1347,0
DA:1348,0
DA:1349,0
DA:1351,0
DA:1353,0
DA:1357,0
DA:1358,0
DA:1359,0
DA:1360,0
DA:1361,0
DA:1363,0
DA:1365,0
DA:1366,0
DA:1367,0
DA:1368,0
DA:1369,0
DA:1371,0
DA:1372,0
DA:1373,0
DA:1374,0
DA:1377,0
DA:1378,0
DA:1379,0
DA:1380,0
DA:1382,0
DA:1388,0
DA:1389,0
DA:1390,0
DA:1391,0
DA:1393,0
DA:1395,0
DA:1397,0
DA:1400,0
DA:1404,0
DA:1407,0
DA:1409,0
DA:1410,0
DA:1411,0
DA:1412,0
DA:1414,0
DA:1415,0
DA:1416,0
DA:1418,0
DA:1419,0
DA:1420,0
DA:1421,0
DA:1423,0
DA:1424,0
DA:1425,0
DA:1426,0
DA:1429,0
DA:1430,0
DA:1431,0
DA:1432,0
DA:1435,0
DA:1436,0
DA:1437,0
DA:1438,0
DA:1441,0
DA:1442,0
DA:1443,0
DA:1444,0
DA:1447,0
DA:1448,0
DA:1449,0
DA:1450,0
DA:1453,0
DA:1454,0
DA:1455,0
DA:1456,0
DA:1457,0
DA:1459,0
DA:1464,0
DA:1466,0
DA:1472,0
DA:1473,0
DA:1477,0
DA:1479,0
DA:1482,0
DA:1484,0
DA:1485,0
BRF:0
BRH:0
LF:969
LH:31
end_of_record
SF:C:\Users\34404\Documents\GitHub\fireworks-collaboration\src-tauri\src\app\commands\http.rs
FN:131,_RNCNCNvNtNtNtCscu9j8SGJFlb_27fireworks_collaboration_lib3app8commands4http17http_fake_request00Bb_
FN:128,_RNCNvNtNtNtCscu9j8SGJFlb_27fireworks_collaboration_lib3app8commands4http17http_fake_request0B9_
FN:58,_RNvNtNtNtCscu9j8SGJFlb_27fireworks_collaboration_lib3app8commands4http12validate_url
FN:75,_RNvNtNtNtCscu9j8SGJFlb_27fireworks_collaboration_lib3app8commands4http16process_redirect
FN:125,_RNvNtNtNtCscu9j8SGJFlb_27fireworks_collaboration_lib3app8commands4http17http_fake_request
FN:35,_RNvNtNtNtCscu9j8SGJFlb_27fireworks_collaboration_lib3app8commands4http18classify_error_msg
FN:14,_RNvNtNtNtCscu9j8SGJFlb_27fireworks_collaboration_lib3app8commands4http22redact_auth_in_headers
FN:97,_RNvNtNtNtCscu9j8SGJFlb_27fireworks_collaboration_lib3app8commands4http27update_request_for_redirect
FN:61,_RNCNvNtNtNtCscu9j8SGJFlb_27fireworks_collaboration_lib3app8commands4http12validate_url0B9_
FN:69,_RNCNvNtNtNtCscu9j8SGJFlb_27fireworks_collaboration_lib3app8commands4http12validate_urls_0B9_
FN:81,_RNCNvNtNtNtCscu9j8SGJFlb_27fireworks_collaboration_lib3app8commands4http16process_redirect0B9_
FN:90,_RNCNvNtNtNtCscu9j8SGJFlb_27fireworks_collaboration_lib3app8commands4http16process_redirects0_0B9_
FN:86,_RNCNvNtNtNtCscu9j8SGJFlb_27fireworks_collaboration_lib3app8commands4http16process_redirects_0B9_
FN:131,_RNCNCNvNtNtNtCsfvgE7hV3dwJ_27fireworks_collaboration_lib3app8commands4http17http_fake_request00Bb_
FN:61,_RNCNvNtNtNtCsfvgE7hV3dwJ_27fireworks_collaboration_lib3app8commands4http12validate_url0B9_
FN:69,_RNCNvNtNtNtCsfvgE7hV3dwJ_27fireworks_collaboration_lib3app8commands4http12validate_urls_0B9_
FN:81,_RNCNvNtNtNtCsfvgE7hV3dwJ_27fireworks_collaboration_lib3app8commands4http16process_redirect0B9_
FN:90,_RNCNvNtNtNtCsfvgE7hV3dwJ_27fireworks_collaboration_lib3app8commands4http16process_redirects0_0B9_
FN:86,_RNCNvNtNtNtCsfvgE7hV3dwJ_27fireworks_collaboration_lib3app8commands4http16process_redirects_0B9_
FN:128,_RNCNvNtNtNtCsfvgE7hV3dwJ_27fireworks_collaboration_lib3app8commands4http17http_fake_request0B9_
FN:58,_RNvNtNtNtCsfvgE7hV3dwJ_27fireworks_collaboration_lib3app8commands4http12validate_url
FN:75,_RNvNtNtNtCsfvgE7hV3dwJ_27fireworks_collaboration_lib3app8commands4http16process_redirect
FN:125,_RNvNtNtNtCsfvgE7hV3dwJ_27fireworks_collaboration_lib3app8commands4http17http_fake_request
FN:35,_RNvNtNtNtCsfvgE7hV3dwJ_27fireworks_collaboration_lib3app8commands4http18classify_error_msg
FN:14,_RNvNtNtNtCsfvgE7hV3dwJ_27fireworks_collaboration_lib3app8commands4http22redact_auth_in_headers
FN:97,_RNvNtNtNtCsfvgE7hV3dwJ_27fireworks_collaboration_lib3app8commands4http27update_request_for_redirect
FNDA:0,_RNCNCNvNtNtNtCscu9j8SGJFlb_27fireworks_collaboration_lib3app8commands4http17http_fake_request00Bb_
FNDA:0,_RNCNvNtNtNtCscu9j8SGJFlb_27fireworks_collaboration_lib3app8commands4http17http_fake_request0B9_
FNDA:5,_RNvNtNtNtCscu9j8SGJFlb_27fireworks_collaboration_lib3app8commands4http12validate_url
FNDA:3,_RNvNtNtNtCscu9j8SGJFlb_27fireworks_collaboration_lib3app8commands4http16process_redirect
FNDA:0,_RNvNtNtNtCscu9j8SGJFlb_27fireworks_collaboration_lib3app8commands4http17http_fake_request
FNDA:6,_RNvNtNtNtCscu9j8SGJFlb_27fireworks_collaboration_lib3app8commands4http18classify_error_msg
FNDA:4,_RNvNtNtNtCscu9j8SGJFlb_27fireworks_collaboration_lib3app8commands4http22redact_auth_in_headers
FNDA:4,_RNvNtNtNtCscu9j8SGJFlb_27fireworks_collaboration_lib3app8commands4http27update_request_for_redirect
FNDA:2,_RNCNvNtNtNtCscu9j8SGJFlb_27fireworks_collaboration_lib3app8commands4http12validate_url0B9_
FNDA:0,_RNCNvNtNtNtCscu9j8SGJFlb_27fireworks_collaboration_lib3app8commands4http12validate_urls_0B9_
FNDA:1,_RNCNvNtNtNtCscu9j8SGJFlb_27fireworks_collaboration_lib3app8commands4http16process_redirect0B9_
FNDA:0,_RNCNvNtNtNtCscu9j8SGJFlb_27fireworks_collaboration_lib3app8commands4http16process_redirects0_0B9_
FNDA:0,_RNCNvNtNtNtCscu9j8SGJFlb_27fireworks_collaboration_lib3app8commands4http16process_redirects_0B9_
FNDA:0,_RNCNCNvNtNtNtCsfvgE7hV3dwJ_27fireworks_collaboration_lib3app8commands4http17http_fake_request00Bb_
FNDA:0,_RNCNvNtNtNtCsfvgE7hV3dwJ_27fireworks_collaboration_lib3app8commands4http12validate_url0B9_
FNDA:0,_RNCNvNtNtNtCsfvgE7hV3dwJ_27fireworks_collaboration_lib3app8commands4http12validate_urls_0B9_
FNDA:0,_RNCNvNtNtNtCsfvgE7hV3dwJ_27fireworks_collaboration_lib3app8commands4http16process_redirect0B9_
FNDA:0,_RNCNvNtNtNtCsfvgE7hV3dwJ_27fireworks_collaboration_lib3app8commands4http16process_redirects0_0B9_
FNDA:0,_RNCNvNtNtNtCsfvgE7hV3dwJ_27fireworks_collaboration_lib3app8commands4http16process_redirects_0B9_
FNDA:0,_RNCNvNtNtNtCsfvgE7hV3dwJ_27fireworks_collaboration_lib3app8commands4http17http_fake_request0B9_
FNDA:0,_RNvNtNtNtCsfvgE7hV3dwJ_27fireworks_collaboration_lib3app8commands4http12validate_url
FNDA:0,_RNvNtNtNtCsfvgE7hV3dwJ_27fireworks_collaboration_lib3app8commands4http16process_redirect
FNDA:0,_RNvNtNtNtCsfvgE7hV3dwJ_27fireworks_collaboration_lib3app8commands4http17http_fake_request
FNDA:0,_RNvNtNtNtCsfvgE7hV3dwJ_27fireworks_collaboration_lib3app8commands4http18classify_error_msg
FNDA:0,_RNvNtNtNtCsfvgE7hV3dwJ_27fireworks_collaboration_lib3app8commands4http22redact_auth_in_headers
FNDA:0,_RNvNtNtNtCsfvgE7hV3dwJ_27fireworks_collaboration_lib3app8commands4http27update_request_for_redirect
FNF:13
FNH:7
DA:14,4
DA:15,4
DA:16,4
DA:17,4
DA:18,4
DA:19,1
DA:20,3
DA:23,3
DA:24,3
DA:25,2
DA:26,2
DA:29,3
DA:30,4
DA:35,6
DA:36,6
DA:38,6
DA:39,1
DA:40,5
DA:41,1
DA:42,4
DA:43,3
DA:44,2
DA:46,2
DA:47,2
DA:48,1
DA:49,1
DA:51,1
DA:53,1
DA:55,6
DA:58,5
DA:59,5
DA:60,5
DA:61,5
DA:63,3
DA:64,1
DA:65,2
DA:67,2
DA:68,2
DA:69,2
DA:71,2
DA:72,5
DA:75,3
DA:76,3
DA:77,3
DA:78,3
DA:79,3
DA:80,3
DA:81,3
DA:84,2
DA:85,2
DA:86,2
DA:88,2
DA:89,2
DA:90,2
DA:91,2
DA:93,2
DA:94,3
DA:97,4
DA:98,4
DA:100,4
DA:102,2
DA:103,2
DA:104,2
DA:105,2
DA:107,2
DA:108,2
DA:109,2
DA:110,0
DA:112,4
DA:125,0
DA:126,0
DA:127,0
DA:128,0
DA:130,0
DA:131,0
DA:132,0
DA:136,0
DA:137,0
DA:140,0
DA:141,0
DA:142,0
DA:147,0
DA:151,0
DA:152,0
DA:153,0
DA:154,0
DA:155,0
DA:158,0
DA:159,0
DA:160,0
DA:161,0
DA:162,0
DA:165,0
DA:166,0
DA:167,0
DA:168,0
DA:172,0
DA:174,0
DA:175,0
DA:178,0
DA:179,0
DA:180,0
DA:183,0
DA:185,0
DA:190,0
DA:193,0
DA:194,0
DA:195,0
DA:196,0
DA:197,0
DA:200,0
DA:201,0
DA:203,0
DA:204,0
DA:205,0
DA:209,0
DA:211,0
DA:216,0
DA:217,0
BRF:0
BRH:0
LF:126
LH:70
end_of_record
SF:C:\Users\34404\Documents\GitHub\fireworks-collaboration\src-tauri\src\app\commands\ip_pool.rs
FN:197,_RNCNvNtNtNtCscu9j8SGJFlb_27fireworks_collaboration_lib3app8commands7ip_pool14build_snapshot0B9_
FN:214,_RNCNvNtNtNtCscu9j8SGJFlb_27fireworks_collaboration_lib3app8commands7ip_pool14build_snapshots0_0B9_
FN:241,_RNCNvNtNtNtCscu9j8SGJFlb_27fireworks_collaboration_lib3app8commands7ip_pool14build_snapshots1_0B9_
FN:209,_RNCNvNtNtNtCscu9j8SGJFlb_27fireworks_collaboration_lib3app8commands7ip_pool14build_snapshots_0B9_
FN:268,_RNCNvNtNtNtCscu9j8SGJFlb_27fireworks_collaboration_lib3app8commands7ip_pool14metrics_to_dto0B9_
FN:170,_RNCNCNCNvNtNtNtCscu9j8SGJFlb_27fireworks_collaboration_lib3app8commands7ip_pool17ip_pool_pick_best000Bd_
FN:78,_RNCNCNCNvNtNtNtCscu9j8SGJFlb_27fireworks_collaboration_lib3app8commands7ip_pool20ip_pool_get_snapshot000Bd_
FN:107,_RNCNCNCNvNtNtNtCscu9j8SGJFlb_27fireworks_collaboration_lib3app8commands7ip_pool21ip_pool_update_config0s1_00Bd_
FN:121,_RNCNCNCNvNtNtNtCscu9j8SGJFlb_27fireworks_collaboration_lib3app8commands7ip_pool23ip_pool_request_refresh000Bd_
FN:134,_RNCNCNCNvNtNtNtCscu9j8SGJFlb_27fireworks_collaboration_lib3app8commands7ip_pool23ip_pool_start_preheater000Bd_
FN:155,_RNCNCNCNvNtNtNtCscu9j8SGJFlb_27fireworks_collaboration_lib3app8commands7ip_pool27ip_pool_clear_auto_disabled000Bd_
FN:169,_RNCNCNvNtNtNtCscu9j8SGJFlb_27fireworks_collaboration_lib3app8commands7ip_pool17ip_pool_pick_best00Bb_
FN:188,_RNCNCNvNtNtNtCscu9j8SGJFlb_27fireworks_collaboration_lib3app8commands7ip_pool17ip_pool_pick_best0s_0Bb_
FN:77,_RNCNCNvNtNtNtCscu9j8SGJFlb_27fireworks_collaboration_lib3app8commands7ip_pool20ip_pool_get_snapshot00Bb_
FN:82,_RNCNCNvNtNtNtCscu9j8SGJFlb_27fireworks_collaboration_lib3app8commands7ip_pool20ip_pool_get_snapshot0s_0Bb_
FN:97,_RNCNCNvNtNtNtCscu9j8SGJFlb_27fireworks_collaboration_lib3app8commands7ip_pool21ip_pool_update_config00Bb_
FN:103,_RNCNCNvNtNtNtCscu9j8SGJFlb_27fireworks_collaboration_lib3app8commands7ip_pool21ip_pool_update_config0s0_0Bb_
FN:106,_RNCNCNvNtNtNtCscu9j8SGJFlb_27fireworks_collaboration_lib3app8commands7ip_pool21ip_pool_update_config0s1_0Bb_
FN:114,_RNCNCNvNtNtNtCscu9j8SGJFlb_27fireworks_collaboration_lib3app8commands7ip_pool21ip_pool_update_config0s2_0Bb_
FN:102,_RNCNCNvNtNtNtCscu9j8SGJFlb_27fireworks_collaboration_lib3app8commands7ip_pool21ip_pool_update_config0s_0Bb_
FN:120,_RNCNCNvNtNtNtCscu9j8SGJFlb_27fireworks_collaboration_lib3app8commands7ip_pool23ip_pool_request_refresh00Bb_
FN:125,_RNCNCNvNtNtNtCscu9j8SGJFlb_27fireworks_collaboration_lib3app8commands7ip_pool23ip_pool_request_refresh0s_0Bb_
FN:133,_RNCNCNvNtNtNtCscu9j8SGJFlb_27fireworks_collaboration_lib3app8commands7ip_pool23ip_pool_start_preheater00Bb_
FN:148,_RNCNCNvNtNtNtCscu9j8SGJFlb_27fireworks_collaboration_lib3app8commands7ip_pool23ip_pool_start_preheater0s_0Bb_
FN:154,_RNCNCNvNtNtNtCscu9j8SGJFlb_27fireworks_collaboration_lib3app8commands7ip_pool27ip_pool_clear_auto_disabled00Bb_
FN:159,_RNCNCNvNtNtNtCscu9j8SGJFlb_27fireworks_collaboration_lib3app8commands7ip_pool27ip_pool_clear_auto_disabled0s_0Bb_
FN:167,_RNCNvNtNtNtCscu9j8SGJFlb_27fireworks_collaboration_lib3app8commands7ip_pool17ip_pool_pick_best0B9_
FN:75,_RNCNvNtNtNtCscu9j8SGJFlb_27fireworks_collaboration_lib3app8commands7ip_pool20ip_pool_get_snapshot0B9_
FN:92,_RNCNvNtNtNtCscu9j8SGJFlb_27fireworks_collaboration_lib3app8commands7ip_pool21ip_pool_update_config0B9_
FN:118,_RNCNvNtNtNtCscu9j8SGJFlb_27fireworks_collaboration_lib3app8commands7ip_pool23ip_pool_request_refresh0B9_
FN:131,_RNCNvNtNtNtCscu9j8SGJFlb_27fireworks_collaboration_lib3app8commands7ip_pool23ip_pool_start_preheater0B9_
FN:152,_RNCNvNtNtNtCscu9j8SGJFlb_27fireworks_collaboration_lib3app8commands7ip_pool27ip_pool_clear_auto_disabled0B9_
FN:191,_RNvNtNtNtCscu9j8SGJFlb_27fireworks_collaboration_lib3app8commands7ip_pool14build_snapshot
FN:266,_RNvNtNtNtCscu9j8SGJFlb_27fireworks_collaboration_lib3app8commands7ip_pool14metrics_to_dto
FN:163,_RNvNtNtNtCscu9j8SGJFlb_27fireworks_collaboration_lib3app8commands7ip_pool17ip_pool_pick_best
FN:259,_RNvNtNtNtCscu9j8SGJFlb_27fireworks_collaboration_lib3app8commands7ip_pool18strategy_to_string
FN:73,_RNvNtNtNtCscu9j8SGJFlb_27fireworks_collaboration_lib3app8commands7ip_pool20ip_pool_get_snapshot
FN:86,_RNvNtNtNtCscu9j8SGJFlb_27fireworks_collaboration_lib3app8commands7ip_pool21ip_pool_update_config
FN:118,_RNvNtNtNtCscu9j8SGJFlb_27fireworks_collaboration_lib3app8commands7ip_pool23ip_pool_request_refresh
FN:129,_RNvNtNtNtCscu9j8SGJFlb_27fireworks_collaboration_lib3app8commands7ip_pool23ip_pool_start_preheater
FN:152,_RNvNtNtNtCscu9j8SGJFlb_27fireworks_collaboration_lib3app8commands7ip_pool27ip_pool_clear_auto_disabled
FN:170,_RNCNCNCNvNtNtNtCsfvgE7hV3dwJ_27fireworks_collaboration_lib3app8commands7ip_pool17ip_pool_pick_best000Bd_
FN:78,_RNCNCNCNvNtNtNtCsfvgE7hV3dwJ_27fireworks_collaboration_lib3app8commands7ip_pool20ip_pool_get_snapshot000Bd_
FN:107,_RNCNCNCNvNtNtNtCsfvgE7hV3dwJ_27fireworks_collaboration_lib3app8commands7ip_pool21ip_pool_update_config0s1_00Bd_
FN:121,_RNCNCNCNvNtNtNtCsfvgE7hV3dwJ_27fireworks_collaboration_lib3app8commands7ip_pool23ip_pool_request_refresh000Bd_
FN:134,_RNCNCNCNvNtNtNtCsfvgE7hV3dwJ_27fireworks_collaboration_lib3app8commands7ip_pool23ip_pool_start_preheater000Bd_
FN:155,_RNCNCNCNvNtNtNtCsfvgE7hV3dwJ_27fireworks_collaboration_lib3app8commands7ip_pool27ip_pool_clear_auto_disabled000Bd_
FN:169,_RNCNCNvNtNtNtCsfvgE7hV3dwJ_27fireworks_collaboration_lib3app8commands7ip_pool17ip_pool_pick_best00Bb_
FN:188,_RNCNCNvNtNtNtCsfvgE7hV3dwJ_27fireworks_collaboration_lib3app8commands7ip_pool17ip_pool_pick_best0s_0Bb_
FN:77,_RNCNCNvNtNtNtCsfvgE7hV3dwJ_27fireworks_collaboration_lib3app8commands7ip_pool20ip_pool_get_snapshot00Bb_
FN:82,_RNCNCNvNtNtNtCsfvgE7hV3dwJ_27fireworks_collaboration_lib3app8commands7ip_pool20ip_pool_get_snapshot0s_0Bb_
FN:97,_RNCNCNvNtNtNtCsfvgE7hV3dwJ_27fireworks_collaboration_lib3app8commands7ip_pool21ip_pool_update_config00Bb_
FN:103,_RNCNCNvNtNtNtCsfvgE7hV3dwJ_27fireworks_collaboration_lib3app8commands7ip_pool21ip_pool_update_config0s0_0Bb_
FN:106,_RNCNCNvNtNtNtCsfvgE7hV3dwJ_27fireworks_collaboration_lib3app8commands7ip_pool21ip_pool_update_config0s1_0Bb_
FN:114,_RNCNCNvNtNtNtCsfvgE7hV3dwJ_27fireworks_collaboration_lib3app8commands7ip_pool21ip_pool_update_config0s2_0Bb_
FN:102,_RNCNCNvNtNtNtCsfvgE7hV3dwJ_27fireworks_collaboration_lib3app8commands7ip_pool21ip_pool_update_config0s_0Bb_
FN:120,_RNCNCNvNtNtNtCsfvgE7hV3dwJ_27fireworks_collaboration_lib3app8commands7ip_pool23ip_pool_request_refresh00Bb_
FN:125,_RNCNCNvNtNtNtCsfvgE7hV3dwJ_27fireworks_collaboration_lib3app8commands7ip_pool23ip_pool_request_refresh0s_0Bb_
FN:133,_RNCNCNvNtNtNtCsfvgE7hV3dwJ_27fireworks_collaboration_lib3app8commands7ip_pool23ip_pool_start_preheater00Bb_
FN:148,_RNCNCNvNtNtNtCsfvgE7hV3dwJ_27fireworks_collaboration_lib3app8commands7ip_pool23ip_pool_start_preheater0s_0Bb_
FN:154,_RNCNCNvNtNtNtCsfvgE7hV3dwJ_27fireworks_collaboration_lib3app8commands7ip_pool27ip_pool_clear_auto_disabled00Bb_
FN:159,_RNCNCNvNtNtNtCsfvgE7hV3dwJ_27fireworks_collaboration_lib3app8commands7ip_pool27ip_pool_clear_auto_disabled0s_0Bb_
FN:197,_RNCNvNtNtNtCsfvgE7hV3dwJ_27fireworks_collaboration_lib3app8commands7ip_pool14build_snapshot0B9_
FN:214,_RNCNvNtNtNtCsfvgE7hV3dwJ_27fireworks_collaboration_lib3app8commands7ip_pool14build_snapshots0_0B9_
FN:241,_RNCNvNtNtNtCsfvgE7hV3dwJ_27fireworks_collaboration_lib3app8commands7ip_pool14build_snapshots1_0B9_
FN:209,_RNCNvNtNtNtCsfvgE7hV3dwJ_27fireworks_collaboration_lib3app8commands7ip_pool14build_snapshots_0B9_
FN:268,_RNCNvNtNtNtCsfvgE7hV3dwJ_27fireworks_collaboration_lib3app8commands7ip_pool14metrics_to_dto0B9_
FN:167,_RNCNvNtNtNtCsfvgE7hV3dwJ_27fireworks_collaboration_lib3app8commands7ip_pool17ip_pool_pick_best0B9_
FN:75,_RNCNvNtNtNtCsfvgE7hV3dwJ_27fireworks_collaboration_lib3app8commands7ip_pool20ip_pool_get_snapshot0B9_
FN:92,_RNCNvNtNtNtCsfvgE7hV3dwJ_27fireworks_collaboration_lib3app8commands7ip_pool21ip_pool_update_config0B9_
FN:118,_RNCNvNtNtNtCsfvgE7hV3dwJ_27fireworks_collaboration_lib3app8commands7ip_pool23ip_pool_request_refresh0B9_
FN:131,_RNCNvNtNtNtCsfvgE7hV3dwJ_27fireworks_collaboration_lib3app8commands7ip_pool23ip_pool_start_preheater0B9_
FN:152,_RNCNvNtNtNtCsfvgE7hV3dwJ_27fireworks_collaboration_lib3app8commands7ip_pool27ip_pool_clear_auto_disabled0B9_
FN:191,_RNvNtNtNtCsfvgE7hV3dwJ_27fireworks_collaboration_lib3app8commands7ip_pool14build_snapshot
FN:266,_RNvNtNtNtCsfvgE7hV3dwJ_27fireworks_collaboration_lib3app8commands7ip_pool14metrics_to_dto
FN:163,_RNvNtNtNtCsfvgE7hV3dwJ_27fireworks_collaboration_lib3app8commands7ip_pool17ip_pool_pick_best
FN:259,_RNvNtNtNtCsfvgE7hV3dwJ_27fireworks_collaboration_lib3app8commands7ip_pool18strategy_to_string
FN:73,_RNvNtNtNtCsfvgE7hV3dwJ_27fireworks_collaboration_lib3app8commands7ip_pool20ip_pool_get_snapshot
FN:86,_RNvNtNtNtCsfvgE7hV3dwJ_27fireworks_collaboration_lib3app8commands7ip_pool21ip_pool_update_config
FN:118,_RNvNtNtNtCsfvgE7hV3dwJ_27fireworks_collaboration_lib3app8commands7ip_pool23ip_pool_request_refresh
FN:129,_RNvNtNtNtCsfvgE7hV3dwJ_27fireworks_collaboration_lib3app8commands7ip_pool23ip_pool_start_preheater
FN:152,_RNvNtNtNtCsfvgE7hV3dwJ_27fireworks_collaboration_lib3app8commands7ip_pool27ip_pool_clear_auto_disabled
FNDA:0,_RNCNvNtNtNtCscu9j8SGJFlb_27fireworks_collaboration_lib3app8commands7ip_pool14build_snapshot0B9_
FNDA:0,_RNCNvNtNtNtCscu9j8SGJFlb_27fireworks_collaboration_lib3app8commands7ip_pool14build_snapshots0_0B9_
FNDA:0,_RNCNvNtNtNtCscu9j8SGJFlb_27fireworks_collaboration_lib3app8commands7ip_pool14build_snapshots1_0B9_
FNDA:0,_RNCNvNtNtNtCscu9j8SGJFlb_27fireworks_collaboration_lib3app8commands7ip_pool14build_snapshots_0B9_
FNDA:0,_RNCNvNtNtNtCscu9j8SGJFlb_27fireworks_collaboration_lib3app8commands7ip_pool14metrics_to_dto0B9_
FNDA:0,_RNCNCNCNvNtNtNtCscu9j8SGJFlb_27fireworks_collaboration_lib3app8commands7ip_pool17ip_pool_pick_best000Bd_
FNDA:0,_RNCNCNCNvNtNtNtCscu9j8SGJFlb_27fireworks_collaboration_lib3app8commands7ip_pool20ip_pool_get_snapshot000Bd_
FNDA:0,_RNCNCNCNvNtNtNtCscu9j8SGJFlb_27fireworks_collaboration_lib3app8commands7ip_pool21ip_pool_update_config0s1_00Bd_
FNDA:0,_RNCNCNCNvNtNtNtCscu9j8SGJFlb_27fireworks_collaboration_lib3app8commands7ip_pool23ip_pool_request_refresh000Bd_
FNDA:0,_RNCNCNCNvNtNtNtCscu9j8SGJFlb_27fireworks_collaboration_lib3app8commands7ip_pool23ip_pool_start_preheater000Bd_
FNDA:0,_RNCNCNCNvNtNtNtCscu9j8SGJFlb_27fireworks_collaboration_lib3app8commands7ip_pool27ip_pool_clear_auto_disabled000Bd_
FNDA:0,_RNCNCNvNtNtNtCscu9j8SGJFlb_27fireworks_collaboration_lib3app8commands7ip_pool17ip_pool_pick_best00Bb_
FNDA:0,_RNCNCNvNtNtNtCscu9j8SGJFlb_27fireworks_collaboration_lib3app8commands7ip_pool17ip_pool_pick_best0s_0Bb_
FNDA:0,_RNCNCNvNtNtNtCscu9j8SGJFlb_27fireworks_collaboration_lib3app8commands7ip_pool20ip_pool_get_snapshot00Bb_
FNDA:0,_RNCNCNvNtNtNtCscu9j8SGJFlb_27fireworks_collaboration_lib3app8commands7ip_pool20ip_pool_get_snapshot0s_0Bb_
FNDA:0,_RNCNCNvNtNtNtCscu9j8SGJFlb_27fireworks_collaboration_lib3app8commands7ip_pool21ip_pool_update_config00Bb_
FNDA:0,_RNCNCNvNtNtNtCscu9j8SGJFlb_27fireworks_collaboration_lib3app8commands7ip_pool21ip_pool_update_config0s0_0Bb_
FNDA:0,_RNCNCNvNtNtNtCscu9j8SGJFlb_27fireworks_collaboration_lib3app8commands7ip_pool21ip_pool_update_config0s1_0Bb_
FNDA:0,_RNCNCNvNtNtNtCscu9j8SGJFlb_27fireworks_collaboration_lib3app8commands7ip_pool21ip_pool_update_config0s2_0Bb_
FNDA:0,_RNCNCNvNtNtNtCscu9j8SGJFlb_27fireworks_collaboration_lib3app8commands7ip_pool21ip_pool_update_config0s_0Bb_
FNDA:0,_RNCNCNvNtNtNtCscu9j8SGJFlb_27fireworks_collaboration_lib3app8commands7ip_pool23ip_pool_request_refresh00Bb_
FNDA:0,_RNCNCNvNtNtNtCscu9j8SGJFlb_27fireworks_collaboration_lib3app8commands7ip_pool23ip_pool_request_refresh0s_0Bb_
FNDA:0,_RNCNCNvNtNtNtCscu9j8SGJFlb_27fireworks_collaboration_lib3app8commands7ip_pool23ip_pool_start_preheater00Bb_
FNDA:0,_RNCNCNvNtNtNtCscu9j8SGJFlb_27fireworks_collaboration_lib3app8commands7ip_pool23ip_pool_start_preheater0s_0Bb_
FNDA:0,_RNCNCNvNtNtNtCscu9j8SGJFlb_27fireworks_collaboration_lib3app8commands7ip_pool27ip_pool_clear_auto_disabled00Bb_
FNDA:0,_RNCNCNvNtNtNtCscu9j8SGJFlb_27fireworks_collaboration_lib3app8commands7ip_pool27ip_pool_clear_auto_disabled0s_0Bb_
FNDA:0,_RNCNvNtNtNtCscu9j8SGJFlb_27fireworks_collaboration_lib3app8commands7ip_pool17ip_pool_pick_best0B9_
FNDA:0,_RNCNvNtNtNtCscu9j8SGJFlb_27fireworks_collaboration_lib3app8commands7ip_pool20ip_pool_get_snapshot0B9_
FNDA:0,_RNCNvNtNtNtCscu9j8SGJFlb_27fireworks_collaboration_lib3app8commands7ip_pool21ip_pool_update_config0B9_
FNDA:0,_RNCNvNtNtNtCscu9j8SGJFlb_27fireworks_collaboration_lib3app8commands7ip_pool23ip_pool_request_refresh0B9_
FNDA:0,_RNCNvNtNtNtCscu9j8SGJFlb_27fireworks_collaboration_lib3app8commands7ip_pool23ip_pool_start_preheater0B9_
FNDA:0,_RNCNvNtNtNtCscu9j8SGJFlb_27fireworks_collaboration_lib3app8commands7ip_pool27ip_pool_clear_auto_disabled0B9_
FNDA:0,_RNvNtNtNtCscu9j8SGJFlb_27fireworks_collaboration_lib3app8commands7ip_pool14build_snapshot
FNDA:0,_RNvNtNtNtCscu9j8SGJFlb_27fireworks_collaboration_lib3app8commands7ip_pool14metrics_to_dto
FNDA:0,_RNvNtNtNtCscu9j8SGJFlb_27fireworks_collaboration_lib3app8commands7ip_pool17ip_pool_pick_best
FNDA:0,_RNvNtNtNtCscu9j8SGJFlb_27fireworks_collaboration_lib3app8commands7ip_pool18strategy_to_string
FNDA:0,_RNvNtNtNtCscu9j8SGJFlb_27fireworks_collaboration_lib3app8commands7ip_pool20ip_pool_get_snapshot
FNDA:0,_RNvNtNtNtCscu9j8SGJFlb_27fireworks_collaboration_lib3app8commands7ip_pool21ip_pool_update_config
FNDA:0,_RNvNtNtNtCscu9j8SGJFlb_27fireworks_collaboration_lib3app8commands7ip_pool23ip_pool_request_refresh
FNDA:0,_RNvNtNtNtCscu9j8SGJFlb_27fireworks_collaboration_lib3app8commands7ip_pool23ip_pool_start_preheater
FNDA:0,_RNvNtNtNtCscu9j8SGJFlb_27fireworks_collaboration_lib3app8commands7ip_pool27ip_pool_clear_auto_disabled
FNDA:0,_RNCNCNCNvNtNtNtCsfvgE7hV3dwJ_27fireworks_collaboration_lib3app8commands7ip_pool17ip_pool_pick_best000Bd_
FNDA:0,_RNCNCNCNvNtNtNtCsfvgE7hV3dwJ_27fireworks_collaboration_lib3app8commands7ip_pool20ip_pool_get_snapshot000Bd_
FNDA:0,_RNCNCNCNvNtNtNtCsfvgE7hV3dwJ_27fireworks_collaboration_lib3app8commands7ip_pool21ip_pool_update_config0s1_00Bd_
FNDA:0,_RNCNCNCNvNtNtNtCsfvgE7hV3dwJ_27fireworks_collaboration_lib3app8commands7ip_pool23ip_pool_request_refresh000Bd_
FNDA:0,_RNCNCNCNvNtNtNtCsfvgE7hV3dwJ_27fireworks_collaboration_lib3app8commands7ip_pool23ip_pool_start_preheater000Bd_
FNDA:0,_RNCNCNCNvNtNtNtCsfvgE7hV3dwJ_27fireworks_collaboration_lib3app8commands7ip_pool27ip_pool_clear_auto_disabled000Bd_
FNDA:0,_RNCNCNvNtNtNtCsfvgE7hV3dwJ_27fireworks_collaboration_lib3app8commands7ip_pool17ip_pool_pick_best00Bb_
FNDA:0,_RNCNCNvNtNtNtCsfvgE7hV3dwJ_27fireworks_collaboration_lib3app8commands7ip_pool17ip_pool_pick_best0s_0Bb_
FNDA:0,_RNCNCNvNtNtNtCsfvgE7hV3dwJ_27fireworks_collaboration_lib3app8commands7ip_pool20ip_pool_get_snapshot00Bb_
FNDA:0,_RNCNCNvNtNtNtCsfvgE7hV3dwJ_27fireworks_collaboration_lib3app8commands7ip_pool20ip_pool_get_snapshot0s_0Bb_
FNDA:0,_RNCNCNvNtNtNtCsfvgE7hV3dwJ_27fireworks_collaboration_lib3app8commands7ip_pool21ip_pool_update_config00Bb_
FNDA:0,_RNCNCNvNtNtNtCsfvgE7hV3dwJ_27fireworks_collaboration_lib3app8commands7ip_pool21ip_pool_update_config0s0_0Bb_
FNDA:0,_RNCNCNvNtNtNtCsfvgE7hV3dwJ_27fireworks_collaboration_lib3app8commands7ip_pool21ip_pool_update_config0s1_0Bb_
FNDA:0,_RNCNCNvNtNtNtCsfvgE7hV3dwJ_27fireworks_collaboration_lib3app8commands7ip_pool21ip_pool_update_config0s2_0Bb_
FNDA:0,_RNCNCNvNtNtNtCsfvgE7hV3dwJ_27fireworks_collaboration_lib3app8commands7ip_pool21ip_pool_update_config0s_0Bb_
FNDA:0,_RNCNCNvNtNtNtCsfvgE7hV3dwJ_27fireworks_collaboration_lib3app8commands7ip_pool23ip_pool_request_refresh00Bb_
FNDA:0,_RNCNCNvNtNtNtCsfvgE7hV3dwJ_27fireworks_collaboration_lib3app8commands7ip_pool23ip_pool_request_refresh0s_0Bb_
FNDA:0,_RNCNCNvNtNtNtCsfvgE7hV3dwJ_27fireworks_collaboration_lib3app8commands7ip_pool23ip_pool_start_preheater00Bb_
FNDA:0,_RNCNCNvNtNtNtCsfvgE7hV3dwJ_27fireworks_collaboration_lib3app8commands7ip_pool23ip_pool_start_preheater0s_0Bb_
FNDA:0,_RNCNCNvNtNtNtCsfvgE7hV3dwJ_27fireworks_collaboration_lib3app8commands7ip_pool27ip_pool_clear_auto_disabled00Bb_
FNDA:0,_RNCNCNvNtNtNtCsfvgE7hV3dwJ_27fireworks_collaboration_lib3app8commands7ip_pool27ip_pool_clear_auto_disabled0s_0Bb_
FNDA:0,_RNCNvNtNtNtCsfvgE7hV3dwJ_27fireworks_collaboration_lib3app8commands7ip_pool14build_snapshot0B9_
FNDA:0,_RNCNvNtNtNtCsfvgE7hV3dwJ_27fireworks_collaboration_lib3app8commands7ip_pool14build_snapshots0_0B9_
FNDA:0,_RNCNvNtNtNtCsfvgE7hV3dwJ_27fireworks_collaboration_lib3app8commands7ip_pool14build_snapshots1_0B9_
FNDA:0,_RNCNvNtNtNtCsfvgE7hV3dwJ_27fireworks_collaboration_lib3app8commands7ip_pool14build_snapshots_0B9_
FNDA:0,_RNCNvNtNtNtCsfvgE7hV3dwJ_27fireworks_collaboration_lib3app8commands7ip_pool14metrics_to_dto0B9_
FNDA:0,_RNCNvNtNtNtCsfvgE7hV3dwJ_27fireworks_collaboration_lib3app8commands7ip_pool17ip_pool_pick_best0B9_
FNDA:0,_RNCNvNtNtNtCsfvgE7hV3dwJ_27fireworks_collaboration_lib3app8commands7ip_pool20ip_pool_get_snapshot0B9_
FNDA:0,_RNCNvNtNtNtCsfvgE7hV3dwJ_27fireworks_collaboration_lib3app8commands7ip_pool21ip_pool_update_config0B9_
FNDA:0,_RNCNvNtNtNtCsfvgE7hV3dwJ_27fireworks_collaboration_lib3app8commands7ip_pool23ip_pool_request_refresh0B9_
FNDA:0,_RNCNvNtNtNtCsfvgE7hV3dwJ_27fireworks_collaboration_lib3app8commands7ip_pool23ip_pool_start_preheater0B9_
FNDA:0,_RNCNvNtNtNtCsfvgE7hV3dwJ_27fireworks_collaboration_lib3app8commands7ip_pool27ip_pool_clear_auto_disabled0B9_
FNDA:0,_RNvNtNtNtCsfvgE7hV3dwJ_27fireworks_collaboration_lib3app8commands7ip_pool14build_snapshot
FNDA:0,_RNvNtNtNtCsfvgE7hV3dwJ_27fireworks_collaboration_lib3app8commands7ip_pool14metrics_to_dto
FNDA:0,_RNvNtNtNtCsfvgE7hV3dwJ_27fireworks_collaboration_lib3app8commands7ip_pool17ip_pool_pick_best
FNDA:0,_RNvNtNtNtCsfvgE7hV3dwJ_27fireworks_collaboration_lib3app8commands7ip_pool18strategy_to_string
FNDA:0,_RNvNtNtNtCsfvgE7hV3dwJ_27fireworks_collaboration_lib3app8commands7ip_pool20ip_pool_get_snapshot
FNDA:0,_RNvNtNtNtCsfvgE7hV3dwJ_27fireworks_collaboration_lib3app8commands7ip_pool21ip_pool_update_config
FNDA:0,_RNvNtNtNtCsfvgE7hV3dwJ_27fireworks_collaboration_lib3app8commands7ip_pool23ip_pool_request_refresh
FNDA:0,_RNvNtNtNtCsfvgE7hV3dwJ_27fireworks_collaboration_lib3app8commands7ip_pool23ip_pool_start_preheater
FNDA:0,_RNvNtNtNtCsfvgE7hV3dwJ_27fireworks_collaboration_lib3app8commands7ip_pool27ip_pool_clear_auto_disabled
FNF:41
FNH:0
DA:73,0
DA:74,0
DA:75,0
DA:76,0
DA:77,0
DA:78,0
DA:79,0
DA:80,0
DA:81,0
DA:82,0
DA:83,0
DA:86,0
DA:87,0
DA:88,0
DA:89,0
DA:90,0
DA:91,0
DA:92,0
DA:93,0
DA:94,0
DA:96,0
DA:97,0
DA:98,0
DA:99,0
DA:102,0
DA:103,0
DA:105,0
DA:106,0
DA:107,0
DA:108,0
DA:109,0
DA:110,0
DA:111,0
DA:112,0
DA:113,0
DA:114,0
DA:115,0
DA:118,0
DA:119,0
DA:120,0
DA:121,0
DA:122,0
DA:123,0
DA:124,0
DA:125,0
DA:126,0
DA:129,0
DA:130,0
DA:131,0
DA:132,0
DA:133,0
DA:134,0
DA:135,0
DA:136,0
DA:137,0
DA:138,0
DA:139,0
DA:140,0
DA:141,0
DA:142,0
DA:143,0
DA:144,0
DA:145,0
DA:146,0
DA:147,0
DA:148,0
DA:149,0
DA:152,0
DA:153,0
DA:154,0
DA:155,0
DA:156,0
DA:157,0
DA:158,0
DA:159,0
DA:160,0
DA:163,0
DA:164,0
DA:165,0
DA:166,0
DA:167,0
DA:168,0
DA:169,0
DA:170,0
DA:171,0
DA:172,0
DA:173,0
DA:174,0
DA:175,0
DA:176,0
DA:177,0
DA:178,0
DA:179,0
DA:180,0
DA:181,0
DA:182,0
DA:183,0
DA:184,0
DA:185,0
DA:186,0
DA:187,0
DA:188,0
DA:189,0
DA:191,0
DA:192,0
DA:193,0
DA:195,0
DA:196,0
DA:197,0
DA:198,0
DA:199,0
DA:200,0
DA:201,0
DA:202,0
DA:203,0
DA:204,0
DA:205,0
DA:206,0
DA:207,0
DA:209,0
DA:211,0
DA:212,0
DA:213,0
DA:214,0
DA:215,0
DA:216,0
DA:218,0
DA:219,0
DA:220,0
DA:221,0
DA:222,0
DA:224,0
DA:226,0
DA:227,0
DA:228,0
DA:231,0
DA:232,0
DA:233,0
DA:234,0
DA:235,0
DA:238,0
DA:239,0
DA:240,0
DA:241,0
DA:242,0
DA:244,0
DA:245,0
DA:246,0
DA:247,0
DA:248,0
DA:249,0
DA:250,0
DA:251,0
DA:252,0
DA:253,0
DA:254,0
DA:255,0
DA:256,0
DA:257,0
DA:259,0
DA:260,0
DA:261,0
DA:262,0
DA:264,0
DA:266,0
DA:267,0
DA:268,0
DA:269,0
DA:270,0
DA:271,0
DA:273,0
DA:275,0
DA:276,0
BRF:0
BRH:0
LF:204
LH:0
end_of_record
SF:C:\Users\34404\Documents\GitHub\fireworks-collaboration\src-tauri\src\app\commands\metrics.rs
FN:23,_RNvNtNtNtCscu9j8SGJFlb_27fireworks_collaboration_lib3app8commands7metrics16metrics_snapshot
FN:52,_RNvNtNtNtCscu9j8SGJFlb_27fireworks_collaboration_lib3app8commands7metrics17parse_range_token
FN:62,_RNvNtNtNtCscu9j8SGJFlb_27fireworks_collaboration_lib3app8commands7metrics18sanitize_quantiles
FN:63,_RNCNvNtNtNtCscu9j8SGJFlb_27fireworks_collaboration_lib3app8commands7metrics18sanitize_quantiles0B9_
FN:65,_RNCNvNtNtNtCscu9j8SGJFlb_27fireworks_collaboration_lib3app8commands7metrics18sanitize_quantiless0_0B9_
FN:64,_RNCNvNtNtNtCscu9j8SGJFlb_27fireworks_collaboration_lib3app8commands7metrics18sanitize_quantiless_0B9_
FN:44,_RNCNCNvNtNtNtCscu9j8SGJFlb_27fireworks_collaboration_lib3app8commands7metrics16metrics_snapshot00Bb_
FN:26,_RNCNvNtNtNtCscu9j8SGJFlb_27fireworks_collaboration_lib3app8commands7metrics16metrics_snapshot0B9_
FN:44,_RNCNCNvNtNtNtCsfvgE7hV3dwJ_27fireworks_collaboration_lib3app8commands7metrics16metrics_snapshot00Bb_
FN:26,_RNCNvNtNtNtCsfvgE7hV3dwJ_27fireworks_collaboration_lib3app8commands7metrics16metrics_snapshot0B9_
FN:63,_RNCNvNtNtNtCsfvgE7hV3dwJ_27fireworks_collaboration_lib3app8commands7metrics18sanitize_quantiles0B9_
FN:65,_RNCNvNtNtNtCsfvgE7hV3dwJ_27fireworks_collaboration_lib3app8commands7metrics18sanitize_quantiless0_0B9_
FN:64,_RNCNvNtNtNtCsfvgE7hV3dwJ_27fireworks_collaboration_lib3app8commands7metrics18sanitize_quantiless_0B9_
FN:23,_RNvNtNtNtCsfvgE7hV3dwJ_27fireworks_collaboration_lib3app8commands7metrics16metrics_snapshot
FN:52,_RNvNtNtNtCsfvgE7hV3dwJ_27fireworks_collaboration_lib3app8commands7metrics17parse_range_token
FN:62,_RNvNtNtNtCsfvgE7hV3dwJ_27fireworks_collaboration_lib3app8commands7metrics18sanitize_quantiles
FNDA:0,_RNvNtNtNtCscu9j8SGJFlb_27fireworks_collaboration_lib3app8commands7metrics16metrics_snapshot
FNDA:0,_RNvNtNtNtCscu9j8SGJFlb_27fireworks_collaboration_lib3app8commands7metrics17parse_range_token
FNDA:0,_RNvNtNtNtCscu9j8SGJFlb_27fireworks_collaboration_lib3app8commands7metrics18sanitize_quantiles
FNDA:0,_RNCNvNtNtNtCscu9j8SGJFlb_27fireworks_collaboration_lib3app8commands7metrics18sanitize_quantiles0B9_
FNDA:0,_RNCNvNtNtNtCscu9j8SGJFlb_27fireworks_collaboration_lib3app8commands7metrics18sanitize_quantiless0_0B9_
FNDA:0,_RNCNvNtNtNtCscu9j8SGJFlb_27fireworks_collaboration_lib3app8commands7metrics18sanitize_quantiless_0B9_
FNDA:0,_RNCNCNvNtNtNtCscu9j8SGJFlb_27fireworks_collaboration_lib3app8commands7metrics16metrics_snapshot00Bb_
FNDA:0,_RNCNvNtNtNtCscu9j8SGJFlb_27fireworks_collaboration_lib3app8commands7metrics16metrics_snapshot0B9_
FNDA:0,_RNCNCNvNtNtNtCsfvgE7hV3dwJ_27fireworks_collaboration_lib3app8commands7metrics16metrics_snapshot00Bb_
FNDA:0,_RNCNvNtNtNtCsfvgE7hV3dwJ_27fireworks_collaboration_lib3app8commands7metrics16metrics_snapshot0B9_
FNDA:0,_RNCNvNtNtNtCsfvgE7hV3dwJ_27fireworks_collaboration_lib3app8commands7metrics18sanitize_quantiles0B9_
FNDA:0,_RNCNvNtNtNtCsfvgE7hV3dwJ_27fireworks_collaboration_lib3app8commands7metrics18sanitize_quantiless0_0B9_
FNDA:0,_RNCNvNtNtNtCsfvgE7hV3dwJ_27fireworks_collaboration_lib3app8commands7metrics18sanitize_quantiless_0B9_
FNDA:0,_RNvNtNtNtCsfvgE7hV3dwJ_27fireworks_collaboration_lib3app8commands7metrics16metrics_snapshot
FNDA:0,_RNvNtNtNtCsfvgE7hV3dwJ_27fireworks_collaboration_lib3app8commands7metrics17parse_range_token
FNDA:0,_RNvNtNtNtCsfvgE7hV3dwJ_27fireworks_collaboration_lib3app8commands7metrics18sanitize_quantiles
FNF:8
FNH:0
DA:23,0
DA:24,0
DA:25,0
DA:26,0
DA:27,0
DA:29,0
DA:30,0
DA:31,0
DA:32,0
DA:33,0
DA:34,0
DA:35,0
DA:36,0
DA:37,0
DA:38,0
DA:39,0
DA:40,0
DA:42,0
DA:43,0
DA:44,0
DA:45,0
DA:47,0
DA:48,0
DA:49,0
DA:50,0
DA:52,0
DA:53,0
DA:54,0
DA:55,0
DA:56,0
DA:57,0
DA:58,0
DA:60,0
DA:62,0
DA:63,0
DA:64,0
DA:65,0
DA:66,0
DA:67,0
BRF:0
BRH:0
LF:44
LH:0
end_of_record
SF:C:\Users\34404\Documents\GitHub\fireworks-collaboration\src-tauri\src\app\commands\oauth.rs
FN:42,_RNCNCNCNvNtNtNtCscu9j8SGJFlb_27fireworks_collaboration_lib3app8commands5oauth18start_oauth_server0s0_00Bd_
FN:150,_RNCNCNvNtNtNtCscu9j8SGJFlb_27fireworks_collaboration_lib3app8commands5oauth17clear_oauth_state00Bb_
FN:153,_RNCNCNvNtNtNtCscu9j8SGJFlb_27fireworks_collaboration_lib3app8commands5oauth17clear_oauth_state0s_0Bb_
FN:24,_RNCNCNvNtNtNtCscu9j8SGJFlb_27fireworks_collaboration_lib3app8commands5oauth18start_oauth_server00Bb_
FN:37,_RNCNCNvNtNtNtCscu9j8SGJFlb_27fireworks_collaboration_lib3app8commands5oauth18start_oauth_server0s0_0Bb_
FN:28,_RNCNCNvNtNtNtCscu9j8SGJFlb_27fireworks_collaboration_lib3app8commands5oauth18start_oauth_server0s_0Bb_
FN:141,_RNCNCNvNtNtNtCscu9j8SGJFlb_27fireworks_collaboration_lib3app8commands5oauth23get_oauth_callback_data00Bb_
FN:142,_RNCNCNvNtNtNtCscu9j8SGJFlb_27fireworks_collaboration_lib3app8commands5oauth23get_oauth_callback_data0s_0Bb_
FN:147,_RNCNvNtNtNtCscu9j8SGJFlb_27fireworks_collaboration_lib3app8commands5oauth17clear_oauth_state0B9_
FN:19,_RNCNvNtNtNtCscu9j8SGJFlb_27fireworks_collaboration_lib3app8commands5oauth18start_oauth_server0B9_
FN:138,_RNCNvNtNtNtCscu9j8SGJFlb_27fireworks_collaboration_lib3app8commands5oauth23get_oauth_callback_data0B9_
FN:147,_RNvNtNtNtCscu9j8SGJFlb_27fireworks_collaboration_lib3app8commands5oauth17clear_oauth_state
FN:19,_RNvNtNtNtCscu9j8SGJFlb_27fireworks_collaboration_lib3app8commands5oauth18start_oauth_server
FN:55,_RNvNtNtNtCscu9j8SGJFlb_27fireworks_collaboration_lib3app8commands5oauth20handle_oauth_request
FN:101,_RNvNtNtNtCscu9j8SGJFlb_27fireworks_collaboration_lib3app8commands5oauth20parse_oauth_callback
FN:136,_RNvNtNtNtCscu9j8SGJFlb_27fireworks_collaboration_lib3app8commands5oauth23get_oauth_callback_data
FN:42,_RNCNCNCNvNtNtNtCsfvgE7hV3dwJ_27fireworks_collaboration_lib3app8commands5oauth18start_oauth_server0s0_00Bd_
FN:150,_RNCNCNvNtNtNtCsfvgE7hV3dwJ_27fireworks_collaboration_lib3app8commands5oauth17clear_oauth_state00Bb_
FN:153,_RNCNCNvNtNtNtCsfvgE7hV3dwJ_27fireworks_collaboration_lib3app8commands5oauth17clear_oauth_state0s_0Bb_
FN:24,_RNCNCNvNtNtNtCsfvgE7hV3dwJ_27fireworks_collaboration_lib3app8commands5oauth18start_oauth_server00Bb_
FN:37,_RNCNCNvNtNtNtCsfvgE7hV3dwJ_27fireworks_collaboration_lib3app8commands5oauth18start_oauth_server0s0_0Bb_
FN:28,_RNCNCNvNtNtNtCsfvgE7hV3dwJ_27fireworks_collaboration_lib3app8commands5oauth18start_oauth_server0s_0Bb_
FN:141,_RNCNCNvNtNtNtCsfvgE7hV3dwJ_27fireworks_collaboration_lib3app8commands5oauth23get_oauth_callback_data00Bb_
FN:142,_RNCNCNvNtNtNtCsfvgE7hV3dwJ_27fireworks_collaboration_lib3app8commands5oauth23get_oauth_callback_data0s_0Bb_
FN:147,_RNCNvNtNtNtCsfvgE7hV3dwJ_27fireworks_collaboration_lib3app8commands5oauth17clear_oauth_state0B9_
FN:19,_RNCNvNtNtNtCsfvgE7hV3dwJ_27fireworks_collaboration_lib3app8commands5oauth18start_oauth_server0B9_
FN:138,_RNCNvNtNtNtCsfvgE7hV3dwJ_27fireworks_collaboration_lib3app8commands5oauth23get_oauth_callback_data0B9_
FN:147,_RNvNtNtNtCsfvgE7hV3dwJ_27fireworks_collaboration_lib3app8commands5oauth17clear_oauth_state
FN:19,_RNvNtNtNtCsfvgE7hV3dwJ_27fireworks_collaboration_lib3app8commands5oauth18start_oauth_server
FN:55,_RNvNtNtNtCsfvgE7hV3dwJ_27fireworks_collaboration_lib3app8commands5oauth20handle_oauth_request
FN:101,_RNvNtNtNtCsfvgE7hV3dwJ_27fireworks_collaboration_lib3app8commands5oauth20parse_oauth_callback
FN:136,_RNvNtNtNtCsfvgE7hV3dwJ_27fireworks_collaboration_lib3app8commands5oauth23get_oauth_callback_data
FNDA:0,_RNCNCNCNvNtNtNtCscu9j8SGJFlb_27fireworks_collaboration_lib3app8commands5oauth18start_oauth_server0s0_00Bd_
FNDA:0,_RNCNCNvNtNtNtCscu9j8SGJFlb_27fireworks_collaboration_lib3app8commands5oauth17clear_oauth_state00Bb_
FNDA:0,_RNCNCNvNtNtNtCscu9j8SGJFlb_27fireworks_collaboration_lib3app8commands5oauth17clear_oauth_state0s_0Bb_
FNDA:0,_RNCNCNvNtNtNtCscu9j8SGJFlb_27fireworks_collaboration_lib3app8commands5oauth18start_oauth_server00Bb_
FNDA:0,_RNCNCNvNtNtNtCscu9j8SGJFlb_27fireworks_collaboration_lib3app8commands5oauth18start_oauth_server0s0_0Bb_
FNDA:0,_RNCNCNvNtNtNtCscu9j8SGJFlb_27fireworks_collaboration_lib3app8commands5oauth18start_oauth_server0s_0Bb_
FNDA:0,_RNCNCNvNtNtNtCscu9j8SGJFlb_27fireworks_collaboration_lib3app8commands5oauth23get_oauth_callback_data00Bb_
FNDA:0,_RNCNCNvNtNtNtCscu9j8SGJFlb_27fireworks_collaboration_lib3app8commands5oauth23get_oauth_callback_data0s_0Bb_
FNDA:0,_RNCNvNtNtNtCscu9j8SGJFlb_27fireworks_collaboration_lib3app8commands5oauth17clear_oauth_state0B9_
FNDA:0,_RNCNvNtNtNtCscu9j8SGJFlb_27fireworks_collaboration_lib3app8commands5oauth18start_oauth_server0B9_
FNDA:0,_RNCNvNtNtNtCscu9j8SGJFlb_27fireworks_collaboration_lib3app8commands5oauth23get_oauth_callback_data0B9_
FNDA:0,_RNvNtNtNtCscu9j8SGJFlb_27fireworks_collaboration_lib3app8commands5oauth17clear_oauth_state
FNDA:0,_RNvNtNtNtCscu9j8SGJFlb_27fireworks_collaboration_lib3app8commands5oauth18start_oauth_server
FNDA:0,_RNvNtNtNtCscu9j8SGJFlb_27fireworks_collaboration_lib3app8commands5oauth20handle_oauth_request
FNDA:8,_RNvNtNtNtCscu9j8SGJFlb_27fireworks_collaboration_lib3app8commands5oauth20parse_oauth_callback
FNDA:0,_RNvNtNtNtCscu9j8SGJFlb_27fireworks_collaboration_lib3app8commands5oauth23get_oauth_callback_data
FNDA:0,_RNCNCNCNvNtNtNtCsfvgE7hV3dwJ_27fireworks_collaboration_lib3app8commands5oauth18start_oauth_server0s0_00Bd_
FNDA:0,_RNCNCNvNtNtNtCsfvgE7hV3dwJ_27fireworks_collaboration_lib3app8commands5oauth17clear_oauth_state00Bb_
FNDA:0,_RNCNCNvNtNtNtCsfvgE7hV3dwJ_27fireworks_collaboration_lib3app8commands5oauth17clear_oauth_state0s_0Bb_
FNDA:0,_RNCNCNvNtNtNtCsfvgE7hV3dwJ_27fireworks_collaboration_lib3app8commands5oauth18start_oauth_server00Bb_
FNDA:0,_RNCNCNvNtNtNtCsfvgE7hV3dwJ_27fireworks_collaboration_lib3app8commands5oauth18start_oauth_server0s0_0Bb_
FNDA:0,_RNCNCNvNtNtNtCsfvgE7hV3dwJ_27fireworks_collaboration_lib3app8commands5oauth18start_oauth_server0s_0Bb_
FNDA:0,_RNCNCNvNtNtNtCsfvgE7hV3dwJ_27fireworks_collaboration_lib3app8commands5oauth23get_oauth_callback_data00Bb_
FNDA:0,_RNCNCNvNtNtNtCsfvgE7hV3dwJ_27fireworks_collaboration_lib3app8commands5oauth23get_oauth_callback_data0s_0Bb_
FNDA:0,_RNCNvNtNtNtCsfvgE7hV3dwJ_27fireworks_collaboration_lib3app8commands5oauth17clear_oauth_state0B9_
FNDA:0,_RNCNvNtNtNtCsfvgE7hV3dwJ_27fireworks_collaboration_lib3app8commands5oauth18start_oauth_server0B9_
FNDA:0,_RNCNvNtNtNtCsfvgE7hV3dwJ_27fireworks_collaboration_lib3app8commands5oauth23get_oauth_callback_data0B9_
FNDA:0,_RNvNtNtNtCsfvgE7hV3dwJ_27fireworks_collaboration_lib3app8commands5oauth17clear_oauth_state
FNDA:0,_RNvNtNtNtCsfvgE7hV3dwJ_27fireworks_collaboration_lib3app8commands5oauth18start_oauth_server
FNDA:0,_RNvNtNtNtCsfvgE7hV3dwJ_27fireworks_collaboration_lib3app8commands5oauth20handle_oauth_request
FNDA:0,_RNvNtNtNtCsfvgE7hV3dwJ_27fireworks_collaboration_lib3app8commands5oauth20parse_oauth_callback
FNDA:0,_RNvNtNtNtCsfvgE7hV3dwJ_27fireworks_collaboration_lib3app8commands5oauth23get_oauth_callback_data
FNF:16
FNH:1
DA:19,0
DA:20,0
DA:23,0
DA:24,0
DA:26,0
DA:27,0
DA:28,0
DA:29,0
DA:31,0
DA:34,0
DA:37,0
DA:38,0
DA:39,0
DA:40,0
DA:41,0
DA:42,0
DA:44,0
DA:45,0
DA:49,0
DA:51,0
DA:52,0
DA:55,0
DA:56,0
DA:58,0
DA:59,0
DA:60,0
DA:62,0
DA:63,0
DA:66,0
DA:67,0
DA:69,0
DA:70,0
DA:71,0
DA:73,0
DA:75,0
DA:77,0
DA:82,0
DA:83,0
DA:84,0
DA:85,0
DA:88,0
DA:89,0
DA:90,0
DA:91,0
DA:92,0
DA:94,0
DA:95,0
DA:98,0
DA:101,8
DA:102,8
DA:103,8
DA:104,8
DA:105,8
DA:106,8
DA:107,8
DA:109,8
DA:110,7
DA:111,7
DA:113,14
DA:114,14
DA:115,12
DA:116,12
DA:118,12
DA:119,12
DA:120,7
DA:121,4
DA:122,3
DA:123,2
DA:125,2
DA:127,1
DA:129,8
DA:130,8
DA:136,0
DA:137,0
DA:138,0
DA:139,0
DA:140,0
DA:141,0
DA:142,0
DA:143,0
DA:147,0
DA:148,0
DA:149,0
DA:150,0
DA:151,0
DA:152,0
DA:153,0
DA:154,0
BRF:0
BRH:0
LF:99
LH:24
end_of_record
SF:C:\Users\34404\Documents\GitHub\fireworks-collaboration\src-tauri\src\app\commands\proxy.rs
FN:115,_RNvNtNtNtCscu9j8SGJFlb_27fireworks_collaboration_lib3app8commands5proxy16get_system_proxy
FN:13,_RNvNtNtNtCscu9j8SGJFlb_27fireworks_collaboration_lib3app8commands5proxy19detect_system_proxy
FN:52,_RNvNtNtNtCscu9j8SGJFlb_27fireworks_collaboration_lib3app8commands5proxy20force_proxy_fallback
FN:87,_RNvNtNtNtCscu9j8SGJFlb_27fireworks_collaboration_lib3app8commands5proxy20force_proxy_recovery
FN:60,_RNvNtNtNtCscu9j8SGJFlb_27fireworks_collaboration_lib3app8commands5proxy26force_proxy_fallback_logic
FN:92,_RNvNtNtNtCscu9j8SGJFlb_27fireworks_collaboration_lib3app8commands5proxy26force_proxy_recovery_logic
FN:68,_RNCNCNvNtNtNtCscu9j8SGJFlb_27fireworks_collaboration_lib3app8commands5proxy26force_proxy_fallback_logic00Bb_
FN:76,_RNCNCNvNtNtNtCscu9j8SGJFlb_27fireworks_collaboration_lib3app8commands5proxy26force_proxy_fallback_logic0s0_0Bb_
FN:72,_RNCNCNvNtNtNtCscu9j8SGJFlb_27fireworks_collaboration_lib3app8commands5proxy26force_proxy_fallback_logic0s_0Bb_
FN:97,_RNCNCNvNtNtNtCscu9j8SGJFlb_27fireworks_collaboration_lib3app8commands5proxy26force_proxy_recovery_logic00Bb_
FN:103,_RNCNCNvNtNtNtCscu9j8SGJFlb_27fireworks_collaboration_lib3app8commands5proxy26force_proxy_recovery_logic0s_0Bb_
FN:13,_RNCNvNtNtNtCscu9j8SGJFlb_27fireworks_collaboration_lib3app8commands5proxy19detect_system_proxy0B9_
FN:55,_RNCNvNtNtNtCscu9j8SGJFlb_27fireworks_collaboration_lib3app8commands5proxy20force_proxy_fallback0B9_
FN:87,_RNCNvNtNtNtCscu9j8SGJFlb_27fireworks_collaboration_lib3app8commands5proxy20force_proxy_recovery0B9_
FN:63,_RNCNvNtNtNtCscu9j8SGJFlb_27fireworks_collaboration_lib3app8commands5proxy26force_proxy_fallback_logic0B9_
FN:92,_RNCNvNtNtNtCscu9j8SGJFlb_27fireworks_collaboration_lib3app8commands5proxy26force_proxy_recovery_logic0B9_
FN:68,_RNCNCNvNtNtNtCsfvgE7hV3dwJ_27fireworks_collaboration_lib3app8commands5proxy26force_proxy_fallback_logic00Bb_
FN:76,_RNCNCNvNtNtNtCsfvgE7hV3dwJ_27fireworks_collaboration_lib3app8commands5proxy26force_proxy_fallback_logic0s0_0Bb_
FN:72,_RNCNCNvNtNtNtCsfvgE7hV3dwJ_27fireworks_collaboration_lib3app8commands5proxy26force_proxy_fallback_logic0s_0Bb_
FN:97,_RNCNCNvNtNtNtCsfvgE7hV3dwJ_27fireworks_collaboration_lib3app8commands5proxy26force_proxy_recovery_logic00Bb_
FN:103,_RNCNCNvNtNtNtCsfvgE7hV3dwJ_27fireworks_collaboration_lib3app8commands5proxy26force_proxy_recovery_logic0s_0Bb_
FN:13,_RNCNvNtNtNtCsfvgE7hV3dwJ_27fireworks_collaboration_lib3app8commands5proxy19detect_system_proxy0B9_
FN:55,_RNCNvNtNtNtCsfvgE7hV3dwJ_27fireworks_collaboration_lib3app8commands5proxy20force_proxy_fallback0B9_
FN:87,_RNCNvNtNtNtCsfvgE7hV3dwJ_27fireworks_collaboration_lib3app8commands5proxy20force_proxy_recovery0B9_
FN:63,_RNCNvNtNtNtCsfvgE7hV3dwJ_27fireworks_collaboration_lib3app8commands5proxy26force_proxy_fallback_logic0B9_
FN:92,_RNCNvNtNtNtCsfvgE7hV3dwJ_27fireworks_collaboration_lib3app8commands5proxy26force_proxy_recovery_logic0B9_
FN:115,_RNvNtNtNtCsfvgE7hV3dwJ_27fireworks_collaboration_lib3app8commands5proxy16get_system_proxy
FN:13,_RNvNtNtNtCsfvgE7hV3dwJ_27fireworks_collaboration_lib3app8commands5proxy19detect_system_proxy
FN:52,_RNvNtNtNtCsfvgE7hV3dwJ_27fireworks_collaboration_lib3app8commands5proxy20force_proxy_fallback
FN:87,_RNvNtNtNtCsfvgE7hV3dwJ_27fireworks_collaboration_lib3app8commands5proxy20force_proxy_recovery
FN:60,_RNvNtNtNtCsfvgE7hV3dwJ_27fireworks_collaboration_lib3app8commands5proxy26force_proxy_fallback_logic
FN:92,_RNvNtNtNtCsfvgE7hV3dwJ_27fireworks_collaboration_lib3app8commands5proxy26force_proxy_recovery_logic
FNDA:0,_RNvNtNtNtCscu9j8SGJFlb_27fireworks_collaboration_lib3app8commands5proxy16get_system_proxy
FNDA:0,_RNvNtNtNtCscu9j8SGJFlb_27fireworks_collaboration_lib3app8commands5proxy19detect_system_proxy
FNDA:0,_RNvNtNtNtCscu9j8SGJFlb_27fireworks_collaboration_lib3app8commands5proxy20force_proxy_fallback
FNDA:0,_RNvNtNtNtCscu9j8SGJFlb_27fireworks_collaboration_lib3app8commands5proxy20force_proxy_recovery
FNDA:0,_RNvNtNtNtCscu9j8SGJFlb_27fireworks_collaboration_lib3app8commands5proxy26force_proxy_fallback_logic
FNDA:0,_RNvNtNtNtCscu9j8SGJFlb_27fireworks_collaboration_lib3app8commands5proxy26force_proxy_recovery_logic
FNDA:0,_RNCNCNvNtNtNtCscu9j8SGJFlb_27fireworks_collaboration_lib3app8commands5proxy26force_proxy_fallback_logic00Bb_
FNDA:0,_RNCNCNvNtNtNtCscu9j8SGJFlb_27fireworks_collaboration_lib3app8commands5proxy26force_proxy_fallback_logic0s0_0Bb_
FNDA:0,_RNCNCNvNtNtNtCscu9j8SGJFlb_27fireworks_collaboration_lib3app8commands5proxy26force_proxy_fallback_logic0s_0Bb_
FNDA:0,_RNCNCNvNtNtNtCscu9j8SGJFlb_27fireworks_collaboration_lib3app8commands5proxy26force_proxy_recovery_logic00Bb_
FNDA:0,_RNCNCNvNtNtNtCscu9j8SGJFlb_27fireworks_collaboration_lib3app8commands5proxy26force_proxy_recovery_logic0s_0Bb_
FNDA:0,_RNCNvNtNtNtCscu9j8SGJFlb_27fireworks_collaboration_lib3app8commands5proxy19detect_system_proxy0B9_
FNDA:0,_RNCNvNtNtNtCscu9j8SGJFlb_27fireworks_collaboration_lib3app8commands5proxy20force_proxy_fallback0B9_
FNDA:0,_RNCNvNtNtNtCscu9j8SGJFlb_27fireworks_collaboration_lib3app8commands5proxy20force_proxy_recovery0B9_
FNDA:0,_RNCNvNtNtNtCscu9j8SGJFlb_27fireworks_collaboration_lib3app8commands5proxy26force_proxy_fallback_logic0B9_
FNDA:0,_RNCNvNtNtNtCscu9j8SGJFlb_27fireworks_collaboration_lib3app8commands5proxy26force_proxy_recovery_logic0B9_
FNDA:0,_RNCNCNvNtNtNtCsfvgE7hV3dwJ_27fireworks_collaboration_lib3app8commands5proxy26force_proxy_fallback_logic00Bb_
FNDA:0,_RNCNCNvNtNtNtCsfvgE7hV3dwJ_27fireworks_collaboration_lib3app8commands5proxy26force_proxy_fallback_logic0s0_0Bb_
FNDA:0,_RNCNCNvNtNtNtCsfvgE7hV3dwJ_27fireworks_collaboration_lib3app8commands5proxy26force_proxy_fallback_logic0s_0Bb_
FNDA:0,_RNCNCNvNtNtNtCsfvgE7hV3dwJ_27fireworks_collaboration_lib3app8commands5proxy26force_proxy_recovery_logic00Bb_
FNDA:0,_RNCNCNvNtNtNtCsfvgE7hV3dwJ_27fireworks_collaboration_lib3app8commands5proxy26force_proxy_recovery_logic0s_0Bb_
FNDA:0,_RNCNvNtNtNtCsfvgE7hV3dwJ_27fireworks_collaboration_lib3app8commands5proxy19detect_system_proxy0B9_
FNDA:0,_RNCNvNtNtNtCsfvgE7hV3dwJ_27fireworks_collaboration_lib3app8commands5proxy20force_proxy_fallback0B9_
FNDA:0,_RNCNvNtNtNtCsfvgE7hV3dwJ_27fireworks_collaboration_lib3app8commands5proxy20force_proxy_recovery0B9_
FNDA:0,_RNCNvNtNtNtCsfvgE7hV3dwJ_27fireworks_collaboration_lib3app8commands5proxy26force_proxy_fallback_logic0B9_
FNDA:0,_RNCNvNtNtNtCsfvgE7hV3dwJ_27fireworks_collaboration_lib3app8commands5proxy26force_proxy_recovery_logic0B9_
FNDA:0,_RNvNtNtNtCsfvgE7hV3dwJ_27fireworks_collaboration_lib3app8commands5proxy16get_system_proxy
FNDA:0,_RNvNtNtNtCsfvgE7hV3dwJ_27fireworks_collaboration_lib3app8commands5proxy19detect_system_proxy
FNDA:0,_RNvNtNtNtCsfvgE7hV3dwJ_27fireworks_collaboration_lib3app8commands5proxy20force_proxy_fallback
FNDA:0,_RNvNtNtNtCsfvgE7hV3dwJ_27fireworks_collaboration_lib3app8commands5proxy20force_proxy_recovery
FNDA:0,_RNvNtNtNtCsfvgE7hV3dwJ_27fireworks_collaboration_lib3app8commands5proxy26force_proxy_fallback_logic
FNDA:0,_RNvNtNtNtCsfvgE7hV3dwJ_27fireworks_collaboration_lib3app8commands5proxy26force_proxy_recovery_logic
FNF:16
FNH:0
DA:13,0
DA:14,0
DA:16,0
DA:17,0
DA:18,0
DA:19,0
DA:20,0
DA:21,0
DA:22,0
DA:25,0
DA:29,0
DA:32,0
DA:33,0
DA:34,0
DA:35,0
DA:38,0
DA:39,0
DA:40,0
DA:41,0
DA:42,0
DA:45,0
DA:52,0
DA:53,0
DA:54,0
DA:55,0
DA:56,0
DA:57,0
DA:60,0
DA:61,0
DA:62,0
DA:63,0
DA:64,0
DA:66,0
DA:67,0
DA:68,0
DA:70,0
DA:72,0
DA:74,0
DA:75,0
DA:76,0
DA:78,0
DA:80,0
DA:81,0
DA:87,0
DA:88,0
DA:89,0
DA:92,0
DA:93,0
DA:95,0
DA:96,0
DA:97,0
DA:99,0
DA:101,0
DA:102,0
DA:103,0
DA:105,0
DA:107,0
DA:108,0
DA:115,0
DA:120,0
DA:129,0
BRF:0
BRH:0
LF:71
LH:0
end_of_record
SF:C:\Users\34404\Documents\GitHub\fireworks-collaboration\src-tauri\src\app\commands\submodule.rs
FN:74,_RNvNtNtNtCscu9j8SGJFlb_27fireworks_collaboration_lib3app8commands9submodule14has_submodules
FN:128,_RNvNtNtNtCscu9j8SGJFlb_27fireworks_collaboration_lib3app8commands9submodule14init_submodule
FN:256,_RNvNtNtNtCscu9j8SGJFlb_27fireworks_collaboration_lib3app8commands9submodule14sync_submodule
FN:52,_RNvNtNtNtCscu9j8SGJFlb_27fireworks_collaboration_lib3app8commands9submodule15list_submodules
FN:192,_RNvNtNtNtCscu9j8SGJFlb_27fireworks_collaboration_lib3app8commands9submodule16update_submodule
FN:96,_RNvNtNtNtCscu9j8SGJFlb_27fireworks_collaboration_lib3app8commands9submodule19init_all_submodules
FN:224,_RNvNtNtNtCscu9j8SGJFlb_27fireworks_collaboration_lib3app8commands9submodule19sync_all_submodules
FN:288,_RNvNtNtNtCscu9j8SGJFlb_27fireworks_collaboration_lib3app8commands9submodule20get_submodule_config
FN:160,_RNvNtNtNtCscu9j8SGJFlb_27fireworks_collaboration_lib3app8commands9submodule21update_all_submodules
FN:33,_RINvMNtNtNtCscu9j8SGJFlb_27fireworks_collaboration_lib3app8commands9submoduleNtB3_22SubmoduleCommandResult12ok_with_datapEB9_
FN:25,_RINvMNtNtNtCscu9j8SGJFlb_27fireworks_collaboration_lib3app8commands9submoduleNtB3_22SubmoduleCommandResult2okpEB9_
FN:41,_RINvMNtNtNtCscu9j8SGJFlb_27fireworks_collaboration_lib3app8commands9submoduleNtB3_22SubmoduleCommandResult3errpEB9_
FN:80,_RNCNCNvNtNtNtCscu9j8SGJFlb_27fireworks_collaboration_lib3app8commands9submodule14has_submodules00Bb_
FN:85,_RNCNCNvNtNtNtCscu9j8SGJFlb_27fireworks_collaboration_lib3app8commands9submodule14has_submodules0s_0Bb_
FN:135,_RNCNCNvNtNtNtCscu9j8SGJFlb_27fireworks_collaboration_lib3app8commands9submodule14init_submodule00Bb_
FN:263,_RNCNCNvNtNtNtCscu9j8SGJFlb_27fireworks_collaboration_lib3app8commands9submodule14sync_submodule00Bb_
FN:58,_RNCNCNvNtNtNtCscu9j8SGJFlb_27fireworks_collaboration_lib3app8commands9submodule15list_submodules00Bb_
FN:63,_RNCNCNvNtNtNtCscu9j8SGJFlb_27fireworks_collaboration_lib3app8commands9submodule15list_submodules0s_0Bb_
FN:199,_RNCNCNvNtNtNtCscu9j8SGJFlb_27fireworks_collaboration_lib3app8commands9submodule16update_submodule00Bb_
FN:102,_RNCNCNvNtNtNtCscu9j8SGJFlb_27fireworks_collaboration_lib3app8commands9submodule19init_all_submodules00Bb_
FN:230,_RNCNCNvNtNtNtCscu9j8SGJFlb_27fireworks_collaboration_lib3app8commands9submodule19sync_all_submodules00Bb_
FN:293,_RNCNCNvNtNtNtCscu9j8SGJFlb_27fireworks_collaboration_lib3app8commands9submodule20get_submodule_config00Bb_
FN:166,_RNCNCNvNtNtNtCscu9j8SGJFlb_27fireworks_collaboration_lib3app8commands9submodule21update_all_submodules00Bb_
FN:77,_RNCNvNtNtNtCscu9j8SGJFlb_27fireworks_collaboration_lib3app8commands9submodule14has_submodules0B9_
FN:132,_RNCNvNtNtNtCscu9j8SGJFlb_27fireworks_collaboration_lib3app8commands9submodule14init_submodule0B9_
FN:260,_RNCNvNtNtNtCscu9j8SGJFlb_27fireworks_collaboration_lib3app8commands9submodule14sync_submodule0B9_
FN:55,_RNCNvNtNtNtCscu9j8SGJFlb_27fireworks_collaboration_lib3app8commands9submodule15list_submodules0B9_
FN:196,_RNCNvNtNtNtCscu9j8SGJFlb_27fireworks_collaboration_lib3app8commands9submodule16update_submodule0B9_
FN:99,_RNCNvNtNtNtCscu9j8SGJFlb_27fireworks_collaboration_lib3app8commands9submodule19init_all_submodules0B9_
FN:227,_RNCNvNtNtNtCscu9j8SGJFlb_27fireworks_collaboration_lib3app8commands9submodule19sync_all_submodules0B9_
FN:290,_RNCNvNtNtNtCscu9j8SGJFlb_27fireworks_collaboration_lib3app8commands9submodule20get_submodule_config0B9_
FN:163,_RNCNvNtNtNtCscu9j8SGJFlb_27fireworks_collaboration_lib3app8commands9submodule21update_all_submodules0B9_
FN:33,_RINvMNtNtNtCscu9j8SGJFlb_27fireworks_collaboration_lib3app8commands9submoduleNtB3_22SubmoduleCommandResult12ok_with_dataReECsgV7FHrbFFzv_8commands
FN:25,_RINvMNtNtNtCscu9j8SGJFlb_27fireworks_collaboration_lib3app8commands9submoduleNtB3_22SubmoduleCommandResult2okReECsgV7FHrbFFzv_8commands
FN:41,_RINvMNtNtNtCscu9j8SGJFlb_27fireworks_collaboration_lib3app8commands9submoduleNtB3_22SubmoduleCommandResult3errReECsgV7FHrbFFzv_8commands
FN:33,_RINvMNtNtNtCsfvgE7hV3dwJ_27fireworks_collaboration_lib3app8commands9submoduleNtB3_22SubmoduleCommandResult12ok_with_datapEB9_
FN:25,_RINvMNtNtNtCsfvgE7hV3dwJ_27fireworks_collaboration_lib3app8commands9submoduleNtB3_22SubmoduleCommandResult2okpEB9_
FN:41,_RINvMNtNtNtCsfvgE7hV3dwJ_27fireworks_collaboration_lib3app8commands9submoduleNtB3_22SubmoduleCommandResult3errpEB9_
FN:80,_RNCNCNvNtNtNtCsfvgE7hV3dwJ_27fireworks_collaboration_lib3app8commands9submodule14has_submodules00Bb_
FN:85,_RNCNCNvNtNtNtCsfvgE7hV3dwJ_27fireworks_collaboration_lib3app8commands9submodule14has_submodules0s_0Bb_
FN:135,_RNCNCNvNtNtNtCsfvgE7hV3dwJ_27fireworks_collaboration_lib3app8commands9submodule14init_submodule00Bb_
FN:263,_RNCNCNvNtNtNtCsfvgE7hV3dwJ_27fireworks_collaboration_lib3app8commands9submodule14sync_submodule00Bb_
FN:58,_RNCNCNvNtNtNtCsfvgE7hV3dwJ_27fireworks_collaboration_lib3app8commands9submodule15list_submodules00Bb_
FN:63,_RNCNCNvNtNtNtCsfvgE7hV3dwJ_27fireworks_collaboration_lib3app8commands9submodule15list_submodules0s_0Bb_
FN:199,_RNCNCNvNtNtNtCsfvgE7hV3dwJ_27fireworks_collaboration_lib3app8commands9submodule16update_submodule00Bb_
FN:102,_RNCNCNvNtNtNtCsfvgE7hV3dwJ_27fireworks_collaboration_lib3app8commands9submodule19init_all_submodules00Bb_
FN:230,_RNCNCNvNtNtNtCsfvgE7hV3dwJ_27fireworks_collaboration_lib3app8commands9submodule19sync_all_submodules00Bb_
FN:293,_RNCNCNvNtNtNtCsfvgE7hV3dwJ_27fireworks_collaboration_lib3app8commands9submodule20get_submodule_config00Bb_
FN:166,_RNCNCNvNtNtNtCsfvgE7hV3dwJ_27fireworks_collaboration_lib3app8commands9submodule21update_all_submodules00Bb_
FN:77,_RNCNvNtNtNtCsfvgE7hV3dwJ_27fireworks_collaboration_lib3app8commands9submodule14has_submodules0B9_
FN:132,_RNCNvNtNtNtCsfvgE7hV3dwJ_27fireworks_collaboration_lib3app8commands9submodule14init_submodule0B9_
FN:260,_RNCNvNtNtNtCsfvgE7hV3dwJ_27fireworks_collaboration_lib3app8commands9submodule14sync_submodule0B9_
FN:55,_RNCNvNtNtNtCsfvgE7hV3dwJ_27fireworks_collaboration_lib3app8commands9submodule15list_submodules0B9_
FN:196,_RNCNvNtNtNtCsfvgE7hV3dwJ_27fireworks_collaboration_lib3app8commands9submodule16update_submodule0B9_
FN:99,_RNCNvNtNtNtCsfvgE7hV3dwJ_27fireworks_collaboration_lib3app8commands9submodule19init_all_submodules0B9_
FN:227,_RNCNvNtNtNtCsfvgE7hV3dwJ_27fireworks_collaboration_lib3app8commands9submodule19sync_all_submodules0B9_
FN:290,_RNCNvNtNtNtCsfvgE7hV3dwJ_27fireworks_collaboration_lib3app8commands9submodule20get_submodule_config0B9_
FN:163,_RNCNvNtNtNtCsfvgE7hV3dwJ_27fireworks_collaboration_lib3app8commands9submodule21update_all_submodules0B9_
FN:74,_RNvNtNtNtCsfvgE7hV3dwJ_27fireworks_collaboration_lib3app8commands9submodule14has_submodules
FN:128,_RNvNtNtNtCsfvgE7hV3dwJ_27fireworks_collaboration_lib3app8commands9submodule14init_submodule
FN:256,_RNvNtNtNtCsfvgE7hV3dwJ_27fireworks_collaboration_lib3app8commands9submodule14sync_submodule
FN:52,_RNvNtNtNtCsfvgE7hV3dwJ_27fireworks_collaboration_lib3app8commands9submodule15list_submodules
FN:192,_RNvNtNtNtCsfvgE7hV3dwJ_27fireworks_collaboration_lib3app8commands9submodule16update_submodule
FN:96,_RNvNtNtNtCsfvgE7hV3dwJ_27fireworks_collaboration_lib3app8commands9submodule19init_all_submodules
FN:224,_RNvNtNtNtCsfvgE7hV3dwJ_27fireworks_collaboration_lib3app8commands9submodule19sync_all_submodules
FN:288,_RNvNtNtNtCsfvgE7hV3dwJ_27fireworks_collaboration_lib3app8commands9submodule20get_submodule_config
FN:160,_RNvNtNtNtCsfvgE7hV3dwJ_27fireworks_collaboration_lib3app8commands9submodule21update_all_submodules
FNDA:0,_RNvNtNtNtCscu9j8SGJFlb_27fireworks_collaboration_lib3app8commands9submodule14has_submodules
FNDA:0,_RNvNtNtNtCscu9j8SGJFlb_27fireworks_collaboration_lib3app8commands9submodule14init_submodule
FNDA:0,_RNvNtNtNtCscu9j8SGJFlb_27fireworks_collaboration_lib3app8commands9submodule14sync_submodule
FNDA:0,_RNvNtNtNtCscu9j8SGJFlb_27fireworks_collaboration_lib3app8commands9submodule15list_submodules
FNDA:0,_RNvNtNtNtCscu9j8SGJFlb_27fireworks_collaboration_lib3app8commands9submodule16update_submodule
FNDA:0,_RNvNtNtNtCscu9j8SGJFlb_27fireworks_collaboration_lib3app8commands9submodule19init_all_submodules
FNDA:0,_RNvNtNtNtCscu9j8SGJFlb_27fireworks_collaboration_lib3app8commands9submodule19sync_all_submodules
FNDA:0,_RNvNtNtNtCscu9j8SGJFlb_27fireworks_collaboration_lib3app8commands9submodule20get_submodule_config
FNDA:0,_RNvNtNtNtCscu9j8SGJFlb_27fireworks_collaboration_lib3app8commands9submodule21update_all_submodules
FNDA:0,_RINvMNtNtNtCscu9j8SGJFlb_27fireworks_collaboration_lib3app8commands9submoduleNtB3_22SubmoduleCommandResult12ok_with_datapEB9_
FNDA:0,_RINvMNtNtNtCscu9j8SGJFlb_27fireworks_collaboration_lib3app8commands9submoduleNtB3_22SubmoduleCommandResult2okpEB9_
FNDA:0,_RINvMNtNtNtCscu9j8SGJFlb_27fireworks_collaboration_lib3app8commands9submoduleNtB3_22SubmoduleCommandResult3errpEB9_
FNDA:0,_RNCNCNvNtNtNtCscu9j8SGJFlb_27fireworks_collaboration_lib3app8commands9submodule14has_submodules00Bb_
FNDA:0,_RNCNCNvNtNtNtCscu9j8SGJFlb_27fireworks_collaboration_lib3app8commands9submodule14has_submodules0s_0Bb_
FNDA:0,_RNCNCNvNtNtNtCscu9j8SGJFlb_27fireworks_collaboration_lib3app8commands9submodule14init_submodule00Bb_
FNDA:0,_RNCNCNvNtNtNtCscu9j8SGJFlb_27fireworks_collaboration_lib3app8commands9submodule14sync_submodule00Bb_
FNDA:0,_RNCNCNvNtNtNtCscu9j8SGJFlb_27fireworks_collaboration_lib3app8commands9submodule15list_submodules00Bb_
FNDA:0,_RNCNCNvNtNtNtCscu9j8SGJFlb_27fireworks_collaboration_lib3app8commands9submodule15list_submodules0s_0Bb_
FNDA:0,_RNCNCNvNtNtNtCscu9j8SGJFlb_27fireworks_collaboration_lib3app8commands9submodule16update_submodule00Bb_
FNDA:0,_RNCNCNvNtNtNtCscu9j8SGJFlb_27fireworks_collaboration_lib3app8commands9submodule19init_all_submodules00Bb_
FNDA:0,_RNCNCNvNtNtNtCscu9j8SGJFlb_27fireworks_collaboration_lib3app8commands9submodule19sync_all_submodules00Bb_
FNDA:0,_RNCNCNvNtNtNtCscu9j8SGJFlb_27fireworks_collaboration_lib3app8commands9submodule20get_submodule_config00Bb_
FNDA:0,_RNCNCNvNtNtNtCscu9j8SGJFlb_27fireworks_collaboration_lib3app8commands9submodule21update_all_submodules00Bb_
FNDA:0,_RNCNvNtNtNtCscu9j8SGJFlb_27fireworks_collaboration_lib3app8commands9submodule14has_submodules0B9_
FNDA:0,_RNCNvNtNtNtCscu9j8SGJFlb_27fireworks_collaboration_lib3app8commands9submodule14init_submodule0B9_
FNDA:0,_RNCNvNtNtNtCscu9j8SGJFlb_27fireworks_collaboration_lib3app8commands9submodule14sync_submodule0B9_
FNDA:0,_RNCNvNtNtNtCscu9j8SGJFlb_27fireworks_collaboration_lib3app8commands9submodule15list_submodules0B9_
FNDA:0,_RNCNvNtNtNtCscu9j8SGJFlb_27fireworks_collaboration_lib3app8commands9submodule16update_submodule0B9_
FNDA:0,_RNCNvNtNtNtCscu9j8SGJFlb_27fireworks_collaboration_lib3app8commands9submodule19init_all_submodules0B9_
FNDA:0,_RNCNvNtNtNtCscu9j8SGJFlb_27fireworks_collaboration_lib3app8commands9submodule19sync_all_submodules0B9_
FNDA:0,_RNCNvNtNtNtCscu9j8SGJFlb_27fireworks_collaboration_lib3app8commands9submodule20get_submodule_config0B9_
FNDA:0,_RNCNvNtNtNtCscu9j8SGJFlb_27fireworks_collaboration_lib3app8commands9submodule21update_all_submodules0B9_
FNDA:1,_RINvMNtNtNtCscu9j8SGJFlb_27fireworks_collaboration_lib3app8commands9submoduleNtB3_22SubmoduleCommandResult12ok_with_dataReECsgV7FHrbFFzv_8commands
FNDA:2,_RINvMNtNtNtCscu9j8SGJFlb_27fireworks_collaboration_lib3app8commands9submoduleNtB3_22SubmoduleCommandResult2okReECsgV7FHrbFFzv_8commands
FNDA:1,_RINvMNtNtNtCscu9j8SGJFlb_27fireworks_collaboration_lib3app8commands9submoduleNtB3_22SubmoduleCommandResult3errReECsgV7FHrbFFzv_8commands
FNDA:0,_RINvMNtNtNtCsfvgE7hV3dwJ_27fireworks_collaboration_lib3app8commands9submoduleNtB3_22SubmoduleCommandResult12ok_with_datapEB9_
FNDA:0,_RINvMNtNtNtCsfvgE7hV3dwJ_27fireworks_collaboration_lib3app8commands9submoduleNtB3_22SubmoduleCommandResult2okpEB9_
FNDA:0,_RINvMNtNtNtCsfvgE7hV3dwJ_27fireworks_collaboration_lib3app8commands9submoduleNtB3_22SubmoduleCommandResult3errpEB9_
FNDA:0,_RNCNCNvNtNtNtCsfvgE7hV3dwJ_27fireworks_collaboration_lib3app8commands9submodule14has_submodules00Bb_
FNDA:0,_RNCNCNvNtNtNtCsfvgE7hV3dwJ_27fireworks_collaboration_lib3app8commands9submodule14has_submodules0s_0Bb_
FNDA:0,_RNCNCNvNtNtNtCsfvgE7hV3dwJ_27fireworks_collaboration_lib3app8commands9submodule14init_submodule00Bb_
FNDA:0,_RNCNCNvNtNtNtCsfvgE7hV3dwJ_27fireworks_collaboration_lib3app8commands9submodule14sync_submodule00Bb_
FNDA:0,_RNCNCNvNtNtNtCsfvgE7hV3dwJ_27fireworks_collaboration_lib3app8commands9submodule15list_submodules00Bb_
FNDA:0,_RNCNCNvNtNtNtCsfvgE7hV3dwJ_27fireworks_collaboration_lib3app8commands9submodule15list_submodules0s_0Bb_
FNDA:0,_RNCNCNvNtNtNtCsfvgE7hV3dwJ_27fireworks_collaboration_lib3app8commands9submodule16update_submodule00Bb_
FNDA:0,_RNCNCNvNtNtNtCsfvgE7hV3dwJ_27fireworks_collaboration_lib3app8commands9submodule19init_all_submodules00Bb_
FNDA:0,_RNCNCNvNtNtNtCsfvgE7hV3dwJ_27fireworks_collaboration_lib3app8commands9submodule19sync_all_submodules00Bb_
FNDA:0,_RNCNCNvNtNtNtCsfvgE7hV3dwJ_27fireworks_collaboration_lib3app8commands9submodule20get_submodule_config00Bb_
FNDA:0,_RNCNCNvNtNtNtCsfvgE7hV3dwJ_27fireworks_collaboration_lib3app8commands9submodule21update_all_submodules00Bb_
FNDA:0,_RNCNvNtNtNtCsfvgE7hV3dwJ_27fireworks_collaboration_lib3app8commands9submodule14has_submodules0B9_
FNDA:0,_RNCNvNtNtNtCsfvgE7hV3dwJ_27fireworks_collaboration_lib3app8commands9submodule14init_submodule0B9_
FNDA:0,_RNCNvNtNtNtCsfvgE7hV3dwJ_27fireworks_collaboration_lib3app8commands9submodule14sync_submodule0B9_
FNDA:0,_RNCNvNtNtNtCsfvgE7hV3dwJ_27fireworks_collaboration_lib3app8commands9submodule15list_submodules0B9_
FNDA:0,_RNCNvNtNtNtCsfvgE7hV3dwJ_27fireworks_collaboration_lib3app8commands9submodule16update_submodule0B9_
FNDA:0,_RNCNvNtNtNtCsfvgE7hV3dwJ_27fireworks_collaboration_lib3app8commands9submodule19init_all_submodules0B9_
FNDA:0,_RNCNvNtNtNtCsfvgE7hV3dwJ_27fireworks_collaboration_lib3app8commands9submodule19sync_all_submodules0B9_
FNDA:0,_RNCNvNtNtNtCsfvgE7hV3dwJ_27fireworks_collaboration_lib3app8commands9submodule20get_submodule_config0B9_
FNDA:0,_RNCNvNtNtNtCsfvgE7hV3dwJ_27fireworks_collaboration_lib3app8commands9submodule21update_all_submodules0B9_
FNDA:0,_RNvNtNtNtCsfvgE7hV3dwJ_27fireworks_collaboration_lib3app8commands9submodule14has_submodules
FNDA:0,_RNvNtNtNtCsfvgE7hV3dwJ_27fireworks_collaboration_lib3app8commands9submodule14init_submodule
FNDA:0,_RNvNtNtNtCsfvgE7hV3dwJ_27fireworks_collaboration_lib3app8commands9submodule14sync_submodule
FNDA:0,_RNvNtNtNtCsfvgE7hV3dwJ_27fireworks_collaboration_lib3app8commands9submodule15list_submodules
FNDA:0,_RNvNtNtNtCsfvgE7hV3dwJ_27fireworks_collaboration_lib3app8commands9submodule16update_submodule
FNDA:0,_RNvNtNtNtCsfvgE7hV3dwJ_27fireworks_collaboration_lib3app8commands9submodule19init_all_submodules
FNDA:0,_RNvNtNtNtCsfvgE7hV3dwJ_27fireworks_collaboration_lib3app8commands9submodule19sync_all_submodules
FNDA:0,_RNvNtNtNtCsfvgE7hV3dwJ_27fireworks_collaboration_lib3app8commands9submodule20get_submodule_config
FNDA:0,_RNvNtNtNtCsfvgE7hV3dwJ_27fireworks_collaboration_lib3app8commands9submodule21update_all_submodules
FNF:32
FNH:3
DA:25,2
DA:26,2
DA:27,2
DA:28,2
DA:29,2
DA:30,2
DA:31,2
DA:33,1
DA:34,1
DA:35,1
DA:36,1
DA:37,1
DA:38,1
DA:39,1
DA:41,1
DA:42,1
DA:43,1
DA:44,1
DA:45,1
DA:46,1
DA:47,1
DA:52,0
DA:53,0
DA:54,0
DA:55,0
DA:56,0
DA:58,0
DA:59,0
DA:60,0
DA:61,0
DA:63,0
DA:64,0
DA:65,0
DA:66,0
DA:68,0
DA:69,0
DA:70,0
DA:74,0
DA:75,0
DA:76,0
DA:77,0
DA:78,0
DA:80,0
DA:81,0
DA:82,0
DA:83,0
DA:85,0
DA:86,0
DA:87,0
DA:88,0
DA:90,0
DA:91,0
DA:92,0
DA:96,0
DA:97,0
DA:98,0
DA:99,0
DA:100,0
DA:102,0
DA:103,0
DA:104,0
DA:105,0
DA:107,0
DA:108,0
DA:109,0
DA:110,0
DA:111,0
DA:112,0
DA:113,0
DA:114,0
DA:116,0
DA:117,0
DA:118,0
DA:119,0
DA:120,0
DA:121,0
DA:124,0
DA:128,0
DA:129,0
DA:130,0
DA:131,0
DA:132,0
DA:133,0
DA:135,0
DA:136,0
DA:137,0
DA:138,0
DA:140,0
DA:142,0
DA:143,0
DA:144,0
DA:145,0
DA:146,0
DA:148,0
DA:149,0
DA:150,0
DA:151,0
DA:152,0
DA:153,0
DA:156,0
DA:160,0
DA:161,0
DA:162,0
DA:163,0
DA:164,0
DA:166,0
DA:167,0
DA:168,0
DA:169,0
DA:171,0
DA:172,0
DA:173,0
DA:174,0
DA:175,0
DA:176,0
DA:177,0
DA:178,0
DA:180,0
DA:181,0
DA:182,0
DA:183,0
DA:184,0
DA:185,0
DA:188,0
DA:192,0
DA:193,0
DA:194,0
DA:195,0
DA:196,0
DA:197,0
DA:199,0
DA:200,0
DA:201,0
DA:202,0
DA:204,0
DA:206,0
DA:207,0
DA:208,0
DA:209,0
DA:210,0
DA:212,0
DA:213,0
DA:214,0
DA:215,0
DA:216,0
DA:217,0
DA:220,0
DA:224,0
DA:225,0
DA:226,0
DA:227,0
DA:228,0
DA:230,0
DA:231,0
DA:232,0
DA:233,0
DA:235,0
DA:236,0
DA:237,0
DA:238,0
DA:239,0
DA:240,0
DA:241,0
DA:242,0
DA:244,0
DA:245,0
DA:246,0
DA:247,0
DA:248,0
DA:249,0
DA:252,0
DA:256,0
DA:257,0
DA:258,0
DA:259,0
DA:260,0
DA:261,0
DA:263,0
DA:264,0
DA:265,0
DA:266,0
DA:268,0
DA:270,0
DA:271,0
DA:272,0
DA:273,0
DA:274,0
DA:276,0
DA:277,0
DA:278,0
DA:279,0
DA:280,0
DA:281,0
DA:284,0
DA:288,0
DA:289,0
DA:290,0
DA:291,0
DA:293,0
DA:294,0
DA:295,0
DA:296,0
DA:298,0
DA:299,0
BRF:0
BRH:0
LF:235
LH:21
end_of_record
SF:C:\Users\34404\Documents\GitHub\fireworks-collaboration\src-tauri\src\app\commands\tasks.rs
FN:27,_RNvNtNtNtCscu9j8SGJFlb_27fireworks_collaboration_lib3app8commands5tasks11task_cancel
FN:17,_RNvNtNtNtCscu9j8SGJFlb_27fireworks_collaboration_lib3app8commands5tasks13task_snapshot
FN:36,_RNvNtNtNtCscu9j8SGJFlb_27fireworks_collaboration_lib3app8commands5tasks16task_start_sleep
FN:11,_RNvNtNtNtCscu9j8SGJFlb_27fireworks_collaboration_lib3app8commands5tasks9task_list
FN:28,_RNCNCNvNtNtNtCscu9j8SGJFlb_27fireworks_collaboration_lib3app8commands5tasks11task_cancel00Bb_
FN:21,_RNCNCNvNtNtNtCscu9j8SGJFlb_27fireworks_collaboration_lib3app8commands5tasks13task_snapshot00Bb_
FN:27,_RNCNvNtNtNtCscu9j8SGJFlb_27fireworks_collaboration_lib3app8commands5tasks11task_cancel0B9_
FN:20,_RNCNvNtNtNtCscu9j8SGJFlb_27fireworks_collaboration_lib3app8commands5tasks13task_snapshot0B9_
FN:40,_RNCNvNtNtNtCscu9j8SGJFlb_27fireworks_collaboration_lib3app8commands5tasks16task_start_sleep0B9_
FN:11,_RNCNvNtNtNtCscu9j8SGJFlb_27fireworks_collaboration_lib3app8commands5tasks9task_list0B9_
FN:28,_RNCNCNvNtNtNtCsfvgE7hV3dwJ_27fireworks_collaboration_lib3app8commands5tasks11task_cancel00Bb_
FN:21,_RNCNCNvNtNtNtCsfvgE7hV3dwJ_27fireworks_collaboration_lib3app8commands5tasks13task_snapshot00Bb_
FN:27,_RNCNvNtNtNtCsfvgE7hV3dwJ_27fireworks_collaboration_lib3app8commands5tasks11task_cancel0B9_
FN:20,_RNCNvNtNtNtCsfvgE7hV3dwJ_27fireworks_collaboration_lib3app8commands5tasks13task_snapshot0B9_
FN:40,_RNCNvNtNtNtCsfvgE7hV3dwJ_27fireworks_collaboration_lib3app8commands5tasks16task_start_sleep0B9_
FN:11,_RNCNvNtNtNtCsfvgE7hV3dwJ_27fireworks_collaboration_lib3app8commands5tasks9task_list0B9_
FN:27,_RNvNtNtNtCsfvgE7hV3dwJ_27fireworks_collaboration_lib3app8commands5tasks11task_cancel
FN:17,_RNvNtNtNtCsfvgE7hV3dwJ_27fireworks_collaboration_lib3app8commands5tasks13task_snapshot
FN:36,_RNvNtNtNtCsfvgE7hV3dwJ_27fireworks_collaboration_lib3app8commands5tasks16task_start_sleep
FN:11,_RNvNtNtNtCsfvgE7hV3dwJ_27fireworks_collaboration_lib3app8commands5tasks9task_list
FNDA:0,_RNvNtNtNtCscu9j8SGJFlb_27fireworks_collaboration_lib3app8commands5tasks11task_cancel
FNDA:0,_RNvNtNtNtCscu9j8SGJFlb_27fireworks_collaboration_lib3app8commands5tasks13task_snapshot
FNDA:0,_RNvNtNtNtCscu9j8SGJFlb_27fireworks_collaboration_lib3app8commands5tasks16task_start_sleep
FNDA:0,_RNvNtNtNtCscu9j8SGJFlb_27fireworks_collaboration_lib3app8commands5tasks9task_list
FNDA:0,_RNCNCNvNtNtNtCscu9j8SGJFlb_27fireworks_collaboration_lib3app8commands5tasks11task_cancel00Bb_
FNDA:0,_RNCNCNvNtNtNtCscu9j8SGJFlb_27fireworks_collaboration_lib3app8commands5tasks13task_snapshot00Bb_
FNDA:0,_RNCNvNtNtNtCscu9j8SGJFlb_27fireworks_collaboration_lib3app8commands5tasks11task_cancel0B9_
FNDA:0,_RNCNvNtNtNtCscu9j8SGJFlb_27fireworks_collaboration_lib3app8commands5tasks13task_snapshot0B9_
FNDA:0,_RNCNvNtNtNtCscu9j8SGJFlb_27fireworks_collaboration_lib3app8commands5tasks16task_start_sleep0B9_
FNDA:0,_RNCNvNtNtNtCscu9j8SGJFlb_27fireworks_collaboration_lib3app8commands5tasks9task_list0B9_
FNDA:0,_RNCNCNvNtNtNtCsfvgE7hV3dwJ_27fireworks_collaboration_lib3app8commands5tasks11task_cancel00Bb_
FNDA:0,_RNCNCNvNtNtNtCsfvgE7hV3dwJ_27fireworks_collaboration_lib3app8commands5tasks13task_snapshot00Bb_
FNDA:0,_RNCNvNtNtNtCsfvgE7hV3dwJ_27fireworks_collaboration_lib3app8commands5tasks11task_cancel0B9_
FNDA:0,_RNCNvNtNtNtCsfvgE7hV3dwJ_27fireworks_collaboration_lib3app8commands5tasks13task_snapshot0B9_
FNDA:0,_RNCNvNtNtNtCsfvgE7hV3dwJ_27fireworks_collaboration_lib3app8commands5tasks16task_start_sleep0B9_
FNDA:0,_RNCNvNtNtNtCsfvgE7hV3dwJ_27fireworks_collaboration_lib3app8commands5tasks9task_list0B9_
FNDA:0,_RNvNtNtNtCsfvgE7hV3dwJ_27fireworks_collaboration_lib3app8commands5tasks11task_cancel
FNDA:0,_RNvNtNtNtCsfvgE7hV3dwJ_27fireworks_collaboration_lib3app8commands5tasks13task_snapshot
FNDA:0,_RNvNtNtNtCsfvgE7hV3dwJ_27fireworks_collaboration_lib3app8commands5tasks16task_start_sleep
FNDA:0,_RNvNtNtNtCsfvgE7hV3dwJ_27fireworks_collaboration_lib3app8commands5tasks9task_list
FNF:10
FNH:0
DA:11,0
DA:12,0
DA:13,0
DA:17,0
DA:18,0
DA:19,0
DA:20,0
DA:21,0
DA:22,0
DA:23,0
DA:27,0
DA:28,0
DA:29,0
DA:30,0
DA:36,0
DA:37,0
DA:38,0
DA:39,0
DA:40,0
DA:41,0
DA:42,0
DA:43,0
DA:44,0
DA:45,0
BRF:0
BRH:0
LF:30
LH:0
end_of_record
SF:C:\Users\34404\Documents\GitHub\fireworks-collaboration\src-tauri\src\app\commands\workspace.rs
FN:249,_RNCNCNvNtNtNtCscu9j8SGJFlb_27fireworks_collaboration_lib3app8commands9workspace13get_workspace00Bb_
FN:254,_RNCNCNvNtNtNtCscu9j8SGJFlb_27fireworks_collaboration_lib3app8commands9workspace13get_workspace0s_0Bb_
FN:286,_RNCNCNvNtNtNtCscu9j8SGJFlb_27fireworks_collaboration_lib3app8commands9workspace14add_repository00Bb_
FN:305,_RNCNCNvNtNtNtCscu9j8SGJFlb_27fireworks_collaboration_lib3app8commands9workspace14add_repository0s0_0Bb_
FN:291,_RNCNCNvNtNtNtCscu9j8SGJFlb_27fireworks_collaboration_lib3app8commands9workspace14add_repository0s_0Bb_
FN:347,_RNCNCNvNtNtNtCscu9j8SGJFlb_27fireworks_collaboration_lib3app8commands9workspace14get_repository00Bb_
FN:357,_RNCNCNvNtNtNtCscu9j8SGJFlb_27fireworks_collaboration_lib3app8commands9workspace14get_repository0s0_0Bb_
FN:352,_RNCNCNvNtNtNtCscu9j8SGJFlb_27fireworks_collaboration_lib3app8commands9workspace14get_repository0s_0Bb_
FN:196,_RNCNCNvNtNtNtCscu9j8SGJFlb_27fireworks_collaboration_lib3app8commands9workspace14load_workspace00Bb_
FN:203,_RNCNCNvNtNtNtCscu9j8SGJFlb_27fireworks_collaboration_lib3app8commands9workspace14load_workspace0s_0Bb_
FN:222,_RNCNCNvNtNtNtCscu9j8SGJFlb_27fireworks_collaboration_lib3app8commands9workspace14save_workspace00Bb_
FN:235,_RNCNCNvNtNtNtCscu9j8SGJFlb_27fireworks_collaboration_lib3app8commands9workspace14save_workspace0s0_0Bb_
FN:227,_RNCNCNvNtNtNtCscu9j8SGJFlb_27fireworks_collaboration_lib3app8commands9workspace14save_workspace0s_0Bb_
FN:267,_RNCNCNvNtNtNtCscu9j8SGJFlb_27fireworks_collaboration_lib3app8commands9workspace15close_workspace00Bb_
FN:1000,_RNCNCNvNtNtNtCscu9j8SGJFlb_27fireworks_collaboration_lib3app8commands9workspace16backup_workspace00Bb_
FN:174,_RNCNCNvNtNtNtCscu9j8SGJFlb_27fireworks_collaboration_lib3app8commands9workspace16create_workspace00Bb_
FN:370,_RNCNCNvNtNtNtCscu9j8SGJFlb_27fireworks_collaboration_lib3app8commands9workspace17list_repositories00Bb_
FN:375,_RNCNCNvNtNtNtCscu9j8SGJFlb_27fireworks_collaboration_lib3app8commands9workspace17list_repositories0s_0Bb_
FN:322,_RNCNCNvNtNtNtCscu9j8SGJFlb_27fireworks_collaboration_lib3app8commands9workspace17remove_repository00Bb_
FN:332,_RNCNCNvNtNtNtCscu9j8SGJFlb_27fireworks_collaboration_lib3app8commands9workspace17remove_repository0s0_0Bb_
FN:327,_RNCNCNvNtNtNtCscu9j8SGJFlb_27fireworks_collaboration_lib3app8commands9workspace17remove_repository0s_0Bb_
FN:1019,_RNCNCNvNtNtNtCscu9j8SGJFlb_27fireworks_collaboration_lib3app8commands9workspace17restore_workspace00Bb_
FN:422,_RNCNCNvNtNtNtCscu9j8SGJFlb_27fireworks_collaboration_lib3app8commands9workspace20reorder_repositories00Bb_
FN:427,_RNCNCNvNtNtNtCscu9j8SGJFlb_27fireworks_collaboration_lib3app8commands9workspace20reorder_repositories0s_0Bb_
FN:717,_RNCNCNvNtNtNtCscu9j8SGJFlb_27fireworks_collaboration_lib3app8commands9workspace20workspace_batch_push00Bb_
FN:721,_RNCNCNvNtNtNtCscu9j8SGJFlb_27fireworks_collaboration_lib3app8commands9workspace20workspace_batch_push0s_0Bb_
FN:559,_RNCNCNvNtNtNtCscu9j8SGJFlb_27fireworks_collaboration_lib3app8commands9workspace21workspace_batch_clone00Bb_
FN:563,_RNCNCNvNtNtNtCscu9j8SGJFlb_27fireworks_collaboration_lib3app8commands9workspace21workspace_batch_clone0s_0Bb_
FN:637,_RNCNCNvNtNtNtCscu9j8SGJFlb_27fireworks_collaboration_lib3app8commands9workspace21workspace_batch_fetch00Bb_
FN:641,_RNCNCNvNtNtNtCscu9j8SGJFlb_27fireworks_collaboration_lib3app8commands9workspace21workspace_batch_fetch0s_0Bb_
FN:489,_RNCNCNvNtNtNtCscu9j8SGJFlb_27fireworks_collaboration_lib3app8commands9workspace22get_workspace_statuses00Bb_
FN:505,_RNCNCNvNtNtNtCscu9j8SGJFlb_27fireworks_collaboration_lib3app8commands9workspace22get_workspace_statuses0s0_0Bb_
FN:494,_RNCNCNvNtNtNtCscu9j8SGJFlb_27fireworks_collaboration_lib3app8commands9workspace22get_workspace_statuses0s_0Bb_
FN:901,_RNCNCNvNtNtNtCscu9j8SGJFlb_27fireworks_collaboration_lib3app8commands9workspace22update_repository_tags00Bb_
FN:915,_RNCNCNvNtNtNtCscu9j8SGJFlb_27fireworks_collaboration_lib3app8commands9workspace22update_repository_tags0s0_0Bb_
FN:916,_RNCNCNvNtNtNtCscu9j8SGJFlb_27fireworks_collaboration_lib3app8commands9workspace22update_repository_tags0s1_0Bb_
FN:906,_RNCNCNvNtNtNtCscu9j8SGJFlb_27fireworks_collaboration_lib3app8commands9workspace22update_repository_tags0s_0Bb_
FN:395,_RNCNCNvNtNtNtCscu9j8SGJFlb_27fireworks_collaboration_lib3app8commands9workspace25list_enabled_repositories00Bb_
FN:408,_RNCNCNvNtNtNtCscu9j8SGJFlb_27fireworks_collaboration_lib3app8commands9workspace25list_enabled_repositories0s0_0Bb_
FN:400,_RNCNCNvNtNtNtCscu9j8SGJFlb_27fireworks_collaboration_lib3app8commands9workspace25list_enabled_repositories0s_0Bb_
FN:936,_RNCNCNvNtNtNtCscu9j8SGJFlb_27fireworks_collaboration_lib3app8commands9workspace25toggle_repository_enabled00Bb_
FN:950,_RNCNCNvNtNtNtCscu9j8SGJFlb_27fireworks_collaboration_lib3app8commands9workspace25toggle_repository_enabled0s0_0Bb_
FN:951,_RNCNCNvNtNtNtCscu9j8SGJFlb_27fireworks_collaboration_lib3app8commands9workspace25toggle_repository_enabled0s1_0Bb_
FN:941,_RNCNCNvNtNtNtCscu9j8SGJFlb_27fireworks_collaboration_lib3app8commands9workspace25toggle_repository_enabled0s_0Bb_
FN:248,_RNCNvNtNtNtCscu9j8SGJFlb_27fireworks_collaboration_lib3app8commands9workspace13get_workspace0B9_
FN:283,_RNCNvNtNtNtCscu9j8SGJFlb_27fireworks_collaboration_lib3app8commands9workspace14add_repository0B9_
FN:346,_RNCNvNtNtNtCscu9j8SGJFlb_27fireworks_collaboration_lib3app8commands9workspace14get_repository0B9_
FN:190,_RNCNvNtNtNtCscu9j8SGJFlb_27fireworks_collaboration_lib3app8commands9workspace14load_workspace0B9_
FN:219,_RNCNvNtNtNtCscu9j8SGJFlb_27fireworks_collaboration_lib3app8commands9workspace14save_workspace0B9_
FN:264,_RNCNvNtNtNtCscu9j8SGJFlb_27fireworks_collaboration_lib3app8commands9workspace15close_workspace0B9_
FN:994,_RNCNvNtNtNtCscu9j8SGJFlb_27fireworks_collaboration_lib3app8commands9workspace16backup_workspace0B9_
FN:163,_RNCNvNtNtNtCscu9j8SGJFlb_27fireworks_collaboration_lib3app8commands9workspace16create_workspace0B9_
FN:369,_RNCNvNtNtNtCscu9j8SGJFlb_27fireworks_collaboration_lib3app8commands9workspace17list_repositories0B9_
FN:319,_RNCNvNtNtNtCscu9j8SGJFlb_27fireworks_collaboration_lib3app8commands9workspace17remove_repository0B9_
FN:1012,_RNCNvNtNtNtCscu9j8SGJFlb_27fireworks_collaboration_lib3app8commands9workspace17restore_workspace0B9_
FN:968,_RNCNvNtNtNtCscu9j8SGJFlb_27fireworks_collaboration_lib3app8commands9workspace20get_workspace_config0B9_
FN:419,_RNCNvNtNtNtCscu9j8SGJFlb_27fireworks_collaboration_lib3app8commands9workspace20reorder_repositories0B9_
FN:713,_RNCNvNtNtNtCscu9j8SGJFlb_27fireworks_collaboration_lib3app8commands9workspace20workspace_batch_push0B9_
FN:555,_RNCNvNtNtNtCscu9j8SGJFlb_27fireworks_collaboration_lib3app8commands9workspace21workspace_batch_clone0B9_
FN:633,_RNCNvNtNtNtCscu9j8SGJFlb_27fireworks_collaboration_lib3app8commands9workspace21workspace_batch_fetch0B9_
FN:485,_RNCNvNtNtNtCscu9j8SGJFlb_27fireworks_collaboration_lib3app8commands9workspace22get_workspace_statuses0B9_
FN:898,_RNCNvNtNtNtCscu9j8SGJFlb_27fireworks_collaboration_lib3app8commands9workspace22update_repository_tags0B9_
FN:974,_RNCNvNtNtNtCscu9j8SGJFlb_27fireworks_collaboration_lib3app8commands9workspace23validate_workspace_file0B9_
FN:394,_RNCNvNtNtNtCscu9j8SGJFlb_27fireworks_collaboration_lib3app8commands9workspace25list_enabled_repositories0B9_
FN:933,_RNCNvNtNtNtCscu9j8SGJFlb_27fireworks_collaboration_lib3app8commands9workspace25toggle_repository_enabled0B9_
FN:515,_RNCNvNtNtNtCscu9j8SGJFlb_27fireworks_collaboration_lib3app8commands9workspace28clear_workspace_status_cache0B9_
FN:529,_RNCNvNtNtNtCscu9j8SGJFlb_27fireworks_collaboration_lib3app8commands9workspace33invalidate_workspace_status_entry0B9_
FN:246,_RNvNtNtNtCscu9j8SGJFlb_27fireworks_collaboration_lib3app8commands9workspace13get_workspace
FN:280,_RNvNtNtNtCscu9j8SGJFlb_27fireworks_collaboration_lib3app8commands9workspace14add_repository
FN:343,_RNvNtNtNtCscu9j8SGJFlb_27fireworks_collaboration_lib3app8commands9workspace14get_repository
FN:187,_RNvNtNtNtCscu9j8SGJFlb_27fireworks_collaboration_lib3app8commands9workspace14load_workspace
FN:886,_RNvNtNtNtCscu9j8SGJFlb_27fireworks_collaboration_lib3app8commands9workspace14path_to_string
FN:216,_RNvNtNtNtCscu9j8SGJFlb_27fireworks_collaboration_lib3app8commands9workspace14save_workspace
FN:264,_RNvNtNtNtCscu9j8SGJFlb_27fireworks_collaboration_lib3app8commands9workspace15close_workspace
FN:994,_RNvNtNtNtCscu9j8SGJFlb_27fireworks_collaboration_lib3app8commands9workspace16backup_workspace
FN:160,_RNvNtNtNtCscu9j8SGJFlb_27fireworks_collaboration_lib3app8commands9workspace16create_workspace
FN:878,_RNvNtNtNtCscu9j8SGJFlb_27fireworks_collaboration_lib3app8commands9workspace17ensure_parent_dir
FN:367,_RNvNtNtNtCscu9j8SGJFlb_27fireworks_collaboration_lib3app8commands9workspace17list_repositories
FN:316,_RNvNtNtNtCscu9j8SGJFlb_27fireworks_collaboration_lib3app8commands9workspace17remove_repository
FN:788,_RNvNtNtNtCscu9j8SGJFlb_27fireworks_collaboration_lib3app8commands9workspace17resolve_repo_path
FN:1012,_RNvNtNtNtCscu9j8SGJFlb_27fireworks_collaboration_lib3app8commands9workspace17restore_workspace
FN:823,_RNvNtNtNtCscu9j8SGJFlb_27fireworks_collaboration_lib3app8commands9workspace18parse_depth_option
FN:838,_RNvNtNtNtCscu9j8SGJFlb_27fireworks_collaboration_lib3app8commands9workspace19resolve_concurrency
FN:862,_RNvNtNtNtCscu9j8SGJFlb_27fireworks_collaboration_lib3app8commands9workspace20ensure_existing_repo
FN:968,_RNvNtNtNtCscu9j8SGJFlb_27fireworks_collaboration_lib3app8commands9workspace20get_workspace_config
FN:416,_RNvNtNtNtCscu9j8SGJFlb_27fireworks_collaboration_lib3app8commands9workspace20reorder_repositories
FN:707,_RNvNtNtNtCscu9j8SGJFlb_27fireworks_collaboration_lib3app8commands9workspace20workspace_batch_push
FN:549,_RNvNtNtNtCscu9j8SGJFlb_27fireworks_collaboration_lib3app8commands9workspace21workspace_batch_clone
FN:627,_RNvNtNtNtCscu9j8SGJFlb_27fireworks_collaboration_lib3app8commands9workspace21workspace_batch_fetch
FN:481,_RNvNtNtNtCscu9j8SGJFlb_27fireworks_collaboration_lib3app8commands9workspace22get_workspace_statuses
FN:778,_RNvNtNtNtCscu9j8SGJFlb_27fireworks_collaboration_lib3app8commands9workspace22resolve_workspace_root
FN:796,_RNvNtNtNtCscu9j8SGJFlb_27fireworks_collaboration_lib3app8commands9workspace22select_workspace_repos
FN:894,_RNvNtNtNtCscu9j8SGJFlb_27fireworks_collaboration_lib3app8commands9workspace22update_repository_tags
FN:974,_RNvNtNtNtCscu9j8SGJFlb_27fireworks_collaboration_lib3app8commands9workspace23validate_workspace_file
FN:444,_RNvNtNtNtCscu9j8SGJFlb_27fireworks_collaboration_lib3app8commands9workspace24apply_repository_reorder
FN:855,_RNvNtNtNtCscu9j8SGJFlb_27fireworks_collaboration_lib3app8commands9workspace24ensure_clone_destination
FN:392,_RNvNtNtNtCscu9j8SGJFlb_27fireworks_collaboration_lib3app8commands9workspace25list_enabled_repositories
FN:930,_RNvNtNtNtCscu9j8SGJFlb_27fireworks_collaboration_lib3app8commands9workspace25toggle_repository_enabled
FN:513,_RNvNtNtNtCscu9j8SGJFlb_27fireworks_collaboration_lib3app8commands9workspace28clear_workspace_status_cache
FN:526,_RNvNtNtNtCscu9j8SGJFlb_27fireworks_collaboration_lib3app8commands9workspace33invalidate_workspace_status_entry
FN:48,_RNvXNtNtNtCscu9j8SGJFlb_27fireworks_collaboration_lib3app8commands9workspaceNtB2_13WorkspaceInfoINtNtCs5cb5cxfFw7H_4core7convert4FromRNtNtNtNtB8_4core9workspace5model9WorkspaceE4from
FN:73,_RNvXs_NtNtNtCscu9j8SGJFlb_27fireworks_collaboration_lib3app8commands9workspaceNtB4_14RepositoryInfoINtNtCs5cb5cxfFw7H_4core7convert4FromRNtNtNtNtBa_4core9workspace5model15RepositoryEntryE4from
FN:888,_RNCNvNtNtNtCscu9j8SGJFlb_27fireworks_collaboration_lib3app8commands9workspace14path_to_string0B9_
FN:889,_RNCNvNtNtNtCscu9j8SGJFlb_27fireworks_collaboration_lib3app8commands9workspace14path_to_strings_0B9_
FN:881,_RNCNvNtNtNtCscu9j8SGJFlb_27fireworks_collaboration_lib3app8commands9workspace17ensure_parent_dir0B9_
FN:844,_RNCNvNtNtNtCscu9j8SGJFlb_27fireworks_collaboration_lib3app8commands9workspace19resolve_concurrency0B9_
FN:783,_RNCNvNtNtNtCscu9j8SGJFlb_27fireworks_collaboration_lib3app8commands9workspace22resolve_workspace_root0B9_
FN:806,_RNCNvNtNtNtCscu9j8SGJFlb_27fireworks_collaboration_lib3app8commands9workspace22select_workspace_repos0B9_
FN:817,_RNCNvNtNtNtCscu9j8SGJFlb_27fireworks_collaboration_lib3app8commands9workspace22select_workspace_reposs_0B9_
FN:457,_RNCNvNtNtNtCscu9j8SGJFlb_27fireworks_collaboration_lib3app8commands9workspace24apply_repository_reorder0B9_
FN:465,_RNCNvNtNtNtCscu9j8SGJFlb_27fireworks_collaboration_lib3app8commands9workspace24apply_repository_reorders_0B9_
FN:249,_RNCNCNvNtNtNtCsfvgE7hV3dwJ_27fireworks_collaboration_lib3app8commands9workspace13get_workspace00Bb_
FN:254,_RNCNCNvNtNtNtCsfvgE7hV3dwJ_27fireworks_collaboration_lib3app8commands9workspace13get_workspace0s_0Bb_
FN:286,_RNCNCNvNtNtNtCsfvgE7hV3dwJ_27fireworks_collaboration_lib3app8commands9workspace14add_repository00Bb_
FN:305,_RNCNCNvNtNtNtCsfvgE7hV3dwJ_27fireworks_collaboration_lib3app8commands9workspace14add_repository0s0_0Bb_
FN:291,_RNCNCNvNtNtNtCsfvgE7hV3dwJ_27fireworks_collaboration_lib3app8commands9workspace14add_repository0s_0Bb_
FN:347,_RNCNCNvNtNtNtCsfvgE7hV3dwJ_27fireworks_collaboration_lib3app8commands9workspace14get_repository00Bb_
FN:357,_RNCNCNvNtNtNtCsfvgE7hV3dwJ_27fireworks_collaboration_lib3app8commands9workspace14get_repository0s0_0Bb_
FN:352,_RNCNCNvNtNtNtCsfvgE7hV3dwJ_27fireworks_collaboration_lib3app8commands9workspace14get_repository0s_0Bb_
FN:196,_RNCNCNvNtNtNtCsfvgE7hV3dwJ_27fireworks_collaboration_lib3app8commands9workspace14load_workspace00Bb_
FN:203,_RNCNCNvNtNtNtCsfvgE7hV3dwJ_27fireworks_collaboration_lib3app8commands9workspace14load_workspace0s_0Bb_
FN:222,_RNCNCNvNtNtNtCsfvgE7hV3dwJ_27fireworks_collaboration_lib3app8commands9workspace14save_workspace00Bb_
FN:235,_RNCNCNvNtNtNtCsfvgE7hV3dwJ_27fireworks_collaboration_lib3app8commands9workspace14save_workspace0s0_0Bb_
FN:227,_RNCNCNvNtNtNtCsfvgE7hV3dwJ_27fireworks_collaboration_lib3app8commands9workspace14save_workspace0s_0Bb_
FN:267,_RNCNCNvNtNtNtCsfvgE7hV3dwJ_27fireworks_collaboration_lib3app8commands9workspace15close_workspace00Bb_
FN:1000,_RNCNCNvNtNtNtCsfvgE7hV3dwJ_27fireworks_collaboration_lib3app8commands9workspace16backup_workspace00Bb_
FN:174,_RNCNCNvNtNtNtCsfvgE7hV3dwJ_27fireworks_collaboration_lib3app8commands9workspace16create_workspace00Bb_
FN:370,_RNCNCNvNtNtNtCsfvgE7hV3dwJ_27fireworks_collaboration_lib3app8commands9workspace17list_repositories00Bb_
FN:375,_RNCNCNvNtNtNtCsfvgE7hV3dwJ_27fireworks_collaboration_lib3app8commands9workspace17list_repositories0s_0Bb_
FN:322,_RNCNCNvNtNtNtCsfvgE7hV3dwJ_27fireworks_collaboration_lib3app8commands9workspace17remove_repository00Bb_
FN:332,_RNCNCNvNtNtNtCsfvgE7hV3dwJ_27fireworks_collaboration_lib3app8commands9workspace17remove_repository0s0_0Bb_
FN:327,_RNCNCNvNtNtNtCsfvgE7hV3dwJ_27fireworks_collaboration_lib3app8commands9workspace17remove_repository0s_0Bb_
FN:1019,_RNCNCNvNtNtNtCsfvgE7hV3dwJ_27fireworks_collaboration_lib3app8commands9workspace17restore_workspace00Bb_
FN:422,_RNCNCNvNtNtNtCsfvgE7hV3dwJ_27fireworks_collaboration_lib3app8commands9workspace20reorder_repositories00Bb_
FN:427,_RNCNCNvNtNtNtCsfvgE7hV3dwJ_27fireworks_collaboration_lib3app8commands9workspace20reorder_repositories0s_0Bb_
FN:717,_RNCNCNvNtNtNtCsfvgE7hV3dwJ_27fireworks_collaboration_lib3app8commands9workspace20workspace_batch_push00Bb_
FN:721,_RNCNCNvNtNtNtCsfvgE7hV3dwJ_27fireworks_collaboration_lib3app8commands9workspace20workspace_batch_push0s_0Bb_
FN:559,_RNCNCNvNtNtNtCsfvgE7hV3dwJ_27fireworks_collaboration_lib3app8commands9workspace21workspace_batch_clone00Bb_
FN:563,_RNCNCNvNtNtNtCsfvgE7hV3dwJ_27fireworks_collaboration_lib3app8commands9workspace21workspace_batch_clone0s_0Bb_
FN:637,_RNCNCNvNtNtNtCsfvgE7hV3dwJ_27fireworks_collaboration_lib3app8commands9workspace21workspace_batch_fetch00Bb_
FN:641,_RNCNCNvNtNtNtCsfvgE7hV3dwJ_27fireworks_collaboration_lib3app8commands9workspace21workspace_batch_fetch0s_0Bb_
FN:489,_RNCNCNvNtNtNtCsfvgE7hV3dwJ_27fireworks_collaboration_lib3app8commands9workspace22get_workspace_statuses00Bb_
FN:505,_RNCNCNvNtNtNtCsfvgE7hV3dwJ_27fireworks_collaboration_lib3app8commands9workspace22get_workspace_statuses0s0_0Bb_
FN:494,_RNCNCNvNtNtNtCsfvgE7hV3dwJ_27fireworks_collaboration_lib3app8commands9workspace22get_workspace_statuses0s_0Bb_
FN:901,_RNCNCNvNtNtNtCsfvgE7hV3dwJ_27fireworks_collaboration_lib3app8commands9workspace22update_repository_tags00Bb_
FN:915,_RNCNCNvNtNtNtCsfvgE7hV3dwJ_27fireworks_collaboration_lib3app8commands9workspace22update_repository_tags0s0_0Bb_
FN:916,_RNCNCNvNtNtNtCsfvgE7hV3dwJ_27fireworks_collaboration_lib3app8commands9workspace22update_repository_tags0s1_0Bb_
FN:906,_RNCNCNvNtNtNtCsfvgE7hV3dwJ_27fireworks_collaboration_lib3app8commands9workspace22update_repository_tags0s_0Bb_
FN:395,_RNCNCNvNtNtNtCsfvgE7hV3dwJ_27fireworks_collaboration_lib3app8commands9workspace25list_enabled_repositories00Bb_
FN:408,_RNCNCNvNtNtNtCsfvgE7hV3dwJ_27fireworks_collaboration_lib3app8commands9workspace25list_enabled_repositories0s0_0Bb_
FN:400,_RNCNCNvNtNtNtCsfvgE7hV3dwJ_27fireworks_collaboration_lib3app8commands9workspace25list_enabled_repositories0s_0Bb_
FN:936,_RNCNCNvNtNtNtCsfvgE7hV3dwJ_27fireworks_collaboration_lib3app8commands9workspace25toggle_repository_enabled00Bb_
FN:950,_RNCNCNvNtNtNtCsfvgE7hV3dwJ_27fireworks_collaboration_lib3app8commands9workspace25toggle_repository_enabled0s0_0Bb_
FN:951,_RNCNCNvNtNtNtCsfvgE7hV3dwJ_27fireworks_collaboration_lib3app8commands9workspace25toggle_repository_enabled0s1_0Bb_
FN:941,_RNCNCNvNtNtNtCsfvgE7hV3dwJ_27fireworks_collaboration_lib3app8commands9workspace25toggle_repository_enabled0s_0Bb_
FN:248,_RNCNvNtNtNtCsfvgE7hV3dwJ_27fireworks_collaboration_lib3app8commands9workspace13get_workspace0B9_
FN:283,_RNCNvNtNtNtCsfvgE7hV3dwJ_27fireworks_collaboration_lib3app8commands9workspace14add_repository0B9_
FN:346,_RNCNvNtNtNtCsfvgE7hV3dwJ_27fireworks_collaboration_lib3app8commands9workspace14get_repository0B9_
FN:190,_RNCNvNtNtNtCsfvgE7hV3dwJ_27fireworks_collaboration_lib3app8commands9workspace14load_workspace0B9_
FN:888,_RNCNvNtNtNtCsfvgE7hV3dwJ_27fireworks_collaboration_lib3app8commands9workspace14path_to_string0B9_
FN:889,_RNCNvNtNtNtCsfvgE7hV3dwJ_27fireworks_collaboration_lib3app8commands9workspace14path_to_strings_0B9_
FN:219,_RNCNvNtNtNtCsfvgE7hV3dwJ_27fireworks_collaboration_lib3app8commands9workspace14save_workspace0B9_
FN:264,_RNCNvNtNtNtCsfvgE7hV3dwJ_27fireworks_collaboration_lib3app8commands9workspace15close_workspace0B9_
FN:994,_RNCNvNtNtNtCsfvgE7hV3dwJ_27fireworks_collaboration_lib3app8commands9workspace16backup_workspace0B9_
FN:163,_RNCNvNtNtNtCsfvgE7hV3dwJ_27fireworks_collaboration_lib3app8commands9workspace16create_workspace0B9_
FN:881,_RNCNvNtNtNtCsfvgE7hV3dwJ_27fireworks_collaboration_lib3app8commands9workspace17ensure_parent_dir0B9_
FN:369,_RNCNvNtNtNtCsfvgE7hV3dwJ_27fireworks_collaboration_lib3app8commands9workspace17list_repositories0B9_
FN:319,_RNCNvNtNtNtCsfvgE7hV3dwJ_27fireworks_collaboration_lib3app8commands9workspace17remove_repository0B9_
FN:1012,_RNCNvNtNtNtCsfvgE7hV3dwJ_27fireworks_collaboration_lib3app8commands9workspace17restore_workspace0B9_
FN:844,_RNCNvNtNtNtCsfvgE7hV3dwJ_27fireworks_collaboration_lib3app8commands9workspace19resolve_concurrency0B9_
FN:968,_RNCNvNtNtNtCsfvgE7hV3dwJ_27fireworks_collaboration_lib3app8commands9workspace20get_workspace_config0B9_
FN:419,_RNCNvNtNtNtCsfvgE7hV3dwJ_27fireworks_collaboration_lib3app8commands9workspace20reorder_repositories0B9_
FN:713,_RNCNvNtNtNtCsfvgE7hV3dwJ_27fireworks_collaboration_lib3app8commands9workspace20workspace_batch_push0B9_
FN:555,_RNCNvNtNtNtCsfvgE7hV3dwJ_27fireworks_collaboration_lib3app8commands9workspace21workspace_batch_clone0B9_
FN:633,_RNCNvNtNtNtCsfvgE7hV3dwJ_27fireworks_collaboration_lib3app8commands9workspace21workspace_batch_fetch0B9_
FN:485,_RNCNvNtNtNtCsfvgE7hV3dwJ_27fireworks_collaboration_lib3app8commands9workspace22get_workspace_statuses0B9_
FN:783,_RNCNvNtNtNtCsfvgE7hV3dwJ_27fireworks_collaboration_lib3app8commands9workspace22resolve_workspace_root0B9_
FN:806,_RNCNvNtNtNtCsfvgE7hV3dwJ_27fireworks_collaboration_lib3app8commands9workspace22select_workspace_repos0B9_
FN:817,_RNCNvNtNtNtCsfvgE7hV3dwJ_27fireworks_collaboration_lib3app8commands9workspace22select_workspace_reposs_0B9_
FN:898,_RNCNvNtNtNtCsfvgE7hV3dwJ_27fireworks_collaboration_lib3app8commands9workspace22update_repository_tags0B9_
FN:974,_RNCNvNtNtNtCsfvgE7hV3dwJ_27fireworks_collaboration_lib3app8commands9workspace23validate_workspace_file0B9_
FN:457,_RNCNvNtNtNtCsfvgE7hV3dwJ_27fireworks_collaboration_lib3app8commands9workspace24apply_repository_reorder0B9_
FN:465,_RNCNvNtNtNtCsfvgE7hV3dwJ_27fireworks_collaboration_lib3app8commands9workspace24apply_repository_reorders_0B9_
FN:394,_RNCNvNtNtNtCsfvgE7hV3dwJ_27fireworks_collaboration_lib3app8commands9workspace25list_enabled_repositories0B9_
FN:933,_RNCNvNtNtNtCsfvgE7hV3dwJ_27fireworks_collaboration_lib3app8commands9workspace25toggle_repository_enabled0B9_
FN:515,_RNCNvNtNtNtCsfvgE7hV3dwJ_27fireworks_collaboration_lib3app8commands9workspace28clear_workspace_status_cache0B9_
FN:529,_RNCNvNtNtNtCsfvgE7hV3dwJ_27fireworks_collaboration_lib3app8commands9workspace33invalidate_workspace_status_entry0B9_
FN:246,_RNvNtNtNtCsfvgE7hV3dwJ_27fireworks_collaboration_lib3app8commands9workspace13get_workspace
FN:280,_RNvNtNtNtCsfvgE7hV3dwJ_27fireworks_collaboration_lib3app8commands9workspace14add_repository
FN:343,_RNvNtNtNtCsfvgE7hV3dwJ_27fireworks_collaboration_lib3app8commands9workspace14get_repository
FN:187,_RNvNtNtNtCsfvgE7hV3dwJ_27fireworks_collaboration_lib3app8commands9workspace14load_workspace
FN:886,_RNvNtNtNtCsfvgE7hV3dwJ_27fireworks_collaboration_lib3app8commands9workspace14path_to_string
FN:216,_RNvNtNtNtCsfvgE7hV3dwJ_27fireworks_collaboration_lib3app8commands9workspace14save_workspace
FN:264,_RNvNtNtNtCsfvgE7hV3dwJ_27fireworks_collaboration_lib3app8commands9workspace15close_workspace
FN:994,_RNvNtNtNtCsfvgE7hV3dwJ_27fireworks_collaboration_lib3app8commands9workspace16backup_workspace
FN:160,_RNvNtNtNtCsfvgE7hV3dwJ_27fireworks_collaboration_lib3app8commands9workspace16create_workspace
FN:878,_RNvNtNtNtCsfvgE7hV3dwJ_27fireworks_collaboration_lib3app8commands9workspace17ensure_parent_dir
FN:367,_RNvNtNtNtCsfvgE7hV3dwJ_27fireworks_collaboration_lib3app8commands9workspace17list_repositories
FN:316,_RNvNtNtNtCsfvgE7hV3dwJ_27fireworks_collaboration_lib3app8commands9workspace17remove_repository
FN:788,_RNvNtNtNtCsfvgE7hV3dwJ_27fireworks_collaboration_lib3app8commands9workspace17resolve_repo_path
FN:1012,_RNvNtNtNtCsfvgE7hV3dwJ_27fireworks_collaboration_lib3app8commands9workspace17restore_workspace
FN:823,_RNvNtNtNtCsfvgE7hV3dwJ_27fireworks_collaboration_lib3app8commands9workspace18parse_depth_option
FN:838,_RNvNtNtNtCsfvgE7hV3dwJ_27fireworks_collaboration_lib3app8commands9workspace19resolve_concurrency
FN:862,_RNvNtNtNtCsfvgE7hV3dwJ_27fireworks_collaboration_lib3app8commands9workspace20ensure_existing_repo
FN:968,_RNvNtNtNtCsfvgE7hV3dwJ_27fireworks_collaboration_lib3app8commands9workspace20get_workspace_config
FN:416,_RNvNtNtNtCsfvgE7hV3dwJ_27fireworks_collaboration_lib3app8commands9workspace20reorder_repositories
FN:707,_RNvNtNtNtCsfvgE7hV3dwJ_27fireworks_collaboration_lib3app8commands9workspace20workspace_batch_push
FN:549,_RNvNtNtNtCsfvgE7hV3dwJ_27fireworks_collaboration_lib3app8commands9workspace21workspace_batch_clone
FN:627,_RNvNtNtNtCsfvgE7hV3dwJ_27fireworks_collaboration_lib3app8commands9workspace21workspace_batch_fetch
FN:481,_RNvNtNtNtCsfvgE7hV3dwJ_27fireworks_collaboration_lib3app8commands9workspace22get_workspace_statuses
FN:778,_RNvNtNtNtCsfvgE7hV3dwJ_27fireworks_collaboration_lib3app8commands9workspace22resolve_workspace_root
FN:796,_RNvNtNtNtCsfvgE7hV3dwJ_27fireworks_collaboration_lib3app8commands9workspace22select_workspace_repos
FN:894,_RNvNtNtNtCsfvgE7hV3dwJ_27fireworks_collaboration_lib3app8commands9workspace22update_repository_tags
FN:974,_RNvNtNtNtCsfvgE7hV3dwJ_27fireworks_collaboration_lib3app8commands9workspace23validate_workspace_file
FN:444,_RNvNtNtNtCsfvgE7hV3dwJ_27fireworks_collaboration_lib3app8commands9workspace24apply_repository_reorder
FN:855,_RNvNtNtNtCsfvgE7hV3dwJ_27fireworks_collaboration_lib3app8commands9workspace24ensure_clone_destination
FN:392,_RNvNtNtNtCsfvgE7hV3dwJ_27fireworks_collaboration_lib3app8commands9workspace25list_enabled_repositories
FN:930,_RNvNtNtNtCsfvgE7hV3dwJ_27fireworks_collaboration_lib3app8commands9workspace25toggle_repository_enabled
FN:513,_RNvNtNtNtCsfvgE7hV3dwJ_27fireworks_collaboration_lib3app8commands9workspace28clear_workspace_status_cache
FN:526,_RNvNtNtNtCsfvgE7hV3dwJ_27fireworks_collaboration_lib3app8commands9workspace33invalidate_workspace_status_entry
FN:48,_RNvXNtNtNtCsfvgE7hV3dwJ_27fireworks_collaboration_lib3app8commands9workspaceNtB2_13WorkspaceInfoINtNtCs5cb5cxfFw7H_4core7convert4FromRNtNtNtNtB8_4core9workspace5model9WorkspaceE4from
FN:73,_RNvXs_NtNtNtCsfvgE7hV3dwJ_27fireworks_collaboration_lib3app8commands9workspaceNtB4_14RepositoryInfoINtNtCs5cb5cxfFw7H_4core7convert4FromRNtNtNtNtBa_4core9workspace5model15RepositoryEntryE4from
FNDA:0,_RNCNCNvNtNtNtCscu9j8SGJFlb_27fireworks_collaboration_lib3app8commands9workspace13get_workspace00Bb_
FNDA:0,_RNCNCNvNtNtNtCscu9j8SGJFlb_27fireworks_collaboration_lib3app8commands9workspace13get_workspace0s_0Bb_
FNDA:0,_RNCNCNvNtNtNtCscu9j8SGJFlb_27fireworks_collaboration_lib3app8commands9workspace14add_repository00Bb_
FNDA:0,_RNCNCNvNtNtNtCscu9j8SGJFlb_27fireworks_collaboration_lib3app8commands9workspace14add_repository0s0_0Bb_
FNDA:0,_RNCNCNvNtNtNtCscu9j8SGJFlb_27fireworks_collaboration_lib3app8commands9workspace14add_repository0s_0Bb_
FNDA:0,_RNCNCNvNtNtNtCscu9j8SGJFlb_27fireworks_collaboration_lib3app8commands9workspace14get_repository00Bb_
FNDA:0,_RNCNCNvNtNtNtCscu9j8SGJFlb_27fireworks_collaboration_lib3app8commands9workspace14get_repository0s0_0Bb_
FNDA:0,_RNCNCNvNtNtNtCscu9j8SGJFlb_27fireworks_collaboration_lib3app8commands9workspace14get_repository0s_0Bb_
FNDA:0,_RNCNCNvNtNtNtCscu9j8SGJFlb_27fireworks_collaboration_lib3app8commands9workspace14load_workspace00Bb_
FNDA:0,_RNCNCNvNtNtNtCscu9j8SGJFlb_27fireworks_collaboration_lib3app8commands9workspace14load_workspace0s_0Bb_
FNDA:0,_RNCNCNvNtNtNtCscu9j8SGJFlb_27fireworks_collaboration_lib3app8commands9workspace14save_workspace00Bb_
FNDA:0,_RNCNCNvNtNtNtCscu9j8SGJFlb_27fireworks_collaboration_lib3app8commands9workspace14save_workspace0s0_0Bb_
FNDA:0,_RNCNCNvNtNtNtCscu9j8SGJFlb_27fireworks_collaboration_lib3app8commands9workspace14save_workspace0s_0Bb_
FNDA:0,_RNCNCNvNtNtNtCscu9j8SGJFlb_27fireworks_collaboration_lib3app8commands9workspace15close_workspace00Bb_
FNDA:0,_RNCNCNvNtNtNtCscu9j8SGJFlb_27fireworks_collaboration_lib3app8commands9workspace16backup_workspace00Bb_
FNDA:0,_RNCNCNvNtNtNtCscu9j8SGJFlb_27fireworks_collaboration_lib3app8commands9workspace16create_workspace00Bb_
FNDA:0,_RNCNCNvNtNtNtCscu9j8SGJFlb_27fireworks_collaboration_lib3app8commands9workspace17list_repositories00Bb_
FNDA:0,_RNCNCNvNtNtNtCscu9j8SGJFlb_27fireworks_collaboration_lib3app8commands9workspace17list_repositories0s_0Bb_
FNDA:0,_RNCNCNvNtNtNtCscu9j8SGJFlb_27fireworks_collaboration_lib3app8commands9workspace17remove_repository00Bb_
FNDA:0,_RNCNCNvNtNtNtCscu9j8SGJFlb_27fireworks_collaboration_lib3app8commands9workspace17remove_repository0s0_0Bb_
FNDA:0,_RNCNCNvNtNtNtCscu9j8SGJFlb_27fireworks_collaboration_lib3app8commands9workspace17remove_repository0s_0Bb_
FNDA:0,_RNCNCNvNtNtNtCscu9j8SGJFlb_27fireworks_collaboration_lib3app8commands9workspace17restore_workspace00Bb_
FNDA:0,_RNCNCNvNtNtNtCscu9j8SGJFlb_27fireworks_collaboration_lib3app8commands9workspace20reorder_repositories00Bb_
FNDA:0,_RNCNCNvNtNtNtCscu9j8SGJFlb_27fireworks_collaboration_lib3app8commands9workspace20reorder_repositories0s_0Bb_
FNDA:0,_RNCNCNvNtNtNtCscu9j8SGJFlb_27fireworks_collaboration_lib3app8commands9workspace20workspace_batch_push00Bb_
FNDA:0,_RNCNCNvNtNtNtCscu9j8SGJFlb_27fireworks_collaboration_lib3app8commands9workspace20workspace_batch_push0s_0Bb_
FNDA:0,_RNCNCNvNtNtNtCscu9j8SGJFlb_27fireworks_collaboration_lib3app8commands9workspace21workspace_batch_clone00Bb_
FNDA:0,_RNCNCNvNtNtNtCscu9j8SGJFlb_27fireworks_collaboration_lib3app8commands9workspace21workspace_batch_clone0s_0Bb_
FNDA:0,_RNCNCNvNtNtNtCscu9j8SGJFlb_27fireworks_collaboration_lib3app8commands9workspace21workspace_batch_fetch00Bb_
FNDA:0,_RNCNCNvNtNtNtCscu9j8SGJFlb_27fireworks_collaboration_lib3app8commands9workspace21workspace_batch_fetch0s_0Bb_
FNDA:0,_RNCNCNvNtNtNtCscu9j8SGJFlb_27fireworks_collaboration_lib3app8commands9workspace22get_workspace_statuses00Bb_
FNDA:0,_RNCNCNvNtNtNtCscu9j8SGJFlb_27fireworks_collaboration_lib3app8commands9workspace22get_workspace_statuses0s0_0Bb_
FNDA:0,_RNCNCNvNtNtNtCscu9j8SGJFlb_27fireworks_collaboration_lib3app8commands9workspace22get_workspace_statuses0s_0Bb_
FNDA:0,_RNCNCNvNtNtNtCscu9j8SGJFlb_27fireworks_collaboration_lib3app8commands9workspace22update_repository_tags00Bb_
FNDA:0,_RNCNCNvNtNtNtCscu9j8SGJFlb_27fireworks_collaboration_lib3app8commands9workspace22update_repository_tags0s0_0Bb_
FNDA:0,_RNCNCNvNtNtNtCscu9j8SGJFlb_27fireworks_collaboration_lib3app8commands9workspace22update_repository_tags0s1_0Bb_
FNDA:0,_RNCNCNvNtNtNtCscu9j8SGJFlb_27fireworks_collaboration_lib3app8commands9workspace22update_repository_tags0s_0Bb_
FNDA:0,_RNCNCNvNtNtNtCscu9j8SGJFlb_27fireworks_collaboration_lib3app8commands9workspace25list_enabled_repositories00Bb_
FNDA:0,_RNCNCNvNtNtNtCscu9j8SGJFlb_27fireworks_collaboration_lib3app8commands9workspace25list_enabled_repositories0s0_0Bb_
FNDA:0,_RNCNCNvNtNtNtCscu9j8SGJFlb_27fireworks_collaboration_lib3app8commands9workspace25list_enabled_repositories0s_0Bb_
FNDA:0,_RNCNCNvNtNtNtCscu9j8SGJFlb_27fireworks_collaboration_lib3app8commands9workspace25toggle_repository_enabled00Bb_
FNDA:0,_RNCNCNvNtNtNtCscu9j8SGJFlb_27fireworks_collaboration_lib3app8commands9workspace25toggle_repository_enabled0s0_0Bb_
FNDA:0,_RNCNCNvNtNtNtCscu9j8SGJFlb_27fireworks_collaboration_lib3app8commands9workspace25toggle_repository_enabled0s1_0Bb_
FNDA:0,_RNCNCNvNtNtNtCscu9j8SGJFlb_27fireworks_collaboration_lib3app8commands9workspace25toggle_repository_enabled0s_0Bb_
FNDA:0,_RNCNvNtNtNtCscu9j8SGJFlb_27fireworks_collaboration_lib3app8commands9workspace13get_workspace0B9_
FNDA:0,_RNCNvNtNtNtCscu9j8SGJFlb_27fireworks_collaboration_lib3app8commands9workspace14add_repository0B9_
FNDA:0,_RNCNvNtNtNtCscu9j8SGJFlb_27fireworks_collaboration_lib3app8commands9workspace14get_repository0B9_
FNDA:0,_RNCNvNtNtNtCscu9j8SGJFlb_27fireworks_collaboration_lib3app8commands9workspace14load_workspace0B9_
FNDA:0,_RNCNvNtNtNtCscu9j8SGJFlb_27fireworks_collaboration_lib3app8commands9workspace14save_workspace0B9_
FNDA:0,_RNCNvNtNtNtCscu9j8SGJFlb_27fireworks_collaboration_lib3app8commands9workspace15close_workspace0B9_
FNDA:0,_RNCNvNtNtNtCscu9j8SGJFlb_27fireworks_collaboration_lib3app8commands9workspace16backup_workspace0B9_
FNDA:0,_RNCNvNtNtNtCscu9j8SGJFlb_27fireworks_collaboration_lib3app8commands9workspace16create_workspace0B9_
FNDA:0,_RNCNvNtNtNtCscu9j8SGJFlb_27fireworks_collaboration_lib3app8commands9workspace17list_repositories0B9_
FNDA:0,_RNCNvNtNtNtCscu9j8SGJFlb_27fireworks_collaboration_lib3app8commands9workspace17remove_repository0B9_
FNDA:0,_RNCNvNtNtNtCscu9j8SGJFlb_27fireworks_collaboration_lib3app8commands9workspace17restore_workspace0B9_
FNDA:0,_RNCNvNtNtNtCscu9j8SGJFlb_27fireworks_collaboration_lib3app8commands9workspace20get_workspace_config0B9_
FNDA:0,_RNCNvNtNtNtCscu9j8SGJFlb_27fireworks_collaboration_lib3app8commands9workspace20reorder_repositories0B9_
FNDA:0,_RNCNvNtNtNtCscu9j8SGJFlb_27fireworks_collaboration_lib3app8commands9workspace20workspace_batch_push0B9_
FNDA:0,_RNCNvNtNtNtCscu9j8SGJFlb_27fireworks_collaboration_lib3app8commands9workspace21workspace_batch_clone0B9_
FNDA:0,_RNCNvNtNtNtCscu9j8SGJFlb_27fireworks_collaboration_lib3app8commands9workspace21workspace_batch_fetch0B9_
FNDA:0,_RNCNvNtNtNtCscu9j8SGJFlb_27fireworks_collaboration_lib3app8commands9workspace22get_workspace_statuses0B9_
FNDA:0,_RNCNvNtNtNtCscu9j8SGJFlb_27fireworks_collaboration_lib3app8commands9workspace22update_repository_tags0B9_
FNDA:0,_RNCNvNtNtNtCscu9j8SGJFlb_27fireworks_collaboration_lib3app8commands9workspace23validate_workspace_file0B9_
FNDA:0,_RNCNvNtNtNtCscu9j8SGJFlb_27fireworks_collaboration_lib3app8commands9workspace25list_enabled_repositories0B9_
FNDA:0,_RNCNvNtNtNtCscu9j8SGJFlb_27fireworks_collaboration_lib3app8commands9workspace25toggle_repository_enabled0B9_
FNDA:0,_RNCNvNtNtNtCscu9j8SGJFlb_27fireworks_collaboration_lib3app8commands9workspace28clear_workspace_status_cache0B9_
FNDA:0,_RNCNvNtNtNtCscu9j8SGJFlb_27fireworks_collaboration_lib3app8commands9workspace33invalidate_workspace_status_entry0B9_
FNDA:0,_RNvNtNtNtCscu9j8SGJFlb_27fireworks_collaboration_lib3app8commands9workspace13get_workspace
FNDA:0,_RNvNtNtNtCscu9j8SGJFlb_27fireworks_collaboration_lib3app8commands9workspace14add_repository
FNDA:0,_RNvNtNtNtCscu9j8SGJFlb_27fireworks_collaboration_lib3app8commands9workspace14get_repository
FNDA:0,_RNvNtNtNtCscu9j8SGJFlb_27fireworks_collaboration_lib3app8commands9workspace14load_workspace
FNDA:0,_RNvNtNtNtCscu9j8SGJFlb_27fireworks_collaboration_lib3app8commands9workspace14path_to_string
FNDA:0,_RNvNtNtNtCscu9j8SGJFlb_27fireworks_collaboration_lib3app8commands9workspace14save_workspace
FNDA:0,_RNvNtNtNtCscu9j8SGJFlb_27fireworks_collaboration_lib3app8commands9workspace15close_workspace
FNDA:0,_RNvNtNtNtCscu9j8SGJFlb_27fireworks_collaboration_lib3app8commands9workspace16backup_workspace
FNDA:0,_RNvNtNtNtCscu9j8SGJFlb_27fireworks_collaboration_lib3app8commands9workspace16create_workspace
FNDA:0,_RNvNtNtNtCscu9j8SGJFlb_27fireworks_collaboration_lib3app8commands9workspace17ensure_parent_dir
FNDA:0,_RNvNtNtNtCscu9j8SGJFlb_27fireworks_collaboration_lib3app8commands9workspace17list_repositories
FNDA:0,_RNvNtNtNtCscu9j8SGJFlb_27fireworks_collaboration_lib3app8commands9workspace17remove_repository
FNDA:0,_RNvNtNtNtCscu9j8SGJFlb_27fireworks_collaboration_lib3app8commands9workspace17resolve_repo_path
FNDA:0,_RNvNtNtNtCscu9j8SGJFlb_27fireworks_collaboration_lib3app8commands9workspace17restore_workspace
FNDA:0,_RNvNtNtNtCscu9j8SGJFlb_27fireworks_collaboration_lib3app8commands9workspace18parse_depth_option
FNDA:0,_RNvNtNtNtCscu9j8SGJFlb_27fireworks_collaboration_lib3app8commands9workspace19resolve_concurrency
FNDA:0,_RNvNtNtNtCscu9j8SGJFlb_27fireworks_collaboration_lib3app8commands9workspace20ensure_existing_repo
FNDA:0,_RNvNtNtNtCscu9j8SGJFlb_27fireworks_collaboration_lib3app8commands9workspace20get_workspace_config
FNDA:0,_RNvNtNtNtCscu9j8SGJFlb_27fireworks_collaboration_lib3app8commands9workspace20reorder_repositories
FNDA:0,_RNvNtNtNtCscu9j8SGJFlb_27fireworks_collaboration_lib3app8commands9workspace20workspace_batch_push
FNDA:0,_RNvNtNtNtCscu9j8SGJFlb_27fireworks_collaboration_lib3app8commands9workspace21workspace_batch_clone
FNDA:0,_RNvNtNtNtCscu9j8SGJFlb_27fireworks_collaboration_lib3app8commands9workspace21workspace_batch_fetch
FNDA:0,_RNvNtNtNtCscu9j8SGJFlb_27fireworks_collaboration_lib3app8commands9workspace22get_workspace_statuses
FNDA:0,_RNvNtNtNtCscu9j8SGJFlb_27fireworks_collaboration_lib3app8commands9workspace22resolve_workspace_root
FNDA:0,_RNvNtNtNtCscu9j8SGJFlb_27fireworks_collaboration_lib3app8commands9workspace22select_workspace_repos
FNDA:0,_RNvNtNtNtCscu9j8SGJFlb_27fireworks_collaboration_lib3app8commands9workspace22update_repository_tags
FNDA:0,_RNvNtNtNtCscu9j8SGJFlb_27fireworks_collaboration_lib3app8commands9workspace23validate_workspace_file
FNDA:5,_RNvNtNtNtCscu9j8SGJFlb_27fireworks_collaboration_lib3app8commands9workspace24apply_repository_reorder
FNDA:0,_RNvNtNtNtCscu9j8SGJFlb_27fireworks_collaboration_lib3app8commands9workspace24ensure_clone_destination
FNDA:0,_RNvNtNtNtCscu9j8SGJFlb_27fireworks_collaboration_lib3app8commands9workspace25list_enabled_repositories
FNDA:0,_RNvNtNtNtCscu9j8SGJFlb_27fireworks_collaboration_lib3app8commands9workspace25toggle_repository_enabled
FNDA:0,_RNvNtNtNtCscu9j8SGJFlb_27fireworks_collaboration_lib3app8commands9workspace28clear_workspace_status_cache
FNDA:0,_RNvNtNtNtCscu9j8SGJFlb_27fireworks_collaboration_lib3app8commands9workspace33invalidate_workspace_status_entry
FNDA:3,_RNvXNtNtNtCscu9j8SGJFlb_27fireworks_collaboration_lib3app8commands9workspaceNtB2_13WorkspaceInfoINtNtCs5cb5cxfFw7H_4core7convert4FromRNtNtNtNtB8_4core9workspace5model9WorkspaceE4from
FNDA:8,_RNvXs_NtNtNtCscu9j8SGJFlb_27fireworks_collaboration_lib3app8commands9workspaceNtB4_14RepositoryInfoINtNtCs5cb5cxfFw7H_4core7convert4FromRNtNtNtNtBa_4core9workspace5model15RepositoryEntryE4from
FNDA:0,_RNCNvNtNtNtCscu9j8SGJFlb_27fireworks_collaboration_lib3app8commands9workspace14path_to_string0B9_
FNDA:0,_RNCNvNtNtNtCscu9j8SGJFlb_27fireworks_collaboration_lib3app8commands9workspace14path_to_strings_0B9_
FNDA:0,_RNCNvNtNtNtCscu9j8SGJFlb_27fireworks_collaboration_lib3app8commands9workspace17ensure_parent_dir0B9_
FNDA:0,_RNCNvNtNtNtCscu9j8SGJFlb_27fireworks_collaboration_lib3app8commands9workspace19resolve_concurrency0B9_
FNDA:0,_RNCNvNtNtNtCscu9j8SGJFlb_27fireworks_collaboration_lib3app8commands9workspace22resolve_workspace_root0B9_
FNDA:0,_RNCNvNtNtNtCscu9j8SGJFlb_27fireworks_collaboration_lib3app8commands9workspace22select_workspace_repos0B9_
FNDA:0,_RNCNvNtNtNtCscu9j8SGJFlb_27fireworks_collaboration_lib3app8commands9workspace22select_workspace_reposs_0B9_
FNDA:11,_RNCNvNtNtNtCscu9j8SGJFlb_27fireworks_collaboration_lib3app8commands9workspace24apply_repository_reorder0B9_
FNDA:7,_RNCNvNtNtNtCscu9j8SGJFlb_27fireworks_collaboration_lib3app8commands9workspace24apply_repository_reorders_0B9_
FNDA:0,_RNCNCNvNtNtNtCsfvgE7hV3dwJ_27fireworks_collaboration_lib3app8commands9workspace13get_workspace00Bb_
FNDA:0,_RNCNCNvNtNtNtCsfvgE7hV3dwJ_27fireworks_collaboration_lib3app8commands9workspace13get_workspace0s_0Bb_
FNDA:0,_RNCNCNvNtNtNtCsfvgE7hV3dwJ_27fireworks_collaboration_lib3app8commands9workspace14add_repository00Bb_
FNDA:0,_RNCNCNvNtNtNtCsfvgE7hV3dwJ_27fireworks_collaboration_lib3app8commands9workspace14add_repository0s0_0Bb_
FNDA:0,_RNCNCNvNtNtNtCsfvgE7hV3dwJ_27fireworks_collaboration_lib3app8commands9workspace14add_repository0s_0Bb_
FNDA:0,_RNCNCNvNtNtNtCsfvgE7hV3dwJ_27fireworks_collaboration_lib3app8commands9workspace14get_repository00Bb_
FNDA:0,_RNCNCNvNtNtNtCsfvgE7hV3dwJ_27fireworks_collaboration_lib3app8commands9workspace14get_repository0s0_0Bb_
FNDA:0,_RNCNCNvNtNtNtCsfvgE7hV3dwJ_27fireworks_collaboration_lib3app8commands9workspace14get_repository0s_0Bb_
FNDA:0,_RNCNCNvNtNtNtCsfvgE7hV3dwJ_27fireworks_collaboration_lib3app8commands9workspace14load_workspace00Bb_
FNDA:0,_RNCNCNvNtNtNtCsfvgE7hV3dwJ_27fireworks_collaboration_lib3app8commands9workspace14load_workspace0s_0Bb_
FNDA:0,_RNCNCNvNtNtNtCsfvgE7hV3dwJ_27fireworks_collaboration_lib3app8commands9workspace14save_workspace00Bb_
FNDA:0,_RNCNCNvNtNtNtCsfvgE7hV3dwJ_27fireworks_collaboration_lib3app8commands9workspace14save_workspace0s0_0Bb_
FNDA:0,_RNCNCNvNtNtNtCsfvgE7hV3dwJ_27fireworks_collaboration_lib3app8commands9workspace14save_workspace0s_0Bb_
FNDA:0,_RNCNCNvNtNtNtCsfvgE7hV3dwJ_27fireworks_collaboration_lib3app8commands9workspace15close_workspace00Bb_
FNDA:0,_RNCNCNvNtNtNtCsfvgE7hV3dwJ_27fireworks_collaboration_lib3app8commands9workspace16backup_workspace00Bb_
FNDA:0,_RNCNCNvNtNtNtCsfvgE7hV3dwJ_27fireworks_collaboration_lib3app8commands9workspace16create_workspace00Bb_
FNDA:0,_RNCNCNvNtNtNtCsfvgE7hV3dwJ_27fireworks_collaboration_lib3app8commands9workspace17list_repositories00Bb_
FNDA:0,_RNCNCNvNtNtNtCsfvgE7hV3dwJ_27fireworks_collaboration_lib3app8commands9workspace17list_repositories0s_0Bb_
FNDA:0,_RNCNCNvNtNtNtCsfvgE7hV3dwJ_27fireworks_collaboration_lib3app8commands9workspace17remove_repository00Bb_
FNDA:0,_RNCNCNvNtNtNtCsfvgE7hV3dwJ_27fireworks_collaboration_lib3app8commands9workspace17remove_repository0s0_0Bb_
FNDA:0,_RNCNCNvNtNtNtCsfvgE7hV3dwJ_27fireworks_collaboration_lib3app8commands9workspace17remove_repository0s_0Bb_
FNDA:0,_RNCNCNvNtNtNtCsfvgE7hV3dwJ_27fireworks_collaboration_lib3app8commands9workspace17restore_workspace00Bb_
FNDA:0,_RNCNCNvNtNtNtCsfvgE7hV3dwJ_27fireworks_collaboration_lib3app8commands9workspace20reorder_repositories00Bb_
FNDA:0,_RNCNCNvNtNtNtCsfvgE7hV3dwJ_27fireworks_collaboration_lib3app8commands9workspace20reorder_repositories0s_0Bb_
FNDA:0,_RNCNCNvNtNtNtCsfvgE7hV3dwJ_27fireworks_collaboration_lib3app8commands9workspace20workspace_batch_push00Bb_
FNDA:0,_RNCNCNvNtNtNtCsfvgE7hV3dwJ_27fireworks_collaboration_lib3app8commands9workspace20workspace_batch_push0s_0Bb_
FNDA:0,_RNCNCNvNtNtNtCsfvgE7hV3dwJ_27fireworks_collaboration_lib3app8commands9workspace21workspace_batch_clone00Bb_
FNDA:0,_RNCNCNvNtNtNtCsfvgE7hV3dwJ_27fireworks_collaboration_lib3app8commands9workspace21workspace_batch_clone0s_0Bb_
FNDA:0,_RNCNCNvNtNtNtCsfvgE7hV3dwJ_27fireworks_collaboration_lib3app8commands9workspace21workspace_batch_fetch00Bb_
FNDA:0,_RNCNCNvNtNtNtCsfvgE7hV3dwJ_27fireworks_collaboration_lib3app8commands9workspace21workspace_batch_fetch0s_0Bb_
FNDA:0,_RNCNCNvNtNtNtCsfvgE7hV3dwJ_27fireworks_collaboration_lib3app8commands9workspace22get_workspace_statuses00Bb_
FNDA:0,_RNCNCNvNtNtNtCsfvgE7hV3dwJ_27fireworks_collaboration_lib3app8commands9workspace22get_workspace_statuses0s0_0Bb_
FNDA:0,_RNCNCNvNtNtNtCsfvgE7hV3dwJ_27fireworks_collaboration_lib3app8commands9workspace22get_workspace_statuses0s_0Bb_
FNDA:0,_RNCNCNvNtNtNtCsfvgE7hV3dwJ_27fireworks_collaboration_lib3app8commands9workspace22update_repository_tags00Bb_
FNDA:0,_RNCNCNvNtNtNtCsfvgE7hV3dwJ_27fireworks_collaboration_lib3app8commands9workspace22update_repository_tags0s0_0Bb_
FNDA:0,_RNCNCNvNtNtNtCsfvgE7hV3dwJ_27fireworks_collaboration_lib3app8commands9workspace22update_repository_tags0s1_0Bb_
FNDA:0,_RNCNCNvNtNtNtCsfvgE7hV3dwJ_27fireworks_collaboration_lib3app8commands9workspace22update_repository_tags0s_0Bb_
FNDA:0,_RNCNCNvNtNtNtCsfvgE7hV3dwJ_27fireworks_collaboration_lib3app8commands9workspace25list_enabled_repositories00Bb_
FNDA:0,_RNCNCNvNtNtNtCsfvgE7hV3dwJ_27fireworks_collaboration_lib3app8commands9workspace25list_enabled_repositories0s0_0Bb_
FNDA:0,_RNCNCNvNtNtNtCsfvgE7hV3dwJ_27fireworks_collaboration_lib3app8commands9workspace25list_enabled_repositories0s_0Bb_
FNDA:0,_RNCNCNvNtNtNtCsfvgE7hV3dwJ_27fireworks_collaboration_lib3app8commands9workspace25toggle_repository_enabled00Bb_
FNDA:0,_RNCNCNvNtNtNtCsfvgE7hV3dwJ_27fireworks_collaboration_lib3app8commands9workspace25toggle_repository_enabled0s0_0Bb_
FNDA:0,_RNCNCNvNtNtNtCsfvgE7hV3dwJ_27fireworks_collaboration_lib3app8commands9workspace25toggle_repository_enabled0s1_0Bb_
FNDA:0,_RNCNCNvNtNtNtCsfvgE7hV3dwJ_27fireworks_collaboration_lib3app8commands9workspace25toggle_repository_enabled0s_0Bb_
FNDA:0,_RNCNvNtNtNtCsfvgE7hV3dwJ_27fireworks_collaboration_lib3app8commands9workspace13get_workspace0B9_
FNDA:0,_RNCNvNtNtNtCsfvgE7hV3dwJ_27fireworks_collaboration_lib3app8commands9workspace14add_repository0B9_
FNDA:0,_RNCNvNtNtNtCsfvgE7hV3dwJ_27fireworks_collaboration_lib3app8commands9workspace14get_repository0B9_
FNDA:0,_RNCNvNtNtNtCsfvgE7hV3dwJ_27fireworks_collaboration_lib3app8commands9workspace14load_workspace0B9_
FNDA:0,_RNCNvNtNtNtCsfvgE7hV3dwJ_27fireworks_collaboration_lib3app8commands9workspace14path_to_string0B9_
FNDA:0,_RNCNvNtNtNtCsfvgE7hV3dwJ_27fireworks_collaboration_lib3app8commands9workspace14path_to_strings_0B9_
FNDA:0,_RNCNvNtNtNtCsfvgE7hV3dwJ_27fireworks_collaboration_lib3app8commands9workspace14save_workspace0B9_
FNDA:0,_RNCNvNtNtNtCsfvgE7hV3dwJ_27fireworks_collaboration_lib3app8commands9workspace15close_workspace0B9_
FNDA:0,_RNCNvNtNtNtCsfvgE7hV3dwJ_27fireworks_collaboration_lib3app8commands9workspace16backup_workspace0B9_
FNDA:0,_RNCNvNtNtNtCsfvgE7hV3dwJ_27fireworks_collaboration_lib3app8commands9workspace16create_workspace0B9_
FNDA:0,_RNCNvNtNtNtCsfvgE7hV3dwJ_27fireworks_collaboration_lib3app8commands9workspace17ensure_parent_dir0B9_
FNDA:0,_RNCNvNtNtNtCsfvgE7hV3dwJ_27fireworks_collaboration_lib3app8commands9workspace17list_repositories0B9_
FNDA:0,_RNCNvNtNtNtCsfvgE7hV3dwJ_27fireworks_collaboration_lib3app8commands9workspace17remove_repository0B9_
FNDA:0,_RNCNvNtNtNtCsfvgE7hV3dwJ_27fireworks_collaboration_lib3app8commands9workspace17restore_workspace0B9_
FNDA:0,_RNCNvNtNtNtCsfvgE7hV3dwJ_27fireworks_collaboration_lib3app8commands9workspace19resolve_concurrency0B9_
FNDA:0,_RNCNvNtNtNtCsfvgE7hV3dwJ_27fireworks_collaboration_lib3app8commands9workspace20get_workspace_config0B9_
FNDA:0,_RNCNvNtNtNtCsfvgE7hV3dwJ_27fireworks_collaboration_lib3app8commands9workspace20reorder_repositories0B9_
FNDA:0,_RNCNvNtNtNtCsfvgE7hV3dwJ_27fireworks_collaboration_lib3app8commands9workspace20workspace_batch_push0B9_
FNDA:0,_RNCNvNtNtNtCsfvgE7hV3dwJ_27fireworks_collaboration_lib3app8commands9workspace21workspace_batch_clone0B9_
FNDA:0,_RNCNvNtNtNtCsfvgE7hV3dwJ_27fireworks_collaboration_lib3app8commands9workspace21workspace_batch_fetch0B9_
FNDA:0,_RNCNvNtNtNtCsfvgE7hV3dwJ_27fireworks_collaboration_lib3app8commands9workspace22get_workspace_statuses0B9_
FNDA:0,_RNCNvNtNtNtCsfvgE7hV3dwJ_27fireworks_collaboration_lib3app8commands9workspace22resolve_workspace_root0B9_
FNDA:0,_RNCNvNtNtNtCsfvgE7hV3dwJ_27fireworks_collaboration_lib3app8commands9workspace22select_workspace_repos0B9_
FNDA:0,_RNCNvNtNtNtCsfvgE7hV3dwJ_27fireworks_collaboration_lib3app8commands9workspace22select_workspace_reposs_0B9_
FNDA:0,_RNCNvNtNtNtCsfvgE7hV3dwJ_27fireworks_collaboration_lib3app8commands9workspace22update_repository_tags0B9_
FNDA:0,_RNCNvNtNtNtCsfvgE7hV3dwJ_27fireworks_collaboration_lib3app8commands9workspace23validate_workspace_file0B9_
FNDA:0,_RNCNvNtNtNtCsfvgE7hV3dwJ_27fireworks_collaboration_lib3app8commands9workspace24apply_repository_reorder0B9_
FNDA:0,_RNCNvNtNtNtCsfvgE7hV3dwJ_27fireworks_collaboration_lib3app8commands9workspace24apply_repository_reorders_0B9_
FNDA:0,_RNCNvNtNtNtCsfvgE7hV3dwJ_27fireworks_collaboration_lib3app8commands9workspace25list_enabled_repositories0B9_
FNDA:0,_RNCNvNtNtNtCsfvgE7hV3dwJ_27fireworks_collaboration_lib3app8commands9workspace25toggle_repository_enabled0B9_
FNDA:0,_RNCNvNtNtNtCsfvgE7hV3dwJ_27fireworks_collaboration_lib3app8commands9workspace28clear_workspace_status_cache0B9_
FNDA:0,_RNCNvNtNtNtCsfvgE7hV3dwJ_27fireworks_collaboration_lib3app8commands9workspace33invalidate_workspace_status_entry0B9_
FNDA:0,_RNvNtNtNtCsfvgE7hV3dwJ_27fireworks_collaboration_lib3app8commands9workspace13get_workspace
FNDA:0,_RNvNtNtNtCsfvgE7hV3dwJ_27fireworks_collaboration_lib3app8commands9workspace14add_repository
FNDA:0,_RNvNtNtNtCsfvgE7hV3dwJ_27fireworks_collaboration_lib3app8commands9workspace14get_repository
FNDA:0,_RNvNtNtNtCsfvgE7hV3dwJ_27fireworks_collaboration_lib3app8commands9workspace14load_workspace
FNDA:0,_RNvNtNtNtCsfvgE7hV3dwJ_27fireworks_collaboration_lib3app8commands9workspace14path_to_string
FNDA:0,_RNvNtNtNtCsfvgE7hV3dwJ_27fireworks_collaboration_lib3app8commands9workspace14save_workspace
FNDA:0,_RNvNtNtNtCsfvgE7hV3dwJ_27fireworks_collaboration_lib3app8commands9workspace15close_workspace
FNDA:0,_RNvNtNtNtCsfvgE7hV3dwJ_27fireworks_collaboration_lib3app8commands9workspace16backup_workspace
FNDA:0,_RNvNtNtNtCsfvgE7hV3dwJ_27fireworks_collaboration_lib3app8commands9workspace16create_workspace
FNDA:0,_RNvNtNtNtCsfvgE7hV3dwJ_27fireworks_collaboration_lib3app8commands9workspace17ensure_parent_dir
FNDA:0,_RNvNtNtNtCsfvgE7hV3dwJ_27fireworks_collaboration_lib3app8commands9workspace17list_repositories
FNDA:0,_RNvNtNtNtCsfvgE7hV3dwJ_27fireworks_collaboration_lib3app8commands9workspace17remove_repository
FNDA:0,_RNvNtNtNtCsfvgE7hV3dwJ_27fireworks_collaboration_lib3app8commands9workspace17resolve_repo_path
FNDA:0,_RNvNtNtNtCsfvgE7hV3dwJ_27fireworks_collaboration_lib3app8commands9workspace17restore_workspace
FNDA:0,_RNvNtNtNtCsfvgE7hV3dwJ_27fireworks_collaboration_lib3app8commands9workspace18parse_depth_option
FNDA:0,_RNvNtNtNtCsfvgE7hV3dwJ_27fireworks_collaboration_lib3app8commands9workspace19resolve_concurrency
FNDA:0,_RNvNtNtNtCsfvgE7hV3dwJ_27fireworks_collaboration_lib3app8commands9workspace20ensure_existing_repo
FNDA:0,_RNvNtNtNtCsfvgE7hV3dwJ_27fireworks_collaboration_lib3app8commands9workspace20get_workspace_config
FNDA:0,_RNvNtNtNtCsfvgE7hV3dwJ_27fireworks_collaboration_lib3app8commands9workspace20reorder_repositories
FNDA:0,_RNvNtNtNtCsfvgE7hV3dwJ_27fireworks_collaboration_lib3app8commands9workspace20workspace_batch_push
FNDA:0,_RNvNtNtNtCsfvgE7hV3dwJ_27fireworks_collaboration_lib3app8commands9workspace21workspace_batch_clone
FNDA:0,_RNvNtNtNtCsfvgE7hV3dwJ_27fireworks_collaboration_lib3app8commands9workspace21workspace_batch_fetch
FNDA:0,_RNvNtNtNtCsfvgE7hV3dwJ_27fireworks_collaboration_lib3app8commands9workspace22get_workspace_statuses
FNDA:0,_RNvNtNtNtCsfvgE7hV3dwJ_27fireworks_collaboration_lib3app8commands9workspace22resolve_workspace_root
FNDA:0,_RNvNtNtNtCsfvgE7hV3dwJ_27fireworks_collaboration_lib3app8commands9workspace22select_workspace_repos
FNDA:0,_RNvNtNtNtCsfvgE7hV3dwJ_27fireworks_collaboration_lib3app8commands9workspace22update_repository_tags
FNDA:0,_RNvNtNtNtCsfvgE7hV3dwJ_27fireworks_collaboration_lib3app8commands9workspace23validate_workspace_file
FNDA:0,_RNvNtNtNtCsfvgE7hV3dwJ_27fireworks_collaboration_lib3app8commands9workspace24apply_repository_reorder
FNDA:0,_RNvNtNtNtCsfvgE7hV3dwJ_27fireworks_collaboration_lib3app8commands9workspace24ensure_clone_destination
FNDA:0,_RNvNtNtNtCsfvgE7hV3dwJ_27fireworks_collaboration_lib3app8commands9workspace25list_enabled_repositories
FNDA:0,_RNvNtNtNtCsfvgE7hV3dwJ_27fireworks_collaboration_lib3app8commands9workspace25toggle_repository_enabled
FNDA:0,_RNvNtNtNtCsfvgE7hV3dwJ_27fireworks_collaboration_lib3app8commands9workspace28clear_workspace_status_cache
FNDA:0,_RNvNtNtNtCsfvgE7hV3dwJ_27fireworks_collaboration_lib3app8commands9workspace33invalidate_workspace_status_entry
FNDA:0,_RNvXNtNtNtCsfvgE7hV3dwJ_27fireworks_collaboration_lib3app8commands9workspaceNtB2_13WorkspaceInfoINtNtCs5cb5cxfFw7H_4core7convert4FromRNtNtNtNtB8_4core9workspace5model9WorkspaceE4from
FNDA:0,_RNvXs_NtNtNtCsfvgE7hV3dwJ_27fireworks_collaboration_lib3app8commands9workspaceNtB4_14RepositoryInfoINtNtCs5cb5cxfFw7H_4core7convert4FromRNtNtNtNtBa_4core9workspace5model15RepositoryEntryE4from
FNF:111
FNH:5
DA:48,3
DA:49,3
DA:50,3
DA:51,3
DA:52,3
DA:53,3
DA:54,3
DA:55,3
DA:56,3
DA:57,3
DA:73,8
DA:74,8
DA:75,8
DA:76,8
DA:77,8
DA:78,8
DA:79,8
DA:80,8
DA:81,8
DA:82,8
DA:160,0
DA:161,0
DA:162,0
DA:163,0
DA:164,0
DA:166,0
DA:168,0
DA:169,0
DA:170,0
DA:172,0
DA:174,0
DA:175,0
DA:176,0
DA:177,0
DA:179,0
DA:181,0
DA:182,0
DA:183,0
DA:187,0
DA:188,0
DA:189,0
DA:190,0
DA:191,0
DA:193,0
DA:194,0
DA:196,0
DA:197,0
DA:198,0
DA:199,0
DA:201,0
DA:203,0
DA:204,0
DA:205,0
DA:206,0
DA:208,0
DA:210,0
DA:211,0
DA:212,0
DA:216,0
DA:217,0
DA:218,0
DA:219,0
DA:220,0
DA:222,0
DA:223,0
DA:224,0
DA:225,0
DA:227,0
DA:228,0
DA:229,0
DA:230,0
DA:232,0
DA:233,0
DA:235,0
DA:236,0
DA:237,0
DA:238,0
DA:240,0
DA:241,0
DA:242,0
DA:246,0
DA:247,0
DA:248,0
DA:249,0
DA:250,0
DA:251,0
DA:252,0
DA:254,0
DA:255,0
DA:256,0
DA:257,0
DA:259,0
DA:260,0
DA:264,0
DA:265,0
DA:267,0
DA:268,0
DA:269,0
DA:270,0
DA:272,0
DA:274,0
DA:275,0
DA:276,0
DA:280,0
DA:281,0
DA:282,0
DA:283,0
DA:284,0
DA:286,0
DA:287,0
DA:288,0
DA:289,0
DA:291,0
DA:292,0
DA:293,0
DA:294,0
DA:296,0
DA:297,0
DA:298,0
DA:299,0
DA:300,0
DA:302,0
DA:303,0
DA:305,0
DA:306,0
DA:307,0
DA:308,0
DA:310,0
DA:311,0
DA:312,0
DA:316,0
DA:317,0
DA:318,0
DA:319,0
DA:320,0
DA:322,0
DA:323,0
DA:324,0
DA:325,0
DA:327,0
DA:328,0
DA:329,0
DA:330,0
DA:332,0
DA:333,0
DA:334,0
DA:335,0
DA:337,0
DA:338,0
DA:339,0
DA:343,0
DA:344,0
DA:345,0
DA:346,0
DA:347,0
DA:348,0
DA:349,0
DA:350,0
DA:352,0
DA:353,0
DA:354,0
DA:355,0
DA:357,0
DA:358,0
DA:359,0
DA:360,0
DA:362,0
DA:363,0
DA:367,0
DA:368,0
DA:369,0
DA:370,0
DA:371,0
DA:372,0
DA:373,0
DA:375,0
DA:376,0
DA:377,0
DA:378,0
DA:380,0
DA:381,0
DA:382,0
DA:383,0
DA:384,0
DA:385,0
DA:387,0
DA:388,0
DA:392,0
DA:393,0
DA:394,0
DA:395,0
DA:396,0
DA:397,0
DA:398,0
DA:400,0
DA:401,0
DA:402,0
DA:403,0
DA:405,0
DA:406,0
DA:407,0
DA:408,0
DA:409,0
DA:411,0
DA:412,0
DA:416,0
DA:417,0
DA:418,0
DA:419,0
DA:420,0
DA:422,0
DA:423,0
DA:424,0
DA:425,0
DA:427,0
DA:428,0
DA:429,0
DA:430,0
DA:432,0
DA:433,0
DA:435,0
DA:437,0
DA:438,0
DA:439,0
DA:440,0
DA:441,0
DA:442,0
DA:444,5
DA:445,5
DA:446,5
DA:447,5
DA:448,5
DA:449,1
DA:450,4
DA:452,4
DA:453,9
DA:454,7
DA:455,1
DA:456,6
DA:457,11
DA:458,1
DA:459,5
DA:462,2
DA:463,2
DA:464,6
DA:465,7
DA:466,4
DA:467,4
DA:470,2
DA:471,2
DA:472,2
DA:474,2
DA:475,2
DA:476,2
DA:477,5
DA:481,0
DA:482,0
DA:483,0
DA:484,0
DA:485,0
DA:486,0
DA:488,0
DA:489,0
DA:490,0
DA:491,0
DA:492,0
DA:494,0
DA:495,0
DA:496,0
DA:497,0
DA:499,0
DA:502,0
DA:503,0
DA:504,0
DA:505,0
DA:506,0
DA:507,0
DA:508,0
DA:509,0
DA:513,0
DA:514,0
DA:515,0
DA:516,0
DA:517,0
DA:519,0
DA:521,0
DA:522,0
DA:526,0
DA:527,0
DA:528,0
DA:529,0
DA:530,0
DA:531,0
DA:532,0
DA:535,0
DA:538,0
DA:541,0
DA:544,0
DA:545,0
DA:549,0
DA:550,0
DA:551,0
DA:552,0
DA:553,0
DA:554,0
DA:555,0
DA:556,0
DA:558,0
DA:559,0
DA:560,0
DA:561,0
DA:562,0
DA:563,0
DA:564,0
DA:565,0
DA:566,0
DA:567,0
DA:570,0
DA:571,0
DA:572,0
DA:573,0
DA:574,0
DA:576,0
DA:577,0
DA:578,0
DA:580,0
DA:581,0
DA:582,0
DA:583,0
DA:584,0
DA:585,0
DA:586,0
DA:587,0
DA:589,0
DA:590,0
DA:591,0
DA:592,0
DA:593,0
DA:594,0
DA:595,0
DA:596,0
DA:597,0
DA:599,0
DA:600,0
DA:601,0
DA:602,0
DA:603,0
DA:606,0
DA:607,0
DA:608,0
DA:609,0
DA:610,0
DA:611,0
DA:613,0
DA:614,0
DA:615,0
DA:616,0
DA:617,0
DA:618,0
DA:619,0
DA:620,0
DA:622,0
DA:623,0
DA:627,0
DA:628,0
DA:629,0
DA:630,0
DA:631,0
DA:632,0
DA:633,0
DA:634,0
DA:636,0
DA:637,0
DA:638,0
DA:639,0
DA:640,0
DA:641,0
DA:642,0
DA:643,0
DA:644,0
DA:645,0
DA:648,0
DA:649,0
DA:650,0
DA:651,0
DA:652,0
DA:654,0
DA:655,0
DA:656,0
DA:658,0
DA:659,0
DA:660,0
DA:661,0
DA:662,0
DA:663,0
DA:664,0
DA:666,0
DA:669,0
DA:670,0
DA:671,0
DA:672,0
DA:673,0
DA:674,0
DA:675,0
DA:676,0
DA:677,0
DA:679,0
DA:680,0
DA:681,0
DA:682,0
DA:683,0
DA:686,0
DA:687,0
DA:688,0
DA:689,0
DA:690,0
DA:691,0
DA:693,0
DA:694,0
DA:695,0
DA:696,0
DA:697,0
DA:698,0
DA:699,0
DA:700,0
DA:702,0
DA:703,0
DA:707,0
DA:708,0
DA:709,0
DA:710,0
DA:711,0
DA:712,0
DA:713,0
DA:714,0
DA:716,0
DA:717,0
DA:718,0
DA:719,0
DA:720,0
DA:721,0
DA:722,0
DA:723,0
DA:724,0
DA:725,0
DA:728,0
DA:729,0
DA:730,0
DA:731,0
DA:732,0
DA:734,0
DA:735,0
DA:737,0
DA:738,0
DA:739,0
DA:740,0
DA:741,0
DA:743,0
DA:744,0
DA:745,0
DA:746,0
DA:747,0
DA:748,0
DA:749,0
DA:750,0
DA:752,0
DA:753,0
DA:754,0
DA:755,0
DA:756,0
DA:759,0
DA:760,0
DA:761,0
DA:762,0
DA:763,0
DA:764,0
DA:766,0
DA:767,0
DA:768,0
DA:769,0
DA:770,0
DA:771,0
DA:772,0
DA:773,0
DA:775,0
DA:776,0
DA:778,0
DA:779,0
DA:780,0
DA:782,0
DA:783,0
DA:784,0
DA:786,0
DA:788,0
DA:789,0
DA:790,0
DA:792,0
DA:794,0
DA:796,0
DA:797,0
DA:798,0
DA:799,0
DA:800,0
DA:801,0
DA:802,0
DA:803,0
DA:804,0
DA:805,0
DA:806,0
DA:807,0
DA:808,0
DA:809,0
DA:810,0
DA:812,0
DA:814,0
DA:815,0
DA:816,0
DA:817,0
DA:818,0
DA:819,0
DA:821,0
DA:823,0
DA:824,0
DA:825,0
DA:826,0
DA:827,0
DA:828,0
DA:829,0
DA:831,0
DA:834,0
DA:836,0
DA:838,0
DA:839,0
DA:840,0
DA:841,0
DA:842,0
DA:843,0
DA:844,0
DA:847,0
DA:848,0
DA:849,0
DA:851,0
DA:853,0
DA:855,0
DA:856,0
DA:857,0
DA:858,0
DA:859,0
DA:860,0
DA:862,0
DA:863,0
DA:864,0
DA:865,0
DA:866,0
DA:867,0
DA:868,0
DA:869,0
DA:870,0
DA:871,0
DA:872,0
DA:873,0
DA:874,0
DA:875,0
DA:876,0
DA:878,0
DA:879,0
DA:880,0
DA:881,0
DA:882,0
DA:883,0
DA:884,0
DA:886,0
DA:887,0
DA:888,0
DA:889,0
DA:890,0
DA:894,0
DA:895,0
DA:896,0
DA:897,0
DA:898,0
DA:899,0
DA:901,0
DA:902,0
DA:903,0
DA:904,0
DA:906,0
DA:907,0
DA:908,0
DA:909,0
DA:911,0
DA:912,0
DA:913,0
DA:914,0
DA:915,0
DA:916,0
DA:917,0
DA:918,0
DA:919,0
DA:921,0
DA:922,0
DA:924,0
DA:925,0
DA:926,0
DA:930,0
DA:931,0
DA:932,0
DA:933,0
DA:934,0
DA:936,0
DA:937,0
DA:938,0
DA:939,0
DA:941,0
DA:942,0
DA:943,0
DA:944,0
DA:946,0
DA:947,0
DA:948,0
DA:949,0
DA:950,0
DA:951,0
DA:952,0
DA:953,0
DA:954,0
DA:956,0
DA:957,0
DA:959,0
DA:960,0
DA:963,0
DA:964,0
DA:968,0
DA:969,0
DA:970,0
DA:974,0
DA:975,0
DA:977,0
DA:978,0
DA:980,0
DA:982,0
DA:983,0
DA:985,0
DA:986,0
DA:987,0
DA:990,0
DA:994,0
DA:995,0
DA:997,0
DA:998,0
DA:1000,0
DA:1001,0
DA:1002,0
DA:1003,0
DA:1005,0
DA:1006,0
DA:1007,0
DA:1008,0
DA:1012,0
DA:1013,0
DA:1015,0
DA:1016,0
DA:1017,0
DA:1019,0
DA:1020,0
DA:1021,0
DA:1022,0
DA:1024,0
DA:1025,0
DA:1026,0
BRF:0
BRH:0
LF:786
LH:50
end_of_record
SF:C:\Users\34404\Documents\GitHub\fireworks-collaboration\src-tauri\src\app\types.rs
FN:46,_RNvXNtNtCscu9j8SGJFlb_27fireworks_collaboration_lib3app5typesNtB2_11SystemProxyNtNtCs5cb5cxfFw7H_4core7default7Default7default
FN:46,_RNvXNtNtCsfvgE7hV3dwJ_27fireworks_collaboration_lib3app5typesNtB2_11SystemProxyNtNtCs5cb5cxfFw7H_4core7default7Default7default
FNDA:0,_RNvXNtNtCscu9j8SGJFlb_27fireworks_collaboration_lib3app5typesNtB2_11SystemProxyNtNtCs5cb5cxfFw7H_4core7default7Default7default
FNDA:0,_RNvXNtNtCsfvgE7hV3dwJ_27fireworks_collaboration_lib3app5typesNtB2_11SystemProxyNtNtCs5cb5cxfFw7H_4core7default7Default7default
FNF:1
FNH:0
DA:46,0
DA:47,0
DA:48,0
DA:49,0
DA:50,0
DA:51,0
DA:52,0
DA:53,0
BRF:0
BRH:0
LF:8
LH:0
end_of_record
SF:C:\Users\34404\Documents\GitHub\fireworks-collaboration\src-tauri\src\core\config\loader.rs
FN:115,_RNvNtNtNtNtCscu9j8SGJFlb_27fireworks_collaboration_lib4core6config6loader7testing21clear_global_base_dir
FN:42,_RNvNtNtNtCscu9j8SGJFlb_27fireworks_collaboration_lib4core6config6loader11config_path
FN:120,_RNvNtNtNtCscu9j8SGJFlb_27fireworks_collaboration_lib4core6config6loader12load_or_init
FN:155,_RNvNtNtNtCscu9j8SGJFlb_27fireworks_collaboration_lib4core6config6loader12save_at_path
FN:67,_RNvNtNtNtCscu9j8SGJFlb_27fireworks_collaboration_lib4core6config6loader14config_path_at
FN:23,_RNvNtNtNtCscu9j8SGJFlb_27fireworks_collaboration_lib4core6config6loader15global_base_dir
FN:128,_RNvNtNtNtCscu9j8SGJFlb_27fireworks_collaboration_lib4core6config6loader15load_or_init_at
FN:13,_RNvNtNtNtCscu9j8SGJFlb_27fireworks_collaboration_lib4core6config6loader17join_default_path
FN:138,_RNvNtNtNtCscu9j8SGJFlb_27fireworks_collaboration_lib4core6config6loader20load_or_init_at_path
FN:62,_RNvNtNtNtCscu9j8SGJFlb_27fireworks_collaboration_lib4core6config6loader20resolved_config_path
FN:89,_RNvNtNtNtCscu9j8SGJFlb_27fireworks_collaboration_lib4core6config6loader30clear_global_base_dir_internal
FN:124,_RNvNtNtNtCscu9j8SGJFlb_27fireworks_collaboration_lib4core6config6loader4save
FN:133,_RNvNtNtNtCscu9j8SGJFlb_27fireworks_collaboration_lib4core6config6loader7save_at
FN:72,_RNvNtNtNtCscu9j8SGJFlb_27fireworks_collaboration_lib4core6config6loader8base_dir
FN:34,_RINvNtNtNtCscu9j8SGJFlb_27fireworks_collaboration_lib4core6config6loader19set_global_base_dirRNtNtCsja4ZeDc2XAj_3std4path7PathBufEB8_
FN:35,_RNCINvNtNtNtCscu9j8SGJFlb_27fireworks_collaboration_lib4core6config6loader19set_global_base_dirRNtNtCsja4ZeDc2XAj_3std4path7PathBufE0Ba_
FN:55,_RNCNCNvNtNtNtCscu9j8SGJFlb_27fireworks_collaboration_lib4core6config6loader11config_path00Bb_
FN:47,_RNCNvNtNtNtCscu9j8SGJFlb_27fireworks_collaboration_lib4core6config6loader11config_path0B9_
FN:169,_RNCNvNtNtNtCscu9j8SGJFlb_27fireworks_collaboration_lib4core6config6loader12save_at_path0B9_
FN:173,_RNCNvNtNtNtCscu9j8SGJFlb_27fireworks_collaboration_lib4core6config6loader12save_at_paths0_0B9_
FN:181,_RNCNvNtNtNtCscu9j8SGJFlb_27fireworks_collaboration_lib4core6config6loader12save_at_paths1_0B9_
FN:163,_RNCNvNtNtNtCscu9j8SGJFlb_27fireworks_collaboration_lib4core6config6loader12save_at_paths2_0B9_
FN:170,_RNCNvNtNtNtCscu9j8SGJFlb_27fireworks_collaboration_lib4core6config6loader12save_at_paths_0B9_
FN:140,_RNCNvNtNtNtCscu9j8SGJFlb_27fireworks_collaboration_lib4core6config6loader20load_or_init_at_path0B9_
FN:141,_RNCNvNtNtNtCscu9j8SGJFlb_27fireworks_collaboration_lib4core6config6loader20load_or_init_at_paths_0B9_
FN:75,_RNCNvNtNtNtCscu9j8SGJFlb_27fireworks_collaboration_lib4core6config6loader8base_dir0B9_
FN:77,_RNCNvNtNtNtCscu9j8SGJFlb_27fireworks_collaboration_lib4core6config6loader8base_dirs_0B9_
FN:82,_RINvNtNtNtCscu9j8SGJFlb_27fireworks_collaboration_lib4core6config6loader33override_global_base_dir_internalpEB8_
FN:111,_RINvNtNtNtNtCscu9j8SGJFlb_27fireworks_collaboration_lib4core6config6loader7testing24override_global_base_dirpEBa_
FN:83,_RNCINvNtNtNtCscu9j8SGJFlb_27fireworks_collaboration_lib4core6config6loader33override_global_base_dir_internalpE0Ba_
FN:34,_RINvNtNtNtCscu9j8SGJFlb_27fireworks_collaboration_lib4core6config6loader19set_global_base_dirRNtNtCsja4ZeDc2XAj_3std4path4PathECsgV7FHrbFFzv_8commands
FN:35,_RNCINvNtNtNtCscu9j8SGJFlb_27fireworks_collaboration_lib4core6config6loader19set_global_base_dirRNtNtCsja4ZeDc2XAj_3std4path4PathE0CsgV7FHrbFFzv_8commands
FN:34,_RINvNtNtNtCsfvgE7hV3dwJ_27fireworks_collaboration_lib4core6config6loader19set_global_base_dirpEB8_
FN:102,_RINvNtNtNtCsfvgE7hV3dwJ_27fireworks_collaboration_lib4core6config6loader29test_override_global_base_dirpEB8_
FN:82,_RINvNtNtNtCsfvgE7hV3dwJ_27fireworks_collaboration_lib4core6config6loader33override_global_base_dir_internalpEB8_
FN:111,_RINvNtNtNtNtCsfvgE7hV3dwJ_27fireworks_collaboration_lib4core6config6loader7testing24override_global_base_dirpEBa_
FN:35,_RNCINvNtNtNtCsfvgE7hV3dwJ_27fireworks_collaboration_lib4core6config6loader19set_global_base_dirpE0Ba_
FN:83,_RNCINvNtNtNtCsfvgE7hV3dwJ_27fireworks_collaboration_lib4core6config6loader33override_global_base_dir_internalpE0Ba_
FN:55,_RNCNCNvNtNtNtCsfvgE7hV3dwJ_27fireworks_collaboration_lib4core6config6loader11config_path00Bb_
FN:47,_RNCNvNtNtNtCsfvgE7hV3dwJ_27fireworks_collaboration_lib4core6config6loader11config_path0B9_
FN:169,_RNCNvNtNtNtCsfvgE7hV3dwJ_27fireworks_collaboration_lib4core6config6loader12save_at_path0B9_
FN:173,_RNCNvNtNtNtCsfvgE7hV3dwJ_27fireworks_collaboration_lib4core6config6loader12save_at_paths0_0B9_
FN:181,_RNCNvNtNtNtCsfvgE7hV3dwJ_27fireworks_collaboration_lib4core6config6loader12save_at_paths1_0B9_
FN:163,_RNCNvNtNtNtCsfvgE7hV3dwJ_27fireworks_collaboration_lib4core6config6loader12save_at_paths2_0B9_
FN:170,_RNCNvNtNtNtCsfvgE7hV3dwJ_27fireworks_collaboration_lib4core6config6loader12save_at_paths_0B9_
FN:140,_RNCNvNtNtNtCsfvgE7hV3dwJ_27fireworks_collaboration_lib4core6config6loader20load_or_init_at_path0B9_
FN:141,_RNCNvNtNtNtCsfvgE7hV3dwJ_27fireworks_collaboration_lib4core6config6loader20load_or_init_at_paths_0B9_
FN:75,_RNCNvNtNtNtCsfvgE7hV3dwJ_27fireworks_collaboration_lib4core6config6loader8base_dir0B9_
FN:77,_RNCNvNtNtNtCsfvgE7hV3dwJ_27fireworks_collaboration_lib4core6config6loader8base_dirs_0B9_
FN:42,_RNvNtNtNtCsfvgE7hV3dwJ_27fireworks_collaboration_lib4core6config6loader11config_path
FN:120,_RNvNtNtNtCsfvgE7hV3dwJ_27fireworks_collaboration_lib4core6config6loader12load_or_init
FN:155,_RNvNtNtNtCsfvgE7hV3dwJ_27fireworks_collaboration_lib4core6config6loader12save_at_path
FN:67,_RNvNtNtNtCsfvgE7hV3dwJ_27fireworks_collaboration_lib4core6config6loader14config_path_at
FN:23,_RNvNtNtNtCsfvgE7hV3dwJ_27fireworks_collaboration_lib4core6config6loader15global_base_dir
FN:128,_RNvNtNtNtCsfvgE7hV3dwJ_27fireworks_collaboration_lib4core6config6loader15load_or_init_at
FN:13,_RNvNtNtNtCsfvgE7hV3dwJ_27fireworks_collaboration_lib4core6config6loader17join_default_path
FN:138,_RNvNtNtNtCsfvgE7hV3dwJ_27fireworks_collaboration_lib4core6config6loader20load_or_init_at_path
FN:62,_RNvNtNtNtCsfvgE7hV3dwJ_27fireworks_collaboration_lib4core6config6loader20resolved_config_path
FN:97,_RNvNtNtNtCsfvgE7hV3dwJ_27fireworks_collaboration_lib4core6config6loader26test_clear_global_base_dir
FN:89,_RNvNtNtNtCsfvgE7hV3dwJ_27fireworks_collaboration_lib4core6config6loader30clear_global_base_dir_internal
FN:124,_RNvNtNtNtCsfvgE7hV3dwJ_27fireworks_collaboration_lib4core6config6loader4save
FN:133,_RNvNtNtNtCsfvgE7hV3dwJ_27fireworks_collaboration_lib4core6config6loader7save_at
FN:72,_RNvNtNtNtCsfvgE7hV3dwJ_27fireworks_collaboration_lib4core6config6loader8base_dir
FN:115,_RNvNtNtNtNtCsfvgE7hV3dwJ_27fireworks_collaboration_lib4core6config6loader7testing21clear_global_base_dir
FN:34,_RINvNtNtNtCscu9j8SGJFlb_27fireworks_collaboration_lib4core6config6loader19set_global_base_dirRNtNtCsja4ZeDc2XAj_3std4path4PathECsgvyBa5thnhP_3git
FN:35,_RNCINvNtNtNtCscu9j8SGJFlb_27fireworks_collaboration_lib4core6config6loader19set_global_base_dirRNtNtCsja4ZeDc2XAj_3std4path4PathE0CsgvyBa5thnhP_3git
FNDA:0,_RNvNtNtNtNtCscu9j8SGJFlb_27fireworks_collaboration_lib4core6config6loader7testing21clear_global_base_dir
FNDA:5116,_RNvNtNtNtCscu9j8SGJFlb_27fireworks_collaboration_lib4core6config6loader11config_path
FNDA:4046,_RNvNtNtNtCscu9j8SGJFlb_27fireworks_collaboration_lib4core6config6loader12load_or_init
FNDA:41,_RNvNtNtNtCscu9j8SGJFlb_27fireworks_collaboration_lib4core6config6loader12save_at_path
FNDA:1,_RNvNtNtNtCscu9j8SGJFlb_27fireworks_collaboration_lib4core6config6loader14config_path_at
FNDA:5116,_RNvNtNtNtCscu9j8SGJFlb_27fireworks_collaboration_lib4core6config6loader15global_base_dir
FNDA:23,_RNvNtNtNtCscu9j8SGJFlb_27fireworks_collaboration_lib4core6config6loader15load_or_init_at
FNDA:5164,_RNvNtNtNtCscu9j8SGJFlb_27fireworks_collaboration_lib4core6config6loader17join_default_path
FNDA:4069,_RNvNtNtNtCscu9j8SGJFlb_27fireworks_collaboration_lib4core6config6loader20load_or_init_at_path
FNDA:0,_RNvNtNtNtCscu9j8SGJFlb_27fireworks_collaboration_lib4core6config6loader20resolved_config_path
FNDA:0,_RNvNtNtNtCscu9j8SGJFlb_27fireworks_collaboration_lib4core6config6loader30clear_global_base_dir_internal
FNDA:8,_RNvNtNtNtCscu9j8SGJFlb_27fireworks_collaboration_lib4core6config6loader4save
FNDA:24,_RNvNtNtNtCscu9j8SGJFlb_27fireworks_collaboration_lib4core6config6loader7save_at
FNDA:1062,_RNvNtNtNtCscu9j8SGJFlb_27fireworks_collaboration_lib4core6config6loader8base_dir
FNDA:14,_RINvNtNtNtCscu9j8SGJFlb_27fireworks_collaboration_lib4core6config6loader19set_global_base_dirRNtNtCsja4ZeDc2XAj_3std4path7PathBufEB8_
FNDA:3,_RNCINvNtNtNtCscu9j8SGJFlb_27fireworks_collaboration_lib4core6config6loader19set_global_base_dirRNtNtCsja4ZeDc2XAj_3std4path7PathBufE0Ba_
FNDA:0,_RNCNCNvNtNtNtCscu9j8SGJFlb_27fireworks_collaboration_lib4core6config6loader11config_path00Bb_
FNDA:4919,_RNCNvNtNtNtCscu9j8SGJFlb_27fireworks_collaboration_lib4core6config6loader11config_path0B9_
FNDA:41,_RNCNvNtNtNtCscu9j8SGJFlb_27fireworks_collaboration_lib4core6config6loader12save_at_path0B9_
FNDA:0,_RNCNvNtNtNtCscu9j8SGJFlb_27fireworks_collaboration_lib4core6config6loader12save_at_paths0_0B9_
FNDA:0,_RNCNvNtNtNtCscu9j8SGJFlb_27fireworks_collaboration_lib4core6config6loader12save_at_paths1_0B9_
FNDA:41,_RNCNvNtNtNtCscu9j8SGJFlb_27fireworks_collaboration_lib4core6config6loader12save_at_paths2_0B9_
FNDA:0,_RNCNvNtNtNtCscu9j8SGJFlb_27fireworks_collaboration_lib4core6config6loader12save_at_paths_0B9_
FNDA:0,_RNCNvNtNtNtCscu9j8SGJFlb_27fireworks_collaboration_lib4core6config6loader20load_or_init_at_path0B9_
FNDA:4060,_RNCNvNtNtNtCscu9j8SGJFlb_27fireworks_collaboration_lib4core6config6loader20load_or_init_at_paths_0B9_
FNDA:0,_RNCNvNtNtNtCscu9j8SGJFlb_27fireworks_collaboration_lib4core6config6loader8base_dir0B9_
FNDA:0,_RNCNvNtNtNtCscu9j8SGJFlb_27fireworks_collaboration_lib4core6config6loader8base_dirs_0B9_
FNDA:0,_RINvNtNtNtCscu9j8SGJFlb_27fireworks_collaboration_lib4core6config6loader33override_global_base_dir_internalpEB8_
FNDA:0,_RINvNtNtNtNtCscu9j8SGJFlb_27fireworks_collaboration_lib4core6config6loader7testing24override_global_base_dirpEBa_
FNDA:0,_RNCINvNtNtNtCscu9j8SGJFlb_27fireworks_collaboration_lib4core6config6loader33override_global_base_dir_internalpE0Ba_
FNDA:4,_RINvNtNtNtCscu9j8SGJFlb_27fireworks_collaboration_lib4core6config6loader19set_global_base_dirRNtNtCsja4ZeDc2XAj_3std4path4PathECsgV7FHrbFFzv_8commands
FNDA:1,_RNCINvNtNtNtCscu9j8SGJFlb_27fireworks_collaboration_lib4core6config6loader19set_global_base_dirRNtNtCsja4ZeDc2XAj_3std4path4PathE0CsgV7FHrbFFzv_8commands
FNDA:0,_RINvNtNtNtCsfvgE7hV3dwJ_27fireworks_collaboration_lib4core6config6loader19set_global_base_dirpEB8_
FNDA:0,_RINvNtNtNtCsfvgE7hV3dwJ_27fireworks_collaboration_lib4core6config6loader29test_override_global_base_dirpEB8_
FNDA:0,_RINvNtNtNtCsfvgE7hV3dwJ_27fireworks_collaboration_lib4core6config6loader33override_global_base_dir_internalpEB8_
FNDA:0,_RINvNtNtNtNtCsfvgE7hV3dwJ_27fireworks_collaboration_lib4core6config6loader7testing24override_global_base_dirpEBa_
FNDA:0,_RNCINvNtNtNtCsfvgE7hV3dwJ_27fireworks_collaboration_lib4core6config6loader19set_global_base_dirpE0Ba_
FNDA:0,_RNCINvNtNtNtCsfvgE7hV3dwJ_27fireworks_collaboration_lib4core6config6loader33override_global_base_dir_internalpE0Ba_
FNDA:0,_RNCNCNvNtNtNtCsfvgE7hV3dwJ_27fireworks_collaboration_lib4core6config6loader11config_path00Bb_
FNDA:0,_RNCNvNtNtNtCsfvgE7hV3dwJ_27fireworks_collaboration_lib4core6config6loader11config_path0B9_
FNDA:0,_RNCNvNtNtNtCsfvgE7hV3dwJ_27fireworks_collaboration_lib4core6config6loader12save_at_path0B9_
FNDA:0,_RNCNvNtNtNtCsfvgE7hV3dwJ_27fireworks_collaboration_lib4core6config6loader12save_at_paths0_0B9_
FNDA:0,_RNCNvNtNtNtCsfvgE7hV3dwJ_27fireworks_collaboration_lib4core6config6loader12save_at_paths1_0B9_
FNDA:0,_RNCNvNtNtNtCsfvgE7hV3dwJ_27fireworks_collaboration_lib4core6config6loader12save_at_paths2_0B9_
FNDA:0,_RNCNvNtNtNtCsfvgE7hV3dwJ_27fireworks_collaboration_lib4core6config6loader12save_at_paths_0B9_
FNDA:0,_RNCNvNtNtNtCsfvgE7hV3dwJ_27fireworks_collaboration_lib4core6config6loader20load_or_init_at_path0B9_
FNDA:0,_RNCNvNtNtNtCsfvgE7hV3dwJ_27fireworks_collaboration_lib4core6config6loader20load_or_init_at_paths_0B9_
FNDA:0,_RNCNvNtNtNtCsfvgE7hV3dwJ_27fireworks_collaboration_lib4core6config6loader8base_dir0B9_
FNDA:0,_RNCNvNtNtNtCsfvgE7hV3dwJ_27fireworks_collaboration_lib4core6config6loader8base_dirs_0B9_
FNDA:0,_RNvNtNtNtCsfvgE7hV3dwJ_27fireworks_collaboration_lib4core6config6loader11config_path
FNDA:0,_RNvNtNtNtCsfvgE7hV3dwJ_27fireworks_collaboration_lib4core6config6loader12load_or_init
FNDA:0,_RNvNtNtNtCsfvgE7hV3dwJ_27fireworks_collaboration_lib4core6config6loader12save_at_path
FNDA:0,_RNvNtNtNtCsfvgE7hV3dwJ_27fireworks_collaboration_lib4core6config6loader14config_path_at
FNDA:0,_RNvNtNtNtCsfvgE7hV3dwJ_27fireworks_collaboration_lib4core6config6loader15global_base_dir
FNDA:0,_RNvNtNtNtCsfvgE7hV3dwJ_27fireworks_collaboration_lib4core6config6loader15load_or_init_at
FNDA:0,_RNvNtNtNtCsfvgE7hV3dwJ_27fireworks_collaboration_lib4core6config6loader17join_default_path
FNDA:0,_RNvNtNtNtCsfvgE7hV3dwJ_27fireworks_collaboration_lib4core6config6loader20load_or_init_at_path
FNDA:0,_RNvNtNtNtCsfvgE7hV3dwJ_27fireworks_collaboration_lib4core6config6loader20resolved_config_path
FNDA:0,_RNvNtNtNtCsfvgE7hV3dwJ_27fireworks_collaboration_lib4core6config6loader26test_clear_global_base_dir
FNDA:0,_RNvNtNtNtCsfvgE7hV3dwJ_27fireworks_collaboration_lib4core6config6loader30clear_global_base_dir_internal
FNDA:0,_RNvNtNtNtCsfvgE7hV3dwJ_27fireworks_collaboration_lib4core6config6loader4save
FNDA:0,_RNvNtNtNtCsfvgE7hV3dwJ_27fireworks_collaboration_lib4core6config6loader7save_at
FNDA:0,_RNvNtNtNtCsfvgE7hV3dwJ_27fireworks_collaboration_lib4core6config6loader8base_dir
FNDA:0,_RNvNtNtNtNtCsfvgE7hV3dwJ_27fireworks_collaboration_lib4core6config6loader7testing21clear_global_base_dir
FNDA:1,_RINvNtNtNtCscu9j8SGJFlb_27fireworks_collaboration_lib4core6config6loader19set_global_base_dirRNtNtCsja4ZeDc2XAj_3std4path4PathECsgvyBa5thnhP_3git
FNDA:1,_RNCINvNtNtNtCscu9j8SGJFlb_27fireworks_collaboration_lib4core6config6loader19set_global_base_dirRNtNtCsja4ZeDc2XAj_3std4path4PathE0CsgvyBa5thnhP_3git
FNF:32
FNH:17
DA:13,5164
DA:14,5164
DA:15,5164
DA:16,5164
DA:17,5164
DA:18,5164
DA:23,5116
DA:24,5116
DA:25,197
DA:26,197
DA:27,0
DA:28,4919
DA:29,4919
DA:30,5116
DA:34,19
DA:35,19
DA:36,19
DA:37,19
DA:38,5
DA:39,14
DA:40,19
DA:42,5116
DA:47,5116
DA:49,4919
DA:50,4919
DA:51,4919
DA:52,4919
DA:55,0
DA:57,4919
DA:58,5116
DA:59,5116
DA:62,0
DA:63,0
DA:64,0
DA:67,1
DA:68,1
DA:69,1
DA:72,1062
DA:73,1062
DA:74,1062
DA:75,1062
DA:76,1062
DA:77,1062
DA:78,1062
DA:79,1062
DA:82,0
DA:83,0
DA:84,0
DA:85,0
DA:86,0
DA:89,0
DA:90,0
DA:91,0
DA:92,0
DA:93,0
DA:94,0
DA:97,0
DA:98,0
DA:99,0
DA:102,0
DA:103,0
DA:104,0
DA:111,0
DA:112,0
DA:113,0
DA:115,0
DA:116,0
DA:117,0
DA:120,4046
DA:121,4046
DA:122,4046
DA:124,8
DA:125,8
DA:126,8
DA:128,23
DA:129,23
DA:130,23
DA:131,23
DA:133,24
DA:134,24
DA:135,24
DA:136,24
DA:138,4069
DA:139,4069
DA:140,4060
DA:141,4060
DA:142,0
DA:143,0
DA:144,0
DA:145,4060
DA:146,4060
DA:147,4060
DA:149,9
DA:150,9
DA:151,9
DA:153,4069
DA:155,41
DA:156,41
DA:157,41
DA:158,41
DA:159,41
DA:160,41
DA:161,41
DA:162,41
DA:163,41
DA:164,41
DA:165,41
DA:167,41
DA:168,41
DA:169,41
DA:170,41
DA:172,41
DA:173,41
DA:174,41
DA:175,41
DA:177,41
DA:178,9
DA:179,32
DA:180,41
DA:181,41
DA:182,41
DA:183,41
DA:184,41
BRF:0
BRH:0
LF:136
LH:97
end_of_record
SF:C:\Users\34404\Documents\GitHub\fireworks-collaboration\src-tauri\src\core\config\model.rs
FN:285,_RNvMs_NtNtNtCscu9j8SGJFlb_27fireworks_collaboration_lib4core6config5modelNtB4_18ObservabilityLayer10next_lower
FN:296,_RNvMs_NtNtNtCscu9j8SGJFlb_27fireworks_collaboration_lib4core6config5modelNtB4_18ObservabilityLayer11next_higher
FN:259,_RNvMs_NtNtNtCscu9j8SGJFlb_27fireworks_collaboration_lib4core6config5modelNtB4_18ObservabilityLayer5as_u8
FN:263,_RNvMs_NtNtNtCscu9j8SGJFlb_27fireworks_collaboration_lib4core6config5modelNtB4_18ObservabilityLayer6as_str
FN:274,_RNvMs_NtNtNtCscu9j8SGJFlb_27fireworks_collaboration_lib4core6config5modelNtB4_18ObservabilityLayer7from_u8
FN:95,_RNvNtNtNtCscu9j8SGJFlb_27fireworks_collaboration_lib4core6config5model12default_true
FN:110,_RNvNtNtNtCscu9j8SGJFlb_27fireworks_collaboration_lib4core6config5model17default_log_level
FN:224,_RNvNtNtNtCscu9j8SGJFlb_27fireworks_collaboration_lib4core6config5model17default_retry_max
FN:230,_RNvNtNtNtCscu9j8SGJFlb_27fireworks_collaboration_lib4core6config5model20default_retry_factor
FN:98,_RNvNtNtNtCscu9j8SGJFlb_27fireworks_collaboration_lib4core6config5model21default_max_redirects
FN:227,_RNvNtNtNtCscu9j8SGJFlb_27fireworks_collaboration_lib4core6config5model21default_retry_base_ms
FN:145,_RNvNtNtNtCscu9j8SGJFlb_27fireworks_collaboration_lib4core6config5model22default_fake_sni_hosts
FN:415,_RNvNtNtNtCscu9j8SGJFlb_27fireworks_collaboration_lib4core6config5model22default_redact_ip_mode
FN:101,_RNvNtNtNtCscu9j8SGJFlb_27fireworks_collaboration_lib4core6config5model23default_large_body_warn
FN:113,_RNvNtNtNtCscu9j8SGJFlb_27fireworks_collaboration_lib4core6config5model23default_rollout_percent
FN:140,_RNvNtNtNtCscu9j8SGJFlb_27fireworks_collaboration_lib4core6config5model24default_alert_min_repeat
FN:132,_RNvNtNtNtCscu9j8SGJFlb_27fireworks_collaboration_lib4core6config5model24default_alert_rules_path
FN:116,_RNvNtNtNtCscu9j8SGJFlb_27fireworks_collaboration_lib4core6config5model25default_cert_fp_max_bytes
FN:124,_RNvNtNtNtCscu9j8SGJFlb_27fireworks_collaboration_lib4core6config5model25default_export_max_series
FN:136,_RNvNtNtNtCscu9j8SGJFlb_27fireworks_collaboration_lib4core6config5model27default_alert_eval_interval
FN:128,_RNvNtNtNtCscu9j8SGJFlb_27fireworks_collaboration_lib4core6config5model27default_export_bind_address
FN:234,_RNvNtNtNtCscu9j8SGJFlb_27fireworks_collaboration_lib4core6config5model27default_observability_layer
FN:120,_RNvNtNtNtCscu9j8SGJFlb_27fireworks_collaboration_lib4core6config5model29default_export_rate_limit_qps
FN:242,_RNvNtNtNtCscu9j8SGJFlb_27fireworks_collaboration_lib4core6config5model31default_downgrade_cooldown_secs
FN:238,_RNvNtNtNtCscu9j8SGJFlb_27fireworks_collaboration_lib4core6config5model32default_min_layer_residency_secs
FN:107,_RNvNtNtNtCscu9j8SGJFlb_27fireworks_collaboration_lib4core6config5model33default_auto_disable_cooldown_sec
FN:104,_RNvNtNtNtCscu9j8SGJFlb_27fireworks_collaboration_lib4core6config5model34default_auto_disable_threshold_pct
FN:423,_RNvNtNtNtCscu9j8SGJFlb_27fireworks_collaboration_lib4core6config5model35default_performance_tls_sample_rate
FN:427,_RNvNtNtNtCscu9j8SGJFlb_27fireworks_collaboration_lib4core6config5model36default_performance_max_memory_bytes
FN:419,_RNvNtNtNtCscu9j8SGJFlb_27fireworks_collaboration_lib4core6config5model43default_performance_batch_flush_interval_ms
FN:172,_RNvXNtNtNtCscu9j8SGJFlb_27fireworks_collaboration_lib4core6config5modelNtB2_9AppConfigNtNtCs5cb5cxfFw7H_4core7default7Default7default
FN:309,_RNvXs0_NtNtNtCscu9j8SGJFlb_27fireworks_collaboration_lib4core6config5modelNtB5_8RetryCfgNtNtCs5cb5cxfFw7H_4core7default7Default7default
FN:351,_RNvXs1_NtNtNtCscu9j8SGJFlb_27fireworks_collaboration_lib4core6config5modelNtB5_19ObservabilityConfigNtNtCs5cb5cxfFw7H_4core7default7Default7default
FN:382,_RNvXs2_NtNtNtCscu9j8SGJFlb_27fireworks_collaboration_lib4core6config5modelNtB5_25ObservabilityAlertsConfigNtNtCs5cb5cxfFw7H_4core7default7Default7default
FN:405,_RNvXs3_NtNtNtCscu9j8SGJFlb_27fireworks_collaboration_lib4core6config5modelNtB5_25ObservabilityExportConfigNtNtCs5cb5cxfFw7H_4core7default7Default7default
FN:449,_RNvXs4_NtNtNtCscu9j8SGJFlb_27fireworks_collaboration_lib4core6config5modelNtB5_30ObservabilityPerformanceConfigNtNtCs5cb5cxfFw7H_4core7default7Default7default
FN:471,_RNvXs5_NtNtNtCscu9j8SGJFlb_27fireworks_collaboration_lib4core6config5modelNtB5_25ObservabilityRedactConfigNtNtCs5cb5cxfFw7H_4core7default7Default7default
FN:296,_RNvMs_NtNtNtCsfvgE7hV3dwJ_27fireworks_collaboration_lib4core6config5modelNtB4_18ObservabilityLayer11next_higher
FN:95,_RNvNtNtNtCsfvgE7hV3dwJ_27fireworks_collaboration_lib4core6config5model12default_true
FN:110,_RNvNtNtNtCsfvgE7hV3dwJ_27fireworks_collaboration_lib4core6config5model17default_log_level
FN:224,_RNvNtNtNtCsfvgE7hV3dwJ_27fireworks_collaboration_lib4core6config5model17default_retry_max
FN:230,_RNvNtNtNtCsfvgE7hV3dwJ_27fireworks_collaboration_lib4core6config5model20default_retry_factor
FN:98,_RNvNtNtNtCsfvgE7hV3dwJ_27fireworks_collaboration_lib4core6config5model21default_max_redirects
FN:227,_RNvNtNtNtCsfvgE7hV3dwJ_27fireworks_collaboration_lib4core6config5model21default_retry_base_ms
FN:145,_RNvNtNtNtCsfvgE7hV3dwJ_27fireworks_collaboration_lib4core6config5model22default_fake_sni_hosts
FN:415,_RNvNtNtNtCsfvgE7hV3dwJ_27fireworks_collaboration_lib4core6config5model22default_redact_ip_mode
FN:101,_RNvNtNtNtCsfvgE7hV3dwJ_27fireworks_collaboration_lib4core6config5model23default_large_body_warn
FN:113,_RNvNtNtNtCsfvgE7hV3dwJ_27fireworks_collaboration_lib4core6config5model23default_rollout_percent
FN:140,_RNvNtNtNtCsfvgE7hV3dwJ_27fireworks_collaboration_lib4core6config5model24default_alert_min_repeat
FN:132,_RNvNtNtNtCsfvgE7hV3dwJ_27fireworks_collaboration_lib4core6config5model24default_alert_rules_path
FN:116,_RNvNtNtNtCsfvgE7hV3dwJ_27fireworks_collaboration_lib4core6config5model25default_cert_fp_max_bytes
FN:124,_RNvNtNtNtCsfvgE7hV3dwJ_27fireworks_collaboration_lib4core6config5model25default_export_max_series
FN:136,_RNvNtNtNtCsfvgE7hV3dwJ_27fireworks_collaboration_lib4core6config5model27default_alert_eval_interval
FN:128,_RNvNtNtNtCsfvgE7hV3dwJ_27fireworks_collaboration_lib4core6config5model27default_export_bind_address
FN:234,_RNvNtNtNtCsfvgE7hV3dwJ_27fireworks_collaboration_lib4core6config5model27default_observability_layer
FN:120,_RNvNtNtNtCsfvgE7hV3dwJ_27fireworks_collaboration_lib4core6config5model29default_export_rate_limit_qps
FN:242,_RNvNtNtNtCsfvgE7hV3dwJ_27fireworks_collaboration_lib4core6config5model31default_downgrade_cooldown_secs
FN:238,_RNvNtNtNtCsfvgE7hV3dwJ_27fireworks_collaboration_lib4core6config5model32default_min_layer_residency_secs
FN:107,_RNvNtNtNtCsfvgE7hV3dwJ_27fireworks_collaboration_lib4core6config5model33default_auto_disable_cooldown_sec
FN:104,_RNvNtNtNtCsfvgE7hV3dwJ_27fireworks_collaboration_lib4core6config5model34default_auto_disable_threshold_pct
FN:423,_RNvNtNtNtCsfvgE7hV3dwJ_27fireworks_collaboration_lib4core6config5model35default_performance_tls_sample_rate
FN:427,_RNvNtNtNtCsfvgE7hV3dwJ_27fireworks_collaboration_lib4core6config5model36default_performance_max_memory_bytes
FN:419,_RNvNtNtNtCsfvgE7hV3dwJ_27fireworks_collaboration_lib4core6config5model43default_performance_batch_flush_interval_ms
FN:172,_RNvXNtNtNtCsfvgE7hV3dwJ_27fireworks_collaboration_lib4core6config5modelNtB2_9AppConfigNtNtCs5cb5cxfFw7H_4core7default7Default7default
FN:309,_RNvXs0_NtNtNtCsfvgE7hV3dwJ_27fireworks_collaboration_lib4core6config5modelNtB5_8RetryCfgNtNtCs5cb5cxfFw7H_4core7default7Default7default
FN:351,_RNvXs1_NtNtNtCsfvgE7hV3dwJ_27fireworks_collaboration_lib4core6config5modelNtB5_19ObservabilityConfigNtNtCs5cb5cxfFw7H_4core7default7Default7default
FN:382,_RNvXs2_NtNtNtCsfvgE7hV3dwJ_27fireworks_collaboration_lib4core6config5modelNtB5_25ObservabilityAlertsConfigNtNtCs5cb5cxfFw7H_4core7default7Default7default
FN:405,_RNvXs3_NtNtNtCsfvgE7hV3dwJ_27fireworks_collaboration_lib4core6config5modelNtB5_25ObservabilityExportConfigNtNtCs5cb5cxfFw7H_4core7default7Default7default
FN:449,_RNvXs4_NtNtNtCsfvgE7hV3dwJ_27fireworks_collaboration_lib4core6config5modelNtB5_30ObservabilityPerformanceConfigNtNtCs5cb5cxfFw7H_4core7default7Default7default
FN:471,_RNvXs5_NtNtNtCsfvgE7hV3dwJ_27fireworks_collaboration_lib4core6config5modelNtB5_25ObservabilityRedactConfigNtNtCs5cb5cxfFw7H_4core7default7Default7default
FN:285,_RNvMs_NtNtNtCsfvgE7hV3dwJ_27fireworks_collaboration_lib4core6config5modelNtB4_18ObservabilityLayer10next_lower
FN:259,_RNvMs_NtNtNtCsfvgE7hV3dwJ_27fireworks_collaboration_lib4core6config5modelNtB4_18ObservabilityLayer5as_u8
FN:263,_RNvMs_NtNtNtCsfvgE7hV3dwJ_27fireworks_collaboration_lib4core6config5modelNtB4_18ObservabilityLayer6as_str
FN:274,_RNvMs_NtNtNtCsfvgE7hV3dwJ_27fireworks_collaboration_lib4core6config5modelNtB4_18ObservabilityLayer7from_u8
FNDA:6,_RNvMs_NtNtNtCscu9j8SGJFlb_27fireworks_collaboration_lib4core6config5modelNtB4_18ObservabilityLayer10next_lower
FNDA:3,_RNvMs_NtNtNtCscu9j8SGJFlb_27fireworks_collaboration_lib4core6config5modelNtB4_18ObservabilityLayer11next_higher
FNDA:186,_RNvMs_NtNtNtCscu9j8SGJFlb_27fireworks_collaboration_lib4core6config5modelNtB4_18ObservabilityLayer5as_u8
FNDA:29,_RNvMs_NtNtNtCscu9j8SGJFlb_27fireworks_collaboration_lib4core6config5modelNtB4_18ObservabilityLayer6as_str
FNDA:157,_RNvMs_NtNtNtCscu9j8SGJFlb_27fireworks_collaboration_lib4core6config5modelNtB4_18ObservabilityLayer7from_u8
FNDA:7549,_RNvNtNtNtCscu9j8SGJFlb_27fireworks_collaboration_lib4core6config5model12default_true
FNDA:603,_RNvNtNtNtCscu9j8SGJFlb_27fireworks_collaboration_lib4core6config5model17default_log_level
FNDA:861,_RNvNtNtNtCscu9j8SGJFlb_27fireworks_collaboration_lib4core6config5model17default_retry_max
FNDA:861,_RNvNtNtNtCscu9j8SGJFlb_27fireworks_collaboration_lib4core6config5model20default_retry_factor
FNDA:604,_RNvNtNtNtCscu9j8SGJFlb_27fireworks_collaboration_lib4core6config5model21default_max_redirects
FNDA:861,_RNvNtNtNtCscu9j8SGJFlb_27fireworks_collaboration_lib4core6config5model21default_retry_base_ms
FNDA:604,_RNvNtNtNtCscu9j8SGJFlb_27fireworks_collaboration_lib4core6config5model22default_fake_sni_hosts
FNDA:640,_RNvNtNtNtCscu9j8SGJFlb_27fireworks_collaboration_lib4core6config5model22default_redact_ip_mode
FNDA:604,_RNvNtNtNtCscu9j8SGJFlb_27fireworks_collaboration_lib4core6config5model23default_large_body_warn
FNDA:604,_RNvNtNtNtCscu9j8SGJFlb_27fireworks_collaboration_lib4core6config5model23default_rollout_percent
FNDA:640,_RNvNtNtNtCscu9j8SGJFlb_27fireworks_collaboration_lib4core6config5model24default_alert_min_repeat
FNDA:640,_RNvNtNtNtCscu9j8SGJFlb_27fireworks_collaboration_lib4core6config5model24default_alert_rules_path
FNDA:604,_RNvNtNtNtCscu9j8SGJFlb_27fireworks_collaboration_lib4core6config5model25default_cert_fp_max_bytes
FNDA:640,_RNvNtNtNtCscu9j8SGJFlb_27fireworks_collaboration_lib4core6config5model25default_export_max_series
FNDA:640,_RNvNtNtNtCscu9j8SGJFlb_27fireworks_collaboration_lib4core6config5model27default_alert_eval_interval
FNDA:640,_RNvNtNtNtCscu9j8SGJFlb_27fireworks_collaboration_lib4core6config5model27default_export_bind_address
FNDA:640,_RNvNtNtNtCscu9j8SGJFlb_27fireworks_collaboration_lib4core6config5model27default_observability_layer
FNDA:640,_RNvNtNtNtCscu9j8SGJFlb_27fireworks_collaboration_lib4core6config5model29default_export_rate_limit_qps
FNDA:640,_RNvNtNtNtCscu9j8SGJFlb_27fireworks_collaboration_lib4core6config5model31default_downgrade_cooldown_secs
FNDA:640,_RNvNtNtNtCscu9j8SGJFlb_27fireworks_collaboration_lib4core6config5model32default_min_layer_residency_secs
FNDA:605,_RNvNtNtNtCscu9j8SGJFlb_27fireworks_collaboration_lib4core6config5model33default_auto_disable_cooldown_sec
FNDA:605,_RNvNtNtNtCscu9j8SGJFlb_27fireworks_collaboration_lib4core6config5model34default_auto_disable_threshold_pct
FNDA:640,_RNvNtNtNtCscu9j8SGJFlb_27fireworks_collaboration_lib4core6config5model35default_performance_tls_sample_rate
FNDA:640,_RNvNtNtNtCscu9j8SGJFlb_27fireworks_collaboration_lib4core6config5model36default_performance_max_memory_bytes
FNDA:640,_RNvNtNtNtCscu9j8SGJFlb_27fireworks_collaboration_lib4core6config5model43default_performance_batch_flush_interval_ms
FNDA:599,_RNvXNtNtNtCscu9j8SGJFlb_27fireworks_collaboration_lib4core6config5modelNtB2_9AppConfigNtNtCs5cb5cxfFw7H_4core7default7Default7default
FNDA:857,_RNvXs0_NtNtNtCscu9j8SGJFlb_27fireworks_collaboration_lib4core6config5modelNtB5_8RetryCfgNtNtCs5cb5cxfFw7H_4core7default7Default7default
FNDA:640,_RNvXs1_NtNtNtCscu9j8SGJFlb_27fireworks_collaboration_lib4core6config5modelNtB5_19ObservabilityConfigNtNtCs5cb5cxfFw7H_4core7default7Default7default
FNDA:640,_RNvXs2_NtNtNtCscu9j8SGJFlb_27fireworks_collaboration_lib4core6config5modelNtB5_25ObservabilityAlertsConfigNtNtCs5cb5cxfFw7H_4core7default7Default7default
FNDA:640,_RNvXs3_NtNtNtCscu9j8SGJFlb_27fireworks_collaboration_lib4core6config5modelNtB5_25ObservabilityExportConfigNtNtCs5cb5cxfFw7H_4core7default7Default7default
FNDA:640,_RNvXs4_NtNtNtCscu9j8SGJFlb_27fireworks_collaboration_lib4core6config5modelNtB5_30ObservabilityPerformanceConfigNtNtCs5cb5cxfFw7H_4core7default7Default7default
FNDA:640,_RNvXs5_NtNtNtCscu9j8SGJFlb_27fireworks_collaboration_lib4core6config5modelNtB5_25ObservabilityRedactConfigNtNtCs5cb5cxfFw7H_4core7default7Default7default
FNDA:0,_RNvMs_NtNtNtCsfvgE7hV3dwJ_27fireworks_collaboration_lib4core6config5modelNtB4_18ObservabilityLayer11next_higher
FNDA:0,_RNvNtNtNtCsfvgE7hV3dwJ_27fireworks_collaboration_lib4core6config5model12default_true
FNDA:0,_RNvNtNtNtCsfvgE7hV3dwJ_27fireworks_collaboration_lib4core6config5model17default_log_level
FNDA:0,_RNvNtNtNtCsfvgE7hV3dwJ_27fireworks_collaboration_lib4core6config5model17default_retry_max
FNDA:0,_RNvNtNtNtCsfvgE7hV3dwJ_27fireworks_collaboration_lib4core6config5model20default_retry_factor
FNDA:0,_RNvNtNtNtCsfvgE7hV3dwJ_27fireworks_collaboration_lib4core6config5model21default_max_redirects
FNDA:0,_RNvNtNtNtCsfvgE7hV3dwJ_27fireworks_collaboration_lib4core6config5model21default_retry_base_ms
FNDA:0,_RNvNtNtNtCsfvgE7hV3dwJ_27fireworks_collaboration_lib4core6config5model22default_fake_sni_hosts
FNDA:0,_RNvNtNtNtCsfvgE7hV3dwJ_27fireworks_collaboration_lib4core6config5model22default_redact_ip_mode
FNDA:0,_RNvNtNtNtCsfvgE7hV3dwJ_27fireworks_collaboration_lib4core6config5model23default_large_body_warn
FNDA:0,_RNvNtNtNtCsfvgE7hV3dwJ_27fireworks_collaboration_lib4core6config5model23default_rollout_percent
FNDA:0,_RNvNtNtNtCsfvgE7hV3dwJ_27fireworks_collaboration_lib4core6config5model24default_alert_min_repeat
FNDA:0,_RNvNtNtNtCsfvgE7hV3dwJ_27fireworks_collaboration_lib4core6config5model24default_alert_rules_path
FNDA:0,_RNvNtNtNtCsfvgE7hV3dwJ_27fireworks_collaboration_lib4core6config5model25default_cert_fp_max_bytes
FNDA:0,_RNvNtNtNtCsfvgE7hV3dwJ_27fireworks_collaboration_lib4core6config5model25default_export_max_series
FNDA:0,_RNvNtNtNtCsfvgE7hV3dwJ_27fireworks_collaboration_lib4core6config5model27default_alert_eval_interval
FNDA:0,_RNvNtNtNtCsfvgE7hV3dwJ_27fireworks_collaboration_lib4core6config5model27default_export_bind_address
FNDA:0,_RNvNtNtNtCsfvgE7hV3dwJ_27fireworks_collaboration_lib4core6config5model27default_observability_layer
FNDA:0,_RNvNtNtNtCsfvgE7hV3dwJ_27fireworks_collaboration_lib4core6config5model29default_export_rate_limit_qps
FNDA:0,_RNvNtNtNtCsfvgE7hV3dwJ_27fireworks_collaboration_lib4core6config5model31default_downgrade_cooldown_secs
FNDA:0,_RNvNtNtNtCsfvgE7hV3dwJ_27fireworks_collaboration_lib4core6config5model32default_min_layer_residency_secs
FNDA:0,_RNvNtNtNtCsfvgE7hV3dwJ_27fireworks_collaboration_lib4core6config5model33default_auto_disable_cooldown_sec
FNDA:0,_RNvNtNtNtCsfvgE7hV3dwJ_27fireworks_collaboration_lib4core6config5model34default_auto_disable_threshold_pct
FNDA:0,_RNvNtNtNtCsfvgE7hV3dwJ_27fireworks_collaboration_lib4core6config5model35default_performance_tls_sample_rate
FNDA:0,_RNvNtNtNtCsfvgE7hV3dwJ_27fireworks_collaboration_lib4core6config5model36default_performance_max_memory_bytes
FNDA:0,_RNvNtNtNtCsfvgE7hV3dwJ_27fireworks_collaboration_lib4core6config5model43default_performance_batch_flush_interval_ms
FNDA:0,_RNvXNtNtNtCsfvgE7hV3dwJ_27fireworks_collaboration_lib4core6config5modelNtB2_9AppConfigNtNtCs5cb5cxfFw7H_4core7default7Default7default
FNDA:0,_RNvXs0_NtNtNtCsfvgE7hV3dwJ_27fireworks_collaboration_lib4core6config5modelNtB5_8RetryCfgNtNtCs5cb5cxfFw7H_4core7default7Default7default
FNDA:0,_RNvXs1_NtNtNtCsfvgE7hV3dwJ_27fireworks_collaboration_lib4core6config5modelNtB5_19ObservabilityConfigNtNtCs5cb5cxfFw7H_4core7default7Default7default
FNDA:0,_RNvXs2_NtNtNtCsfvgE7hV3dwJ_27fireworks_collaboration_lib4core6config5modelNtB5_25ObservabilityAlertsConfigNtNtCs5cb5cxfFw7H_4core7default7Default7default
FNDA:0,_RNvXs3_NtNtNtCsfvgE7hV3dwJ_27fireworks_collaboration_lib4core6config5modelNtB5_25ObservabilityExportConfigNtNtCs5cb5cxfFw7H_4core7default7Default7default
FNDA:0,_RNvXs4_NtNtNtCsfvgE7hV3dwJ_27fireworks_collaboration_lib4core6config5modelNtB5_30ObservabilityPerformanceConfigNtNtCs5cb5cxfFw7H_4core7default7Default7default
FNDA:0,_RNvXs5_NtNtNtCsfvgE7hV3dwJ_27fireworks_collaboration_lib4core6config5modelNtB5_25ObservabilityRedactConfigNtNtCs5cb5cxfFw7H_4core7default7Default7default
FNDA:0,_RNvMs_NtNtNtCsfvgE7hV3dwJ_27fireworks_collaboration_lib4core6config5modelNtB4_18ObservabilityLayer10next_lower
FNDA:0,_RNvMs_NtNtNtCsfvgE7hV3dwJ_27fireworks_collaboration_lib4core6config5modelNtB4_18ObservabilityLayer5as_u8
FNDA:0,_RNvMs_NtNtNtCsfvgE7hV3dwJ_27fireworks_collaboration_lib4core6config5modelNtB4_18ObservabilityLayer6as_str
FNDA:0,_RNvMs_NtNtNtCsfvgE7hV3dwJ_27fireworks_collaboration_lib4core6config5modelNtB4_18ObservabilityLayer7from_u8
FNF:37
FNH:37
DA:95,7549
DA:96,7549
DA:97,7549
DA:98,604
DA:99,604
DA:100,604
DA:101,604
DA:102,604
DA:103,604
DA:104,605
DA:105,605
DA:106,605
DA:107,605
DA:108,605
DA:109,605
DA:110,603
DA:111,603
DA:112,603
DA:113,604
DA:114,604
DA:115,604
DA:116,604
DA:117,604
DA:118,604
DA:120,640
DA:121,640
DA:122,640
DA:124,640
DA:125,640
DA:126,640
DA:128,640
DA:129,640
DA:130,640
DA:132,640
DA:133,640
DA:134,640
DA:136,640
DA:137,640
DA:138,640
DA:140,640
DA:141,640
DA:142,640
DA:145,604
DA:146,604
DA:148,604
DA:149,604
DA:150,604
DA:151,604
DA:152,604
DA:153,604
DA:154,604
DA:155,604
DA:156,604
DA:157,604
DA:158,604
DA:159,604
DA:160,604
DA:161,604
DA:162,604
DA:163,604
DA:164,604
DA:165,604
DA:166,604
DA:167,604
DA:169,604
DA:172,599
DA:173,599
DA:174,599
DA:175,599
DA:176,599
DA:177,599
DA:178,599
DA:179,599
DA:180,599
DA:181,599
DA:182,599
DA:183,599
DA:184,599
DA:185,599
DA:186,599
DA:187,599
DA:188,599
DA:189,599
DA:190,599
DA:191,599
DA:192,599
DA:193,599
DA:194,599
DA:195,599
DA:196,599
DA:197,599
DA:198,599
DA:199,599
DA:200,599
DA:201,599
DA:202,599
DA:203,599
DA:204,599
DA:224,861
DA:225,861
DA:226,861
DA:227,861
DA:228,861
DA:229,861
DA:230,861
DA:231,861
DA:232,861
DA:234,640
DA:235,640
DA:236,640
DA:238,640
DA:239,640
DA:240,640
DA:242,640
DA:243,640
DA:244,640
DA:259,186
DA:260,186
DA:261,186
DA:263,29
DA:264,29
DA:265,6
DA:266,3
DA:267,1
DA:268,3
DA:269,5
DA:270,11
DA:272,29
DA:274,157
DA:275,157
DA:276,3
DA:277,6
DA:278,0
DA:279,2
DA:280,5
DA:281,141
DA:283,157
DA:285,6
DA:286,6
DA:287,1
DA:288,0
DA:289,0
DA:290,0
DA:291,2
DA:292,3
DA:294,6
DA:296,3
DA:297,3
DA:298,1
DA:299,0
DA:300,0
DA:301,0
DA:302,1
DA:303,1
DA:305,3
DA:309,857
DA:310,857
DA:311,857
DA:312,857
DA:313,857
DA:314,857
DA:315,857
DA:316,857
DA:351,640
DA:352,640
DA:353,640
DA:354,640
DA:355,640
DA:356,640
DA:357,640
DA:358,640
DA:359,640
DA:360,640
DA:361,640
DA:362,640
DA:363,640
DA:364,640
DA:365,640
DA:366,640
DA:367,640
DA:382,640
DA:383,640
DA:384,640
DA:385,640
DA:386,640
DA:387,640
DA:388,640
DA:405,640
DA:406,640
DA:407,640
DA:408,640
DA:409,640
DA:410,640
DA:411,640
DA:412,640
DA:415,640
DA:416,640
DA:417,640
DA:419,640
DA:420,640
DA:421,640
DA:423,640
DA:424,640
DA:425,640
DA:427,640
DA:428,640
DA:429,640
DA:449,640
DA:450,640
DA:451,640
DA:452,640
DA:453,640
DA:454,640
DA:455,640
DA:456,640
DA:457,640
DA:458,640
DA:471,640
DA:472,640
DA:473,640
DA:474,640
DA:475,640
DA:476,640
BRF:0
BRH:0
LF:223
LH:216
end_of_record
SF:C:\Users\34404\Documents\GitHub\fireworks-collaboration\src-tauri\src\core\config\team_template.rs
FN:812,_RINvNtNtNtCscu9j8SGJFlb_27fireworks_collaboration_lib4core6config13team_template12merge_uniqueNtNtCs2ocB3yIIgEv_5alloc6string6StringEB8_
FN:812,_RINvNtNtNtCscu9j8SGJFlb_27fireworks_collaboration_lib4core6config13team_template12merge_uniqueNtNtNtB6_7ip_pool6config12UserStaticIpEB8_
FN:812,_RINvNtNtNtCscu9j8SGJFlb_27fireworks_collaboration_lib4core6config13team_template12merge_uniqueNtNtNtB6_7ip_pool6config13PreheatDomainEB8_
FN:239,_RNCNvNtNtNtCscu9j8SGJFlb_27fireworks_collaboration_lib4core6config13team_template15export_template0B9_
FN:306,_RNCNvNtNtNtCscu9j8SGJFlb_27fireworks_collaboration_lib4core6config13team_template18backup_config_file0B9_
FN:312,_RNCNvNtNtNtCscu9j8SGJFlb_27fireworks_collaboration_lib4core6config13team_template18backup_config_files0_0B9_
FN:314,_RNCNvNtNtNtCscu9j8SGJFlb_27fireworks_collaboration_lib4core6config13team_template18backup_config_files1_0B9_
FN:307,_RNCNvNtNtNtCscu9j8SGJFlb_27fireworks_collaboration_lib4core6config13team_template18backup_config_files_0B9_
FN:575,_RNCNvNtNtNtCscu9j8SGJFlb_27fireworks_collaboration_lib4core6config13team_template18parse_schema_major0B9_
FN:578,_RNCNvNtNtNtCscu9j8SGJFlb_27fireworks_collaboration_lib4core6config13team_template18parse_schema_majors_0B9_
FN:282,_RNCNvNtNtNtCscu9j8SGJFlb_27fireworks_collaboration_lib4core6config13team_template22write_template_to_path0B9_
FN:285,_RNCNvNtNtNtCscu9j8SGJFlb_27fireworks_collaboration_lib4core6config13team_template22write_template_to_paths_0B9_
FN:290,_RNCNvNtNtNtCscu9j8SGJFlb_27fireworks_collaboration_lib4core6config13team_template23load_template_from_path0B9_
FN:36,_RNvMNtNtNtCscu9j8SGJFlb_27fireworks_collaboration_lib4core6config13team_templateNtB2_18TeamConfigTemplate3new
FN:189,_RNvMs2_NtNtNtCscu9j8SGJFlb_27fireworks_collaboration_lib4core6config13team_templateNtB5_20TemplateImportReport3new
FN:17,_RNvNtNtNtCscu9j8SGJFlb_27fireworks_collaboration_lib4core6config13team_template12default_true
FN:229,_RNvNtNtNtCscu9j8SGJFlb_27fireworks_collaboration_lib4core6config13team_template15export_template
FN:581,_RNvNtNtNtCscu9j8SGJFlb_27fireworks_collaboration_lib4core6config13team_template15sanitized_proxy
FN:559,_RNvNtNtNtCscu9j8SGJFlb_27fireworks_collaboration_lib4core6config13team_template15validate_schema
FN:757,_RNvNtNtNtCscu9j8SGJFlb_27fireworks_collaboration_lib4core6config13team_template16merge_tls_config
FN:21,_RNvNtNtNtCscu9j8SGJFlb_27fireworks_collaboration_lib4core6config13team_template17default_overwrite
FN:296,_RNvNtNtNtCscu9j8SGJFlb_27fireworks_collaboration_lib4core6config13team_template18backup_config_file
FN:664,_RNvNtNtNtCscu9j8SGJFlb_27fireworks_collaboration_lib4core6config13team_template18merge_ip_pool_file
FN:689,_RNvNtNtNtCscu9j8SGJFlb_27fireworks_collaboration_lib4core6config13team_template18merge_proxy_config
FN:571,_RNvNtNtNtCscu9j8SGJFlb_27fireworks_collaboration_lib4core6config13team_template18parse_schema_major
FN:586,_RNvNtNtNtCscu9j8SGJFlb_27fireworks_collaboration_lib4core6config13team_template20sanitized_credential
FN:596,_RNvNtNtNtCscu9j8SGJFlb_27fireworks_collaboration_lib4core6config13team_template21merge_ip_pool_runtime
FN:279,_RNvNtNtNtCscu9j8SGJFlb_27fireworks_collaboration_lib4core6config13team_template22write_template_to_path
FN:289,_RNvNtNtNtCscu9j8SGJFlb_27fireworks_collaboration_lib4core6config13team_template23load_template_from_path
FN:780,_RNvNtNtNtCscu9j8SGJFlb_27fireworks_collaboration_lib4core6config13team_template23merge_credential_config
FN:325,_RNvNtNtNtCscu9j8SGJFlb_27fireworks_collaboration_lib4core6config13team_template24apply_template_to_config
FN:591,_RNvNtNtNtCscu9j8SGJFlb_27fireworks_collaboration_lib4core6config13team_template25sanitized_ip_pool_runtime
FN:127,_RNvXs0_NtNtNtCscu9j8SGJFlb_27fireworks_collaboration_lib4core6config13team_templateNtB5_21TemplateImportOptionsNtNtCs5cb5cxfFw7H_4core7default7Default7default
FN:155,_RNvXs1_NtNtNtCscu9j8SGJFlb_27fireworks_collaboration_lib4core6config13team_templateNtB5_20ImportStrategyConfigNtNtCs5cb5cxfFw7H_4core7default7Default7default
FN:97,_RNvXs_NtNtNtCscu9j8SGJFlb_27fireworks_collaboration_lib4core6config13team_templateNtB4_21TemplateExportOptionsNtNtCs5cb5cxfFw7H_4core7default7Default7default
FN:812,_RINvNtNtNtCsfvgE7hV3dwJ_27fireworks_collaboration_lib4core6config13team_template12merge_uniquepEB8_
FN:239,_RNCNvNtNtNtCsfvgE7hV3dwJ_27fireworks_collaboration_lib4core6config13team_template15export_template0B9_
FN:306,_RNCNvNtNtNtCsfvgE7hV3dwJ_27fireworks_collaboration_lib4core6config13team_template18backup_config_file0B9_
FN:312,_RNCNvNtNtNtCsfvgE7hV3dwJ_27fireworks_collaboration_lib4core6config13team_template18backup_config_files0_0B9_
FN:314,_RNCNvNtNtNtCsfvgE7hV3dwJ_27fireworks_collaboration_lib4core6config13team_template18backup_config_files1_0B9_
FN:307,_RNCNvNtNtNtCsfvgE7hV3dwJ_27fireworks_collaboration_lib4core6config13team_template18backup_config_files_0B9_
FN:575,_RNCNvNtNtNtCsfvgE7hV3dwJ_27fireworks_collaboration_lib4core6config13team_template18parse_schema_major0B9_
FN:578,_RNCNvNtNtNtCsfvgE7hV3dwJ_27fireworks_collaboration_lib4core6config13team_template18parse_schema_majors_0B9_
FN:282,_RNCNvNtNtNtCsfvgE7hV3dwJ_27fireworks_collaboration_lib4core6config13team_template22write_template_to_path0B9_
FN:285,_RNCNvNtNtNtCsfvgE7hV3dwJ_27fireworks_collaboration_lib4core6config13team_template22write_template_to_paths_0B9_
FN:290,_RNCNvNtNtNtCsfvgE7hV3dwJ_27fireworks_collaboration_lib4core6config13team_template23load_template_from_path0B9_
FN:36,_RNvMNtNtNtCsfvgE7hV3dwJ_27fireworks_collaboration_lib4core6config13team_templateNtB2_18TeamConfigTemplate3new
FN:189,_RNvMs2_NtNtNtCsfvgE7hV3dwJ_27fireworks_collaboration_lib4core6config13team_templateNtB5_20TemplateImportReport3new
FN:17,_RNvNtNtNtCsfvgE7hV3dwJ_27fireworks_collaboration_lib4core6config13team_template12default_true
FN:229,_RNvNtNtNtCsfvgE7hV3dwJ_27fireworks_collaboration_lib4core6config13team_template15export_template
FN:581,_RNvNtNtNtCsfvgE7hV3dwJ_27fireworks_collaboration_lib4core6config13team_template15sanitized_proxy
FN:559,_RNvNtNtNtCsfvgE7hV3dwJ_27fireworks_collaboration_lib4core6config13team_template15validate_schema
FN:757,_RNvNtNtNtCsfvgE7hV3dwJ_27fireworks_collaboration_lib4core6config13team_template16merge_tls_config
FN:21,_RNvNtNtNtCsfvgE7hV3dwJ_27fireworks_collaboration_lib4core6config13team_template17default_overwrite
FN:296,_RNvNtNtNtCsfvgE7hV3dwJ_27fireworks_collaboration_lib4core6config13team_template18backup_config_file
FN:664,_RNvNtNtNtCsfvgE7hV3dwJ_27fireworks_collaboration_lib4core6config13team_template18merge_ip_pool_file
FN:689,_RNvNtNtNtCsfvgE7hV3dwJ_27fireworks_collaboration_lib4core6config13team_template18merge_proxy_config
FN:571,_RNvNtNtNtCsfvgE7hV3dwJ_27fireworks_collaboration_lib4core6config13team_template18parse_schema_major
FN:586,_RNvNtNtNtCsfvgE7hV3dwJ_27fireworks_collaboration_lib4core6config13team_template20sanitized_credential
FN:596,_RNvNtNtNtCsfvgE7hV3dwJ_27fireworks_collaboration_lib4core6config13team_template21merge_ip_pool_runtime
FN:279,_RNvNtNtNtCsfvgE7hV3dwJ_27fireworks_collaboration_lib4core6config13team_template22write_template_to_path
FN:289,_RNvNtNtNtCsfvgE7hV3dwJ_27fireworks_collaboration_lib4core6config13team_template23load_template_from_path
FN:780,_RNvNtNtNtCsfvgE7hV3dwJ_27fireworks_collaboration_lib4core6config13team_template23merge_credential_config
FN:325,_RNvNtNtNtCsfvgE7hV3dwJ_27fireworks_collaboration_lib4core6config13team_template24apply_template_to_config
FN:591,_RNvNtNtNtCsfvgE7hV3dwJ_27fireworks_collaboration_lib4core6config13team_template25sanitized_ip_pool_runtime
FN:127,_RNvXs0_NtNtNtCsfvgE7hV3dwJ_27fireworks_collaboration_lib4core6config13team_templateNtB5_21TemplateImportOptionsNtNtCs5cb5cxfFw7H_4core7default7Default7default
FN:155,_RNvXs1_NtNtNtCsfvgE7hV3dwJ_27fireworks_collaboration_lib4core6config13team_templateNtB5_20ImportStrategyConfigNtNtCs5cb5cxfFw7H_4core7default7Default7default
FN:97,_RNvXs_NtNtNtCsfvgE7hV3dwJ_27fireworks_collaboration_lib4core6config13team_templateNtB4_21TemplateExportOptionsNtNtCs5cb5cxfFw7H_4core7default7Default7default
FNDA:2,_RINvNtNtNtCscu9j8SGJFlb_27fireworks_collaboration_lib4core6config13team_template12merge_uniqueNtNtCs2ocB3yIIgEv_5alloc6string6StringEB8_
FNDA:1,_RINvNtNtNtCscu9j8SGJFlb_27fireworks_collaboration_lib4core6config13team_template12merge_uniqueNtNtNtB6_7ip_pool6config12UserStaticIpEB8_
FNDA:1,_RINvNtNtNtCscu9j8SGJFlb_27fireworks_collaboration_lib4core6config13team_template12merge_uniqueNtNtNtB6_7ip_pool6config13PreheatDomainEB8_
FNDA:1,_RNCNvNtNtNtCscu9j8SGJFlb_27fireworks_collaboration_lib4core6config13team_template15export_template0B9_
FNDA:1,_RNCNvNtNtNtCscu9j8SGJFlb_27fireworks_collaboration_lib4core6config13team_template18backup_config_file0B9_
FNDA:0,_RNCNvNtNtNtCscu9j8SGJFlb_27fireworks_collaboration_lib4core6config13team_template18backup_config_files0_0B9_
FNDA:0,_RNCNvNtNtNtCscu9j8SGJFlb_27fireworks_collaboration_lib4core6config13team_template18backup_config_files1_0B9_
FNDA:0,_RNCNvNtNtNtCscu9j8SGJFlb_27fireworks_collaboration_lib4core6config13team_template18backup_config_files_0B9_
FNDA:0,_RNCNvNtNtNtCscu9j8SGJFlb_27fireworks_collaboration_lib4core6config13team_template18parse_schema_major0B9_
FNDA:0,_RNCNvNtNtNtCscu9j8SGJFlb_27fireworks_collaboration_lib4core6config13team_template18parse_schema_majors_0B9_
FNDA:0,_RNCNvNtNtNtCscu9j8SGJFlb_27fireworks_collaboration_lib4core6config13team_template22write_template_to_path0B9_
FNDA:0,_RNCNvNtNtNtCscu9j8SGJFlb_27fireworks_collaboration_lib4core6config13team_template22write_template_to_paths_0B9_
FNDA:0,_RNCNvNtNtNtCscu9j8SGJFlb_27fireworks_collaboration_lib4core6config13team_template23load_template_from_path0B9_
FNDA:7,_RNvMNtNtNtCscu9j8SGJFlb_27fireworks_collaboration_lib4core6config13team_templateNtB2_18TeamConfigTemplate3new
FNDA:5,_RNvMs2_NtNtNtCscu9j8SGJFlb_27fireworks_collaboration_lib4core6config13team_templateNtB5_20TemplateImportReport3new
FNDA:0,_RNvNtNtNtCscu9j8SGJFlb_27fireworks_collaboration_lib4core6config13team_template12default_true
FNDA:1,_RNvNtNtNtCscu9j8SGJFlb_27fireworks_collaboration_lib4core6config13team_template15export_template
FNDA:2,_RNvNtNtNtCscu9j8SGJFlb_27fireworks_collaboration_lib4core6config13team_template15sanitized_proxy
FNDA:6,_RNvNtNtNtCscu9j8SGJFlb_27fireworks_collaboration_lib4core6config13team_template15validate_schema
FNDA:0,_RNvNtNtNtCscu9j8SGJFlb_27fireworks_collaboration_lib4core6config13team_template16merge_tls_config
FNDA:0,_RNvNtNtNtCscu9j8SGJFlb_27fireworks_collaboration_lib4core6config13team_template17default_overwrite
FNDA:1,_RNvNtNtNtCscu9j8SGJFlb_27fireworks_collaboration_lib4core6config13team_template18backup_config_file
FNDA:1,_RNvNtNtNtCscu9j8SGJFlb_27fireworks_collaboration_lib4core6config13team_template18merge_ip_pool_file
FNDA:0,_RNvNtNtNtCscu9j8SGJFlb_27fireworks_collaboration_lib4core6config13team_template18merge_proxy_config
FNDA:6,_RNvNtNtNtCscu9j8SGJFlb_27fireworks_collaboration_lib4core6config13team_template18parse_schema_major
FNDA:2,_RNvNtNtNtCscu9j8SGJFlb_27fireworks_collaboration_lib4core6config13team_template20sanitized_credential
FNDA:2,_RNvNtNtNtCscu9j8SGJFlb_27fireworks_collaboration_lib4core6config13team_template21merge_ip_pool_runtime
FNDA:2,_RNvNtNtNtCscu9j8SGJFlb_27fireworks_collaboration_lib4core6config13team_template22write_template_to_path
FNDA:2,_RNvNtNtNtCscu9j8SGJFlb_27fireworks_collaboration_lib4core6config13team_template23load_template_from_path
FNDA:0,_RNvNtNtNtCscu9j8SGJFlb_27fireworks_collaboration_lib4core6config13team_template23merge_credential_config
FNDA:6,_RNvNtNtNtCscu9j8SGJFlb_27fireworks_collaboration_lib4core6config13team_template24apply_template_to_config
FNDA:4,_RNvNtNtNtCscu9j8SGJFlb_27fireworks_collaboration_lib4core6config13team_template25sanitized_ip_pool_runtime
FNDA:6,_RNvXs0_NtNtNtCscu9j8SGJFlb_27fireworks_collaboration_lib4core6config13team_templateNtB5_21TemplateImportOptionsNtNtCs5cb5cxfFw7H_4core7default7Default7default
FNDA:6,_RNvXs1_NtNtNtCscu9j8SGJFlb_27fireworks_collaboration_lib4core6config13team_templateNtB5_20ImportStrategyConfigNtNtCs5cb5cxfFw7H_4core7default7Default7default
FNDA:1,_RNvXs_NtNtNtCscu9j8SGJFlb_27fireworks_collaboration_lib4core6config13team_templateNtB4_21TemplateExportOptionsNtNtCs5cb5cxfFw7H_4core7default7Default7default
FNDA:0,_RINvNtNtNtCsfvgE7hV3dwJ_27fireworks_collaboration_lib4core6config13team_template12merge_uniquepEB8_
FNDA:0,_RNCNvNtNtNtCsfvgE7hV3dwJ_27fireworks_collaboration_lib4core6config13team_template15export_template0B9_
FNDA:0,_RNCNvNtNtNtCsfvgE7hV3dwJ_27fireworks_collaboration_lib4core6config13team_template18backup_config_file0B9_
FNDA:0,_RNCNvNtNtNtCsfvgE7hV3dwJ_27fireworks_collaboration_lib4core6config13team_template18backup_config_files0_0B9_
FNDA:0,_RNCNvNtNtNtCsfvgE7hV3dwJ_27fireworks_collaboration_lib4core6config13team_template18backup_config_files1_0B9_
FNDA:0,_RNCNvNtNtNtCsfvgE7hV3dwJ_27fireworks_collaboration_lib4core6config13team_template18backup_config_files_0B9_
FNDA:0,_RNCNvNtNtNtCsfvgE7hV3dwJ_27fireworks_collaboration_lib4core6config13team_template18parse_schema_major0B9_
FNDA:0,_RNCNvNtNtNtCsfvgE7hV3dwJ_27fireworks_collaboration_lib4core6config13team_template18parse_schema_majors_0B9_
FNDA:0,_RNCNvNtNtNtCsfvgE7hV3dwJ_27fireworks_collaboration_lib4core6config13team_template22write_template_to_path0B9_
FNDA:0,_RNCNvNtNtNtCsfvgE7hV3dwJ_27fireworks_collaboration_lib4core6config13team_template22write_template_to_paths_0B9_
FNDA:0,_RNCNvNtNtNtCsfvgE7hV3dwJ_27fireworks_collaboration_lib4core6config13team_template23load_template_from_path0B9_
FNDA:0,_RNvMNtNtNtCsfvgE7hV3dwJ_27fireworks_collaboration_lib4core6config13team_templateNtB2_18TeamConfigTemplate3new
FNDA:0,_RNvMs2_NtNtNtCsfvgE7hV3dwJ_27fireworks_collaboration_lib4core6config13team_templateNtB5_20TemplateImportReport3new
FNDA:0,_RNvNtNtNtCsfvgE7hV3dwJ_27fireworks_collaboration_lib4core6config13team_template12default_true
FNDA:0,_RNvNtNtNtCsfvgE7hV3dwJ_27fireworks_collaboration_lib4core6config13team_template15export_template
FNDA:0,_RNvNtNtNtCsfvgE7hV3dwJ_27fireworks_collaboration_lib4core6config13team_template15sanitized_proxy
FNDA:0,_RNvNtNtNtCsfvgE7hV3dwJ_27fireworks_collaboration_lib4core6config13team_template15validate_schema
FNDA:0,_RNvNtNtNtCsfvgE7hV3dwJ_27fireworks_collaboration_lib4core6config13team_template16merge_tls_config
FNDA:0,_RNvNtNtNtCsfvgE7hV3dwJ_27fireworks_collaboration_lib4core6config13team_template17default_overwrite
FNDA:0,_RNvNtNtNtCsfvgE7hV3dwJ_27fireworks_collaboration_lib4core6config13team_template18backup_config_file
FNDA:0,_RNvNtNtNtCsfvgE7hV3dwJ_27fireworks_collaboration_lib4core6config13team_template18merge_ip_pool_file
FNDA:0,_RNvNtNtNtCsfvgE7hV3dwJ_27fireworks_collaboration_lib4core6config13team_template18merge_proxy_config
FNDA:0,_RNvNtNtNtCsfvgE7hV3dwJ_27fireworks_collaboration_lib4core6config13team_template18parse_schema_major
FNDA:0,_RNvNtNtNtCsfvgE7hV3dwJ_27fireworks_collaboration_lib4core6config13team_template20sanitized_credential
FNDA:0,_RNvNtNtNtCsfvgE7hV3dwJ_27fireworks_collaboration_lib4core6config13team_template21merge_ip_pool_runtime
FNDA:0,_RNvNtNtNtCsfvgE7hV3dwJ_27fireworks_collaboration_lib4core6config13team_template22write_template_to_path
FNDA:0,_RNvNtNtNtCsfvgE7hV3dwJ_27fireworks_collaboration_lib4core6config13team_template23load_template_from_path
FNDA:0,_RNvNtNtNtCsfvgE7hV3dwJ_27fireworks_collaboration_lib4core6config13team_template23merge_credential_config
FNDA:0,_RNvNtNtNtCsfvgE7hV3dwJ_27fireworks_collaboration_lib4core6config13team_template24apply_template_to_config
FNDA:0,_RNvNtNtNtCsfvgE7hV3dwJ_27fireworks_collaboration_lib4core6config13team_template25sanitized_ip_pool_runtime
FNDA:0,_RNvXs0_NtNtNtCsfvgE7hV3dwJ_27fireworks_collaboration_lib4core6config13team_templateNtB5_21TemplateImportOptionsNtNtCs5cb5cxfFw7H_4core7default7Default7default
FNDA:0,_RNvXs1_NtNtNtCsfvgE7hV3dwJ_27fireworks_collaboration_lib4core6config13team_templateNtB5_20ImportStrategyConfigNtNtCs5cb5cxfFw7H_4core7default7Default7default
FNDA:0,_RNvXs_NtNtNtCsfvgE7hV3dwJ_27fireworks_collaboration_lib4core6config13team_templateNtB4_21TemplateExportOptionsNtNtCs5cb5cxfFw7H_4core7default7Default7default
FNF:33
FNH:20
DA:17,0
DA:18,0
DA:19,0
DA:21,0
DA:22,0
DA:23,0
DA:36,7
DA:37,7
DA:38,7
DA:39,7
DA:40,7
DA:41,7
DA:42,7
DA:97,1
DA:98,1
DA:99,1
DA:100,1
DA:101,1
DA:102,1
DA:103,1
DA:104,1
DA:105,1
DA:106,1
DA:127,6
DA:128,6
DA:129,6
DA:130,6
DA:131,6
DA:132,6
DA:133,6
DA:134,6
DA:135,6
DA:136,6
DA:155,6
DA:156,6
DA:157,6
DA:158,6
DA:159,6
DA:160,6
DA:161,6
DA:162,6
DA:163,6
DA:189,5
DA:190,5
DA:191,5
DA:192,5
DA:193,5
DA:194,5
DA:195,5
DA:196,5
DA:197,5
DA:229,1
DA:230,1
DA:231,1
DA:232,1
DA:233,1
DA:234,1
DA:235,1
DA:236,1
DA:237,1
DA:238,1
DA:239,1
DA:240,1
DA:241,1
DA:242,1
DA:244,1
DA:245,1
DA:246,1
DA:247,1
DA:248,1
DA:250,1
DA:251,1
DA:252,1
DA:253,1
DA:254,1
DA:255,0
DA:256,0
DA:259,0
DA:261,1
DA:262,0
DA:264,1
DA:265,1
DA:266,1
DA:268,1
DA:269,1
DA:270,1
DA:272,1
DA:273,1
DA:274,1
DA:276,1
DA:277,1
DA:279,2
DA:280,2
DA:281,2
DA:282,2
DA:283,0
DA:284,2
DA:285,2
DA:286,2
DA:287,2
DA:289,2
DA:290,2
DA:291,2
DA:292,2
DA:293,2
DA:294,2
DA:296,1
DA:297,1
DA:298,1
DA:299,0
DA:300,1
DA:302,1
DA:303,1
DA:304,1
DA:305,1
DA:306,1
DA:307,1
DA:308,1
DA:310,1
DA:311,1
DA:312,1
DA:313,0
DA:314,1
DA:315,0
DA:316,0
DA:317,0
DA:318,0
DA:320,0
DA:322,1
DA:323,1
DA:325,6
DA:326,6
DA:327,6
DA:328,6
DA:329,6
DA:330,6
DA:331,6
DA:333,5
DA:334,5
DA:336,5
DA:337,3
DA:338,3
DA:339,0
DA:340,0
DA:341,0
DA:342,0
DA:343,1
DA:344,1
DA:345,1
DA:346,1
DA:347,1
DA:348,1
DA:349,1
DA:351,2
DA:352,2
DA:353,2
DA:354,2
DA:355,2
DA:356,2
DA:357,2
DA:358,2
DA:359,2
DA:360,2
DA:361,0
DA:362,0
DA:363,0
DA:364,0
DA:365,0
DA:368,0
DA:369,0
DA:370,0
DA:371,0
DA:372,0
DA:373,0
DA:375,3
DA:376,1
DA:377,1
DA:378,0
DA:379,0
DA:380,0
DA:381,0
DA:382,0
DA:383,0
DA:384,0
DA:385,0
DA:386,0
DA:387,0
DA:388,0
DA:390,1
DA:391,1
DA:392,1
DA:393,1
DA:394,1
DA:395,1
DA:396,1
DA:397,1
DA:398,1
DA:399,0
DA:400,0
DA:401,0
DA:402,0
DA:403,0
DA:404,0
DA:407,0
DA:408,0
DA:409,0
DA:410,0
DA:411,0
DA:412,0
DA:413,2
DA:414,2
DA:415,2
DA:416,2
DA:417,2
DA:418,2
DA:419,2
DA:421,5
DA:422,2
DA:423,2
DA:424,1
DA:425,1
DA:426,1
DA:427,1
DA:428,1
DA:429,1
DA:430,1
DA:431,1
DA:432,1
DA:433,1
DA:434,1
DA:436,0
DA:437,0
DA:438,0
DA:439,0
DA:440,0
DA:441,0
DA:442,0
DA:443,0
DA:444,0
DA:445,0
DA:446,0
DA:447,0
DA:448,0
DA:449,0
DA:452,0
DA:453,0
DA:454,0
DA:455,0
DA:456,0
DA:457,0
DA:458,3
DA:459,3
DA:460,3
DA:461,3
DA:462,3
DA:463,3
DA:465,5
DA:466,2
DA:467,1
DA:468,0
DA:469,0
DA:470,0
DA:471,0
DA:472,1
DA:473,1
DA:474,1
DA:475,1
DA:476,1
DA:477,1
DA:478,1
DA:480,0
DA:481,0
DA:482,0
DA:483,0
DA:484,0
DA:485,0
DA:486,0
DA:487,0
DA:488,0
DA:489,0
DA:490,0
DA:491,0
DA:492,0
DA:493,0
DA:496,1
DA:497,1
DA:498,1
DA:499,1
DA:500,1
DA:501,1
DA:502,3
DA:503,3
DA:504,3
DA:505,3
DA:506,3
DA:507,3
DA:509,5
DA:510,1
DA:511,1
DA:512,0
DA:513,0
DA:514,0
DA:515,0
DA:516,1
DA:517,1
DA:518,1
DA:519,1
DA:520,1
DA:521,1
DA:522,1
DA:524,0
DA:525,0
DA:526,0
DA:527,0
DA:528,0
DA:529,0
DA:530,0
DA:531,0
DA:532,0
DA:533,0
DA:534,0
DA:535,0
DA:536,0
DA:537,0
DA:540,0
DA:541,0
DA:542,0
DA:543,0
DA:544,0
DA:545,0
DA:546,4
DA:547,4
DA:548,4
DA:549,4
DA:550,4
DA:551,4
DA:553,5
DA:554,5
DA:555,5
DA:556,5
DA:557,6
DA:559,6
DA:560,6
DA:561,6
DA:562,1
DA:563,1
DA:564,1
DA:565,1
DA:566,1
DA:567,5
DA:568,5
DA:569,6
DA:571,6
DA:572,6
DA:573,6
DA:574,6
DA:575,6
DA:576,6
DA:577,6
DA:578,6
DA:579,6
DA:581,2
DA:582,2
DA:583,2
DA:584,2
DA:586,2
DA:587,2
DA:588,2
DA:589,2
DA:591,4
DA:592,4
DA:593,4
DA:594,4
DA:596,2
DA:597,2
DA:598,2
DA:600,2
DA:601,1
DA:602,1
DA:603,1
DA:604,2
DA:605,0
DA:606,0
DA:607,2
DA:608,2
DA:609,0
DA:610,0
DA:611,2
DA:612,2
DA:613,2
DA:614,2
DA:615,2
DA:616,2
DA:617,0
DA:618,0
DA:619,2
DA:620,2
DA:621,0
DA:622,0
DA:623,2
DA:624,2
DA:625,0
DA:626,0
DA:627,2
DA:628,2
DA:629,0
DA:630,0
DA:631,2
DA:632,2
DA:633,0
DA:634,0
DA:635,2
DA:636,2
DA:637,0
DA:638,0
DA:639,2
DA:640,2
DA:641,0
DA:642,0
DA:643,2
DA:644,2
DA:645,0
DA:646,0
DA:647,2
DA:648,2
DA:649,0
DA:650,0
DA:651,2
DA:652,2
DA:653,0
DA:654,0
DA:655,2
DA:656,2
DA:657,0
DA:658,0
DA:659,2
DA:661,2
DA:662,2
DA:664,1
DA:665,1
DA:666,1
DA:668,1
DA:669,0
DA:670,0
DA:671,1
DA:673,1
DA:674,0
DA:675,1
DA:676,1
DA:677,0
DA:678,1
DA:679,1
DA:680,1
DA:681,1
DA:682,1
DA:683,1
DA:684,1
DA:686,1
DA:687,1
DA:689,0
DA:690,0
DA:691,0
DA:693,0
DA:694,0
DA:695,0
DA:696,0
DA:697,0
DA:698,0
DA:699,0
DA:700,0
DA:701,0
DA:702,0
DA:703,0
DA:704,0
DA:705,0
DA:706,0
DA:707,0
DA:708,0
DA:709,0
DA:710,0
DA:711,0
DA:712,0
DA:713,0
DA:714,0
DA:715,0
DA:716,0
DA:717,0
DA:718,0
DA:719,0
DA:720,0
DA:721,0
DA:722,0
DA:723,0
DA:724,0
DA:725,0
DA:726,0
DA:727,0
DA:728,0
DA:729,0
DA:730,0
DA:731,0
DA:732,0
DA:733,0
DA:734,0
DA:735,0
DA:736,0
DA:737,0
DA:738,0
DA:739,0
DA:740,0
DA:741,0
DA:742,0
DA:743,0
DA:744,0
DA:745,0
DA:746,0
DA:747,0
DA:748,0
DA:749,0
DA:750,0
DA:751,0
DA:752,0
DA:754,0
DA:755,0
DA:757,0
DA:758,0
DA:759,0
DA:761,0
DA:762,0
DA:763,0
DA:764,0
DA:765,0
DA:766,0
DA:767,0
DA:768,0
DA:769,0
DA:770,0
DA:771,0
DA:772,0
DA:773,0
DA:774,0
DA:775,0
DA:777,0
DA:778,0
DA:780,0
DA:781,0
DA:782,0
DA:784,0
DA:785,0
DA:786,0
DA:787,0
DA:788,0
DA:789,0
DA:790,0
DA:791,0
DA:792,0
DA:793,0
DA:794,0
DA:795,0
DA:796,0
DA:797,0
DA:798,0
DA:799,0
DA:800,0
DA:801,0
DA:802,0
DA:803,0
DA:804,0
DA:805,0
DA:806,0
DA:807,0
DA:809,0
DA:810,0
DA:812,4
DA:813,4
DA:814,4
DA:816,4
DA:817,6
DA:818,2
DA:819,2
DA:820,2
DA:821,2
DA:823,4
DA:824,4
BRF:0
BRH:0
LF:594
LH:323
end_of_record
SF:C:\Users\34404\Documents\GitHub\fireworks-collaboration\src-tauri\src\core\credential\audit.rs
FN:119,_RINvNtNtNtNtCscu9j8SGJFlb_27fireworks_collaboration_lib4core10credential5audit17system_time_serde11deserializeQINtNtCshLSHN1KBDS7_10serde_json2de12DeserializerNtNtB1Q_4read7StrReadEEBa_
FN:109,_RINvNtNtNtNtCscu9j8SGJFlb_27fireworks_collaboration_lib4core10credential5audit17system_time_serde9serializeINtNtCshLSHN1KBDS7_10serde_json3ser18RawValueStrEmitterINtNtNtNtCsja4ZeDc2XAj_3std2io8buffered9bufwriter9BufWriterNtNtB2J_2fs4FileENtB1K_15PrettyFormatterEEBa_
FN:109,_RINvNtNtNtNtCscu9j8SGJFlb_27fireworks_collaboration_lib4core10credential5audit17system_time_serde9serializeINtNtCshLSHN1KBDS7_10serde_json3ser18RawValueStrEmitterQINtNtCs2ocB3yIIgEv_5alloc3vec3VechENtB1K_15PrettyFormatterEEBa_
FN:109,_RINvNtNtNtNtCscu9j8SGJFlb_27fireworks_collaboration_lib4core10credential5audit17system_time_serde9serializeQINtNtCshLSHN1KBDS7_10serde_json3ser10SerializerINtNtNtNtCsja4ZeDc2XAj_3std2io8buffered9bufwriter9BufWriterNtNtB2C_2fs4FileENtB1L_15PrettyFormatterEEBa_
FN:109,_RINvNtNtNtNtCscu9j8SGJFlb_27fireworks_collaboration_lib4core10credential5audit17system_time_serde9serializeQINtNtCshLSHN1KBDS7_10serde_json3ser10SerializerQINtNtCs2ocB3yIIgEv_5alloc3vec3VechENtB1L_15PrettyFormatterEEBa_
FN:255,_RINvMs0_NtNtNtCscu9j8SGJFlb_27fireworks_collaboration_lib4core10credential5auditNtB6_11AuditLogger13with_log_filepEBc_
FN:263,_RNCINvMs0_NtNtNtCscu9j8SGJFlb_27fireworks_collaboration_lib4core10credential5auditNtB8_11AuditLogger13with_log_filepE0Be_
FN:465,_RNCNvMs0_NtNtNtCscu9j8SGJFlb_27fireworks_collaboration_lib4core10credential5auditNtB7_11AuditLogger10get_events0Bd_
FN:484,_RNCNvMs0_NtNtNtCscu9j8SGJFlb_27fireworks_collaboration_lib4core10credential5auditNtB7_11AuditLogger11event_count0Bd_
FN:425,_RNCNvMs0_NtNtNtCscu9j8SGJFlb_27fireworks_collaboration_lib4core10credential5auditNtB7_11AuditLogger12save_to_file0Bd_
FN:427,_RNCNvMs0_NtNtNtCscu9j8SGJFlb_27fireworks_collaboration_lib4core10credential5auditNtB7_11AuditLogger12save_to_files_0Bd_
FN:327,_RNCNvMs0_NtNtNtCscu9j8SGJFlb_27fireworks_collaboration_lib4core10credential5auditNtB7_11AuditLogger13log_operation0Bd_
FN:373,_RNCNvMs0_NtNtNtCscu9j8SGJFlb_27fireworks_collaboration_lib4core10credential5auditNtB7_11AuditLogger14append_to_file0Bd_
FN:386,_RNCNvMs0_NtNtNtCscu9j8SGJFlb_27fireworks_collaboration_lib4core10credential5auditNtB7_11AuditLogger14append_to_files0_0Bd_
FN:383,_RNCNvMs0_NtNtNtCscu9j8SGJFlb_27fireworks_collaboration_lib4core10credential5auditNtB7_11AuditLogger14append_to_files_0Bd_
FN:479,_RNCNvMs0_NtNtNtCscu9j8SGJFlb_27fireworks_collaboration_lib4core10credential5auditNtB7_11AuditLogger14export_to_json0Bd_
FN:357,_RNCNvMs0_NtNtNtCscu9j8SGJFlb_27fireworks_collaboration_lib4core10credential5auditNtB7_11AuditLogger14load_from_file0Bd_
FN:360,_RNCNvMs0_NtNtNtCscu9j8SGJFlb_27fireworks_collaboration_lib4core10credential5auditNtB7_11AuditLogger14load_from_files_0Bd_
FN:457,_RNCNvMs0_NtNtNtCscu9j8SGJFlb_27fireworks_collaboration_lib4core10credential5auditNtB7_11AuditLogger18remaining_attempts0Bd_
FN:405,_RNCNvMs0_NtNtNtCscu9j8SGJFlb_27fireworks_collaboration_lib4core10credential5auditNtB7_11AuditLogger20cleanup_expired_logs0Bd_
FN:435,_RNCNvMs0_NtNtNtCscu9j8SGJFlb_27fireworks_collaboration_lib4core10credential5auditNtB7_11AuditLogger9is_locked0Bd_
FN:462,_RNvMs0_NtNtNtCscu9j8SGJFlb_27fireworks_collaboration_lib4core10credential5auditNtB5_11AuditLogger10get_events
FN:483,_RNvMs0_NtNtNtCscu9j8SGJFlb_27fireworks_collaboration_lib4core10credential5auditNtB5_11AuditLogger11event_count
FN:424,_RNvMs0_NtNtNtCscu9j8SGJFlb_27fireworks_collaboration_lib4core10credential5auditNtB5_11AuditLogger12save_to_file
FN:285,_RNvMs0_NtNtNtCscu9j8SGJFlb_27fireworks_collaboration_lib4core10credential5auditNtB5_11AuditLogger13generate_salt
FN:488,_RNvMs0_NtNtNtCscu9j8SGJFlb_27fireworks_collaboration_lib4core10credential5auditNtB5_11AuditLogger13is_audit_mode
FN:317,_RNvMs0_NtNtNtCscu9j8SGJFlb_27fireworks_collaboration_lib4core10credential5auditNtB5_11AuditLogger13log_operation
FN:370,_RNvMs0_NtNtNtCscu9j8SGJFlb_27fireworks_collaboration_lib4core10credential5auditNtB5_11AuditLogger14append_to_file
FN:477,_RNvMs0_NtNtNtCscu9j8SGJFlb_27fireworks_collaboration_lib4core10credential5auditNtB5_11AuditLogger14export_to_json
FN:356,_RNvMs0_NtNtNtCscu9j8SGJFlb_27fireworks_collaboration_lib4core10credential5auditNtB5_11AuditLogger14load_from_file
FN:454,_RNvMs0_NtNtNtCscu9j8SGJFlb_27fireworks_collaboration_lib4core10credential5auditNtB5_11AuditLogger18remaining_attempts
FN:440,_RNvMs0_NtNtNtCscu9j8SGJFlb_27fireworks_collaboration_lib4core10credential5auditNtB5_11AuditLogger19record_auth_failure
FN:400,_RNvMs0_NtNtNtCscu9j8SGJFlb_27fireworks_collaboration_lib4core10credential5auditNtB5_11AuditLogger20cleanup_expired_logs
FN:447,_RNvMs0_NtNtNtCscu9j8SGJFlb_27fireworks_collaboration_lib4core10credential5auditNtB5_11AuditLogger20reset_access_control
FN:297,_RNvMs0_NtNtNtCscu9j8SGJFlb_27fireworks_collaboration_lib4core10credential5auditNtB5_11AuditLogger23compute_credential_hash
FN:239,_RNvMs0_NtNtNtCscu9j8SGJFlb_27fireworks_collaboration_lib4core10credential5auditNtB5_11AuditLogger3new
FN:470,_RNvMs0_NtNtNtCscu9j8SGJFlb_27fireworks_collaboration_lib4core10credential5auditNtB5_11AuditLogger5clear
FN:432,_RNvMs0_NtNtNtCscu9j8SGJFlb_27fireworks_collaboration_lib4core10credential5auditNtB5_11AuditLogger9is_locked
FN:197,_RNvMs_NtNtNtCscu9j8SGJFlb_27fireworks_collaboration_lib4core10credential5auditNtB4_13AccessControl14record_failure
FN:185,_RNvMs_NtNtNtCscu9j8SGJFlb_27fireworks_collaboration_lib4core10credential5auditNtB4_13AccessControl3new
FN:225,_RNvMs_NtNtNtCscu9j8SGJFlb_27fireworks_collaboration_lib4core10credential5auditNtB4_13AccessControl5reset
FN:209,_RNvMs_NtNtNtCscu9j8SGJFlb_27fireworks_collaboration_lib4core10credential5auditNtB4_13AccessControl9is_locked
FN:61,_RNvXNtNtNtCscu9j8SGJFlb_27fireworks_collaboration_lib4core10credential5auditNtB2_13OperationTypeNtNtCs5cb5cxfFw7H_4core3fmt7Display3fmt
FN:494,_RNvXs1_NtNtNtCscu9j8SGJFlb_27fireworks_collaboration_lib4core10credential5auditNtB5_11AuditLoggerNtNtCs5cb5cxfFw7H_4core7default7Default7default
FN:500,_RNvXs2_NtNtNtCscu9j8SGJFlb_27fireworks_collaboration_lib4core10credential5auditNtB5_11AuditLoggerNtNtCs5cb5cxfFw7H_4core5clone5Clone5clone
FN:255,_RINvMs0_NtNtNtCscu9j8SGJFlb_27fireworks_collaboration_lib4core10credential5auditNtB6_11AuditLogger13with_log_fileNtNtCsja4ZeDc2XAj_3std4path7PathBufECsgV7FHrbFFzv_8commands
FN:263,_RNCINvMs0_NtNtNtCscu9j8SGJFlb_27fireworks_collaboration_lib4core10credential5auditNtB8_11AuditLogger13with_log_fileNtNtCsja4ZeDc2XAj_3std4path7PathBufE0CsgV7FHrbFFzv_8commands
FN:255,_RINvMs0_NtNtNtCscu9j8SGJFlb_27fireworks_collaboration_lib4core10credential5auditNtB6_11AuditLogger13with_log_fileNtNtCsja4ZeDc2XAj_3std4path7PathBufECs6f5WSNyTS02_10credential
FN:255,_RINvMs0_NtNtNtCscu9j8SGJFlb_27fireworks_collaboration_lib4core10credential5auditNtB6_11AuditLogger13with_log_fileRNtNtCsja4ZeDc2XAj_3std4path7PathBufECs6f5WSNyTS02_10credential
FN:263,_RNCINvMs0_NtNtNtCscu9j8SGJFlb_27fireworks_collaboration_lib4core10credential5auditNtB8_11AuditLogger13with_log_fileNtNtCsja4ZeDc2XAj_3std4path7PathBufE0Cs6f5WSNyTS02_10credential
FN:263,_RNCINvMs0_NtNtNtCscu9j8SGJFlb_27fireworks_collaboration_lib4core10credential5auditNtB8_11AuditLogger13with_log_fileRNtNtCsja4ZeDc2XAj_3std4path7PathBufE0Cs6f5WSNyTS02_10credential
FN:109,_RINvNtNtNtNtCscu9j8SGJFlb_27fireworks_collaboration_lib4core10credential5audit17system_time_serde9serializeINtNtCshLSHN1KBDS7_10serde_json3ser18RawValueStrEmitterQINtNtCs2ocB3yIIgEv_5alloc3vec3VechENtB1K_16CompactFormatterEECs6f5WSNyTS02_10credential
FN:109,_RINvNtNtNtNtCscu9j8SGJFlb_27fireworks_collaboration_lib4core10credential5audit17system_time_serde9serializeQINtNtCshLSHN1KBDS7_10serde_json3ser10SerializerQINtNtCs2ocB3yIIgEv_5alloc3vec3VechEEECs6f5WSNyTS02_10credential
FN:255,_RINvMs0_NtNtNtCsfvgE7hV3dwJ_27fireworks_collaboration_lib4core10credential5auditNtB6_11AuditLogger13with_log_filepEBc_
FN:119,_RINvNtNtNtNtCsfvgE7hV3dwJ_27fireworks_collaboration_lib4core10credential5audit17system_time_serde11deserializepEBa_
FN:109,_RINvNtNtNtNtCsfvgE7hV3dwJ_27fireworks_collaboration_lib4core10credential5audit17system_time_serde9serializepEBa_
FN:263,_RNCINvMs0_NtNtNtCsfvgE7hV3dwJ_27fireworks_collaboration_lib4core10credential5auditNtB8_11AuditLogger13with_log_filepE0Be_
FN:465,_RNCNvMs0_NtNtNtCsfvgE7hV3dwJ_27fireworks_collaboration_lib4core10credential5auditNtB7_11AuditLogger10get_events0Bd_
FN:484,_RNCNvMs0_NtNtNtCsfvgE7hV3dwJ_27fireworks_collaboration_lib4core10credential5auditNtB7_11AuditLogger11event_count0Bd_
FN:425,_RNCNvMs0_NtNtNtCsfvgE7hV3dwJ_27fireworks_collaboration_lib4core10credential5auditNtB7_11AuditLogger12save_to_file0Bd_
FN:427,_RNCNvMs0_NtNtNtCsfvgE7hV3dwJ_27fireworks_collaboration_lib4core10credential5auditNtB7_11AuditLogger12save_to_files_0Bd_
FN:327,_RNCNvMs0_NtNtNtCsfvgE7hV3dwJ_27fireworks_collaboration_lib4core10credential5auditNtB7_11AuditLogger13log_operation0Bd_
FN:373,_RNCNvMs0_NtNtNtCsfvgE7hV3dwJ_27fireworks_collaboration_lib4core10credential5auditNtB7_11AuditLogger14append_to_file0Bd_
FN:386,_RNCNvMs0_NtNtNtCsfvgE7hV3dwJ_27fireworks_collaboration_lib4core10credential5auditNtB7_11AuditLogger14append_to_files0_0Bd_
FN:383,_RNCNvMs0_NtNtNtCsfvgE7hV3dwJ_27fireworks_collaboration_lib4core10credential5auditNtB7_11AuditLogger14append_to_files_0Bd_
FN:479,_RNCNvMs0_NtNtNtCsfvgE7hV3dwJ_27fireworks_collaboration_lib4core10credential5auditNtB7_11AuditLogger14export_to_json0Bd_
FN:357,_RNCNvMs0_NtNtNtCsfvgE7hV3dwJ_27fireworks_collaboration_lib4core10credential5auditNtB7_11AuditLogger14load_from_file0Bd_
FN:360,_RNCNvMs0_NtNtNtCsfvgE7hV3dwJ_27fireworks_collaboration_lib4core10credential5auditNtB7_11AuditLogger14load_from_files_0Bd_
FN:457,_RNCNvMs0_NtNtNtCsfvgE7hV3dwJ_27fireworks_collaboration_lib4core10credential5auditNtB7_11AuditLogger18remaining_attempts0Bd_
FN:405,_RNCNvMs0_NtNtNtCsfvgE7hV3dwJ_27fireworks_collaboration_lib4core10credential5auditNtB7_11AuditLogger20cleanup_expired_logs0Bd_
FN:435,_RNCNvMs0_NtNtNtCsfvgE7hV3dwJ_27fireworks_collaboration_lib4core10credential5auditNtB7_11AuditLogger9is_locked0Bd_
FN:462,_RNvMs0_NtNtNtCsfvgE7hV3dwJ_27fireworks_collaboration_lib4core10credential5auditNtB5_11AuditLogger10get_events
FN:483,_RNvMs0_NtNtNtCsfvgE7hV3dwJ_27fireworks_collaboration_lib4core10credential5auditNtB5_11AuditLogger11event_count
FN:424,_RNvMs0_NtNtNtCsfvgE7hV3dwJ_27fireworks_collaboration_lib4core10credential5auditNtB5_11AuditLogger12save_to_file
FN:285,_RNvMs0_NtNtNtCsfvgE7hV3dwJ_27fireworks_collaboration_lib4core10credential5auditNtB5_11AuditLogger13generate_salt
FN:488,_RNvMs0_NtNtNtCsfvgE7hV3dwJ_27fireworks_collaboration_lib4core10credential5auditNtB5_11AuditLogger13is_audit_mode
FN:317,_RNvMs0_NtNtNtCsfvgE7hV3dwJ_27fireworks_collaboration_lib4core10credential5auditNtB5_11AuditLogger13log_operation
FN:370,_RNvMs0_NtNtNtCsfvgE7hV3dwJ_27fireworks_collaboration_lib4core10credential5auditNtB5_11AuditLogger14append_to_file
FN:477,_RNvMs0_NtNtNtCsfvgE7hV3dwJ_27fireworks_collaboration_lib4core10credential5auditNtB5_11AuditLogger14export_to_json
FN:356,_RNvMs0_NtNtNtCsfvgE7hV3dwJ_27fireworks_collaboration_lib4core10credential5auditNtB5_11AuditLogger14load_from_file
FN:454,_RNvMs0_NtNtNtCsfvgE7hV3dwJ_27fireworks_collaboration_lib4core10credential5auditNtB5_11AuditLogger18remaining_attempts
FN:440,_RNvMs0_NtNtNtCsfvgE7hV3dwJ_27fireworks_collaboration_lib4core10credential5auditNtB5_11AuditLogger19record_auth_failure
FN:400,_RNvMs0_NtNtNtCsfvgE7hV3dwJ_27fireworks_collaboration_lib4core10credential5auditNtB5_11AuditLogger20cleanup_expired_logs
FN:447,_RNvMs0_NtNtNtCsfvgE7hV3dwJ_27fireworks_collaboration_lib4core10credential5auditNtB5_11AuditLogger20reset_access_control
FN:297,_RNvMs0_NtNtNtCsfvgE7hV3dwJ_27fireworks_collaboration_lib4core10credential5auditNtB5_11AuditLogger23compute_credential_hash
FN:239,_RNvMs0_NtNtNtCsfvgE7hV3dwJ_27fireworks_collaboration_lib4core10credential5auditNtB5_11AuditLogger3new
FN:470,_RNvMs0_NtNtNtCsfvgE7hV3dwJ_27fireworks_collaboration_lib4core10credential5auditNtB5_11AuditLogger5clear
FN:432,_RNvMs0_NtNtNtCsfvgE7hV3dwJ_27fireworks_collaboration_lib4core10credential5auditNtB5_11AuditLogger9is_locked
FN:197,_RNvMs_NtNtNtCsfvgE7hV3dwJ_27fireworks_collaboration_lib4core10credential5auditNtB4_13AccessControl14record_failure
FN:185,_RNvMs_NtNtNtCsfvgE7hV3dwJ_27fireworks_collaboration_lib4core10credential5auditNtB4_13AccessControl3new
FN:225,_RNvMs_NtNtNtCsfvgE7hV3dwJ_27fireworks_collaboration_lib4core10credential5auditNtB4_13AccessControl5reset
FN:209,_RNvMs_NtNtNtCsfvgE7hV3dwJ_27fireworks_collaboration_lib4core10credential5auditNtB4_13AccessControl9is_locked
FN:61,_RNvXNtNtNtCsfvgE7hV3dwJ_27fireworks_collaboration_lib4core10credential5auditNtB2_13OperationTypeNtNtCs5cb5cxfFw7H_4core3fmt7Display3fmt
FN:494,_RNvXs1_NtNtNtCsfvgE7hV3dwJ_27fireworks_collaboration_lib4core10credential5auditNtB5_11AuditLoggerNtNtCs5cb5cxfFw7H_4core7default7Default7default
FN:500,_RNvXs2_NtNtNtCsfvgE7hV3dwJ_27fireworks_collaboration_lib4core10credential5auditNtB5_11AuditLoggerNtNtCs5cb5cxfFw7H_4core5clone5Clone5clone
FNDA:57,_RINvNtNtNtNtCscu9j8SGJFlb_27fireworks_collaboration_lib4core10credential5audit17system_time_serde11deserializeQINtNtCshLSHN1KBDS7_10serde_json2de12DeserializerNtNtB1Q_4read7StrReadEEBa_
FNDA:0,_RINvNtNtNtNtCscu9j8SGJFlb_27fireworks_collaboration_lib4core10credential5audit17system_time_serde9serializeINtNtCshLSHN1KBDS7_10serde_json3ser18RawValueStrEmitterINtNtNtNtCsja4ZeDc2XAj_3std2io8buffered9bufwriter9BufWriterNtNtB2J_2fs4FileENtB1K_15PrettyFormatterEEBa_
FNDA:0,_RINvNtNtNtNtCscu9j8SGJFlb_27fireworks_collaboration_lib4core10credential5audit17system_time_serde9serializeINtNtCshLSHN1KBDS7_10serde_json3ser18RawValueStrEmitterQINtNtCs2ocB3yIIgEv_5alloc3vec3VechENtB1K_15PrettyFormatterEEBa_
FNDA:80,_RINvNtNtNtNtCscu9j8SGJFlb_27fireworks_collaboration_lib4core10credential5audit17system_time_serde9serializeQINtNtCshLSHN1KBDS7_10serde_json3ser10SerializerINtNtNtNtCsja4ZeDc2XAj_3std2io8buffered9bufwriter9BufWriterNtNtB2C_2fs4FileENtB1L_15PrettyFormatterEEBa_
FNDA:10014,_RINvNtNtNtNtCscu9j8SGJFlb_27fireworks_collaboration_lib4core10credential5audit17system_time_serde9serializeQINtNtCshLSHN1KBDS7_10serde_json3ser10SerializerQINtNtCs2ocB3yIIgEv_5alloc3vec3VechENtB1L_15PrettyFormatterEEBa_
FNDA:0,_RINvMs0_NtNtNtCscu9j8SGJFlb_27fireworks_collaboration_lib4core10credential5auditNtB6_11AuditLogger13with_log_filepEBc_
FNDA:0,_RNCINvMs0_NtNtNtCscu9j8SGJFlb_27fireworks_collaboration_lib4core10credential5auditNtB8_11AuditLogger13with_log_filepE0Be_
FNDA:28,_RNCNvMs0_NtNtNtCscu9j8SGJFlb_27fireworks_collaboration_lib4core10credential5auditNtB7_11AuditLogger10get_events0Bd_
FNDA:14,_RNCNvMs0_NtNtNtCscu9j8SGJFlb_27fireworks_collaboration_lib4core10credential5auditNtB7_11AuditLogger11event_count0Bd_
FNDA:0,_RNCNvMs0_NtNtNtCscu9j8SGJFlb_27fireworks_collaboration_lib4core10credential5auditNtB7_11AuditLogger12save_to_file0Bd_
FNDA:0,_RNCNvMs0_NtNtNtCscu9j8SGJFlb_27fireworks_collaboration_lib4core10credential5auditNtB7_11AuditLogger12save_to_files_0Bd_
FNDA:15092,_RNCNvMs0_NtNtNtCscu9j8SGJFlb_27fireworks_collaboration_lib4core10credential5auditNtB7_11AuditLogger13log_operation0Bd_
FNDA:0,_RNCNvMs0_NtNtNtCscu9j8SGJFlb_27fireworks_collaboration_lib4core10credential5auditNtB7_11AuditLogger14append_to_file0Bd_
FNDA:0,_RNCNvMs0_NtNtNtCscu9j8SGJFlb_27fireworks_collaboration_lib4core10credential5auditNtB7_11AuditLogger14append_to_files0_0Bd_
FNDA:0,_RNCNvMs0_NtNtNtCscu9j8SGJFlb_27fireworks_collaboration_lib4core10credential5auditNtB7_11AuditLogger14append_to_files_0Bd_
FNDA:0,_RNCNvMs0_NtNtNtCscu9j8SGJFlb_27fireworks_collaboration_lib4core10credential5auditNtB7_11AuditLogger14export_to_json0Bd_
FNDA:0,_RNCNvMs0_NtNtNtCscu9j8SGJFlb_27fireworks_collaboration_lib4core10credential5auditNtB7_11AuditLogger14load_from_file0Bd_
FNDA:1,_RNCNvMs0_NtNtNtCscu9j8SGJFlb_27fireworks_collaboration_lib4core10credential5auditNtB7_11AuditLogger14load_from_files_0Bd_
FNDA:11,_RNCNvMs0_NtNtNtCscu9j8SGJFlb_27fireworks_collaboration_lib4core10credential5auditNtB7_11AuditLogger18remaining_attempts0Bd_
FNDA:13,_RNCNvMs0_NtNtNtCscu9j8SGJFlb_27fireworks_collaboration_lib4core10credential5auditNtB7_11AuditLogger20cleanup_expired_logs0Bd_
FNDA:16,_RNCNvMs0_NtNtNtCscu9j8SGJFlb_27fireworks_collaboration_lib4core10credential5auditNtB7_11AuditLogger9is_locked0Bd_
FNDA:28,_RNvMs0_NtNtNtCscu9j8SGJFlb_27fireworks_collaboration_lib4core10credential5auditNtB5_11AuditLogger10get_events
FNDA:14,_RNvMs0_NtNtNtCscu9j8SGJFlb_27fireworks_collaboration_lib4core10credential5auditNtB5_11AuditLogger11event_count
FNDA:2,_RNvMs0_NtNtNtCscu9j8SGJFlb_27fireworks_collaboration_lib4core10credential5auditNtB5_11AuditLogger12save_to_file
FNDA:52,_RNvMs0_NtNtNtCscu9j8SGJFlb_27fireworks_collaboration_lib4core10credential5auditNtB5_11AuditLogger13generate_salt
FNDA:2,_RNvMs0_NtNtNtCscu9j8SGJFlb_27fireworks_collaboration_lib4core10credential5auditNtB5_11AuditLogger13is_audit_mode
FNDA:15131,_RNvMs0_NtNtNtCscu9j8SGJFlb_27fireworks_collaboration_lib4core10credential5auditNtB5_11AuditLogger13log_operation
FNDA:24,_RNvMs0_NtNtNtCscu9j8SGJFlb_27fireworks_collaboration_lib4core10credential5auditNtB5_11AuditLogger14append_to_file
FNDA:6,_RNvMs0_NtNtNtCscu9j8SGJFlb_27fireworks_collaboration_lib4core10credential5auditNtB5_11AuditLogger14export_to_json
FNDA:3,_RNvMs0_NtNtNtCscu9j8SGJFlb_27fireworks_collaboration_lib4core10credential5auditNtB5_11AuditLogger14load_from_file
FNDA:11,_RNvMs0_NtNtNtCscu9j8SGJFlb_27fireworks_collaboration_lib4core10credential5auditNtB5_11AuditLogger18remaining_attempts
FNDA:29,_RNvMs0_NtNtNtCscu9j8SGJFlb_27fireworks_collaboration_lib4core10credential5auditNtB5_11AuditLogger19record_auth_failure
FNDA:4,_RNvMs0_NtNtNtCscu9j8SGJFlb_27fireworks_collaboration_lib4core10credential5auditNtB5_11AuditLogger20cleanup_expired_logs
FNDA:4,_RNvMs0_NtNtNtCscu9j8SGJFlb_27fireworks_collaboration_lib4core10credential5auditNtB5_11AuditLogger20reset_access_control
FNDA:15092,_RNvMs0_NtNtNtCscu9j8SGJFlb_27fireworks_collaboration_lib4core10credential5auditNtB5_11AuditLogger23compute_credential_hash
FNDA:52,_RNvMs0_NtNtNtCscu9j8SGJFlb_27fireworks_collaboration_lib4core10credential5auditNtB5_11AuditLogger3new
FNDA:2,_RNvMs0_NtNtNtCscu9j8SGJFlb_27fireworks_collaboration_lib4core10credential5auditNtB5_11AuditLogger5clear
FNDA:16,_RNvMs0_NtNtNtCscu9j8SGJFlb_27fireworks_collaboration_lib4core10credential5auditNtB5_11AuditLogger9is_locked
FNDA:29,_RNvMs_NtNtNtCscu9j8SGJFlb_27fireworks_collaboration_lib4core10credential5auditNtB4_13AccessControl14record_failure
FNDA:52,_RNvMs_NtNtNtCscu9j8SGJFlb_27fireworks_collaboration_lib4core10credential5auditNtB4_13AccessControl3new
FNDA:4,_RNvMs_NtNtNtCscu9j8SGJFlb_27fireworks_collaboration_lib4core10credential5auditNtB4_13AccessControl5reset
FNDA:16,_RNvMs_NtNtNtCscu9j8SGJFlb_27fireworks_collaboration_lib4core10credential5auditNtB4_13AccessControl9is_locked
FNDA:4,_RNvXNtNtNtCscu9j8SGJFlb_27fireworks_collaboration_lib4core10credential5auditNtB2_13OperationTypeNtNtCs5cb5cxfFw7H_4core3fmt7Display3fmt
FNDA:0,_RNvXs1_NtNtNtCscu9j8SGJFlb_27fireworks_collaboration_lib4core10credential5auditNtB5_11AuditLoggerNtNtCs5cb5cxfFw7H_4core7default7Default7default
FNDA:5,_RNvXs2_NtNtNtCscu9j8SGJFlb_27fireworks_collaboration_lib4core10credential5auditNtB5_11AuditLoggerNtNtCs5cb5cxfFw7H_4core5clone5Clone5clone
FNDA:5,_RINvMs0_NtNtNtCscu9j8SGJFlb_27fireworks_collaboration_lib4core10credential5auditNtB6_11AuditLogger13with_log_fileNtNtCsja4ZeDc2XAj_3std4path7PathBufECsgV7FHrbFFzv_8commands
FNDA:0,_RNCINvMs0_NtNtNtCscu9j8SGJFlb_27fireworks_collaboration_lib4core10credential5auditNtB8_11AuditLogger13with_log_fileNtNtCsja4ZeDc2XAj_3std4path7PathBufE0CsgV7FHrbFFzv_8commands
FNDA:3,_RINvMs0_NtNtNtCscu9j8SGJFlb_27fireworks_collaboration_lib4core10credential5auditNtB6_11AuditLogger13with_log_fileNtNtCsja4ZeDc2XAj_3std4path7PathBufECs6f5WSNyTS02_10credential
FNDA:6,_RINvMs0_NtNtNtCscu9j8SGJFlb_27fireworks_collaboration_lib4core10credential5auditNtB6_11AuditLogger13with_log_fileRNtNtCsja4ZeDc2XAj_3std4path7PathBufECs6f5WSNyTS02_10credential
FNDA:0,_RNCINvMs0_NtNtNtCscu9j8SGJFlb_27fireworks_collaboration_lib4core10credential5auditNtB8_11AuditLogger13with_log_fileNtNtCsja4ZeDc2XAj_3std4path7PathBufE0Cs6f5WSNyTS02_10credential
FNDA:0,_RNCINvMs0_NtNtNtCscu9j8SGJFlb_27fireworks_collaboration_lib4core10credential5auditNtB8_11AuditLogger13with_log_fileRNtNtCsja4ZeDc2XAj_3std4path7PathBufE0Cs6f5WSNyTS02_10credential
FNDA:0,_RINvNtNtNtNtCscu9j8SGJFlb_27fireworks_collaboration_lib4core10credential5audit17system_time_serde9serializeINtNtCshLSHN1KBDS7_10serde_json3ser18RawValueStrEmitterQINtNtCs2ocB3yIIgEv_5alloc3vec3VechENtB1K_16CompactFormatterEECs6f5WSNyTS02_10credential
FNDA:1,_RINvNtNtNtNtCscu9j8SGJFlb_27fireworks_collaboration_lib4core10credential5audit17system_time_serde9serializeQINtNtCshLSHN1KBDS7_10serde_json3ser10SerializerQINtNtCs2ocB3yIIgEv_5alloc3vec3VechEEECs6f5WSNyTS02_10credential
FNDA:0,_RINvMs0_NtNtNtCsfvgE7hV3dwJ_27fireworks_collaboration_lib4core10credential5auditNtB6_11AuditLogger13with_log_filepEBc_
FNDA:0,_RINvNtNtNtNtCsfvgE7hV3dwJ_27fireworks_collaboration_lib4core10credential5audit17system_time_serde11deserializepEBa_
FNDA:0,_RINvNtNtNtNtCsfvgE7hV3dwJ_27fireworks_collaboration_lib4core10credential5audit17system_time_serde9serializepEBa_
FNDA:0,_RNCINvMs0_NtNtNtCsfvgE7hV3dwJ_27fireworks_collaboration_lib4core10credential5auditNtB8_11AuditLogger13with_log_filepE0Be_
FNDA:0,_RNCNvMs0_NtNtNtCsfvgE7hV3dwJ_27fireworks_collaboration_lib4core10credential5auditNtB7_11AuditLogger10get_events0Bd_
FNDA:0,_RNCNvMs0_NtNtNtCsfvgE7hV3dwJ_27fireworks_collaboration_lib4core10credential5auditNtB7_11AuditLogger11event_count0Bd_
FNDA:0,_RNCNvMs0_NtNtNtCsfvgE7hV3dwJ_27fireworks_collaboration_lib4core10credential5auditNtB7_11AuditLogger12save_to_file0Bd_
FNDA:0,_RNCNvMs0_NtNtNtCsfvgE7hV3dwJ_27fireworks_collaboration_lib4core10credential5auditNtB7_11AuditLogger12save_to_files_0Bd_
FNDA:0,_RNCNvMs0_NtNtNtCsfvgE7hV3dwJ_27fireworks_collaboration_lib4core10credential5auditNtB7_11AuditLogger13log_operation0Bd_
FNDA:0,_RNCNvMs0_NtNtNtCsfvgE7hV3dwJ_27fireworks_collaboration_lib4core10credential5auditNtB7_11AuditLogger14append_to_file0Bd_
FNDA:0,_RNCNvMs0_NtNtNtCsfvgE7hV3dwJ_27fireworks_collaboration_lib4core10credential5auditNtB7_11AuditLogger14append_to_files0_0Bd_
FNDA:0,_RNCNvMs0_NtNtNtCsfvgE7hV3dwJ_27fireworks_collaboration_lib4core10credential5auditNtB7_11AuditLogger14append_to_files_0Bd_
FNDA:0,_RNCNvMs0_NtNtNtCsfvgE7hV3dwJ_27fireworks_collaboration_lib4core10credential5auditNtB7_11AuditLogger14export_to_json0Bd_
FNDA:0,_RNCNvMs0_NtNtNtCsfvgE7hV3dwJ_27fireworks_collaboration_lib4core10credential5auditNtB7_11AuditLogger14load_from_file0Bd_
FNDA:0,_RNCNvMs0_NtNtNtCsfvgE7hV3dwJ_27fireworks_collaboration_lib4core10credential5auditNtB7_11AuditLogger14load_from_files_0Bd_
FNDA:0,_RNCNvMs0_NtNtNtCsfvgE7hV3dwJ_27fireworks_collaboration_lib4core10credential5auditNtB7_11AuditLogger18remaining_attempts0Bd_
FNDA:0,_RNCNvMs0_NtNtNtCsfvgE7hV3dwJ_27fireworks_collaboration_lib4core10credential5auditNtB7_11AuditLogger20cleanup_expired_logs0Bd_
FNDA:0,_RNCNvMs0_NtNtNtCsfvgE7hV3dwJ_27fireworks_collaboration_lib4core10credential5auditNtB7_11AuditLogger9is_locked0Bd_
FNDA:0,_RNvMs0_NtNtNtCsfvgE7hV3dwJ_27fireworks_collaboration_lib4core10credential5auditNtB5_11AuditLogger10get_events
FNDA:0,_RNvMs0_NtNtNtCsfvgE7hV3dwJ_27fireworks_collaboration_lib4core10credential5auditNtB5_11AuditLogger11event_count
FNDA:0,_RNvMs0_NtNtNtCsfvgE7hV3dwJ_27fireworks_collaboration_lib4core10credential5auditNtB5_11AuditLogger12save_to_file
FNDA:0,_RNvMs0_NtNtNtCsfvgE7hV3dwJ_27fireworks_collaboration_lib4core10credential5auditNtB5_11AuditLogger13generate_salt
FNDA:0,_RNvMs0_NtNtNtCsfvgE7hV3dwJ_27fireworks_collaboration_lib4core10credential5auditNtB5_11AuditLogger13is_audit_mode
FNDA:0,_RNvMs0_NtNtNtCsfvgE7hV3dwJ_27fireworks_collaboration_lib4core10credential5auditNtB5_11AuditLogger13log_operation
FNDA:0,_RNvMs0_NtNtNtCsfvgE7hV3dwJ_27fireworks_collaboration_lib4core10credential5auditNtB5_11AuditLogger14append_to_file
FNDA:0,_RNvMs0_NtNtNtCsfvgE7hV3dwJ_27fireworks_collaboration_lib4core10credential5auditNtB5_11AuditLogger14export_to_json
FNDA:0,_RNvMs0_NtNtNtCsfvgE7hV3dwJ_27fireworks_collaboration_lib4core10credential5auditNtB5_11AuditLogger14load_from_file
FNDA:0,_RNvMs0_NtNtNtCsfvgE7hV3dwJ_27fireworks_collaboration_lib4core10credential5auditNtB5_11AuditLogger18remaining_attempts
FNDA:0,_RNvMs0_NtNtNtCsfvgE7hV3dwJ_27fireworks_collaboration_lib4core10credential5auditNtB5_11AuditLogger19record_auth_failure
FNDA:0,_RNvMs0_NtNtNtCsfvgE7hV3dwJ_27fireworks_collaboration_lib4core10credential5auditNtB5_11AuditLogger20cleanup_expired_logs
FNDA:0,_RNvMs0_NtNtNtCsfvgE7hV3dwJ_27fireworks_collaboration_lib4core10credential5auditNtB5_11AuditLogger20reset_access_control
FNDA:0,_RNvMs0_NtNtNtCsfvgE7hV3dwJ_27fireworks_collaboration_lib4core10credential5auditNtB5_11AuditLogger23compute_credential_hash
FNDA:0,_RNvMs0_NtNtNtCsfvgE7hV3dwJ_27fireworks_collaboration_lib4core10credential5auditNtB5_11AuditLogger3new
FNDA:0,_RNvMs0_NtNtNtCsfvgE7hV3dwJ_27fireworks_collaboration_lib4core10credential5auditNtB5_11AuditLogger5clear
FNDA:0,_RNvMs0_NtNtNtCsfvgE7hV3dwJ_27fireworks_collaboration_lib4core10credential5auditNtB5_11AuditLogger9is_locked
FNDA:0,_RNvMs_NtNtNtCsfvgE7hV3dwJ_27fireworks_collaboration_lib4core10credential5auditNtB4_13AccessControl14record_failure
FNDA:0,_RNvMs_NtNtNtCsfvgE7hV3dwJ_27fireworks_collaboration_lib4core10credential5auditNtB4_13AccessControl3new
FNDA:0,_RNvMs_NtNtNtCsfvgE7hV3dwJ_27fireworks_collaboration_lib4core10credential5auditNtB4_13AccessControl5reset
FNDA:0,_RNvMs_NtNtNtCsfvgE7hV3dwJ_27fireworks_collaboration_lib4core10credential5auditNtB4_13AccessControl9is_locked
FNDA:0,_RNvXNtNtNtCsfvgE7hV3dwJ_27fireworks_collaboration_lib4core10credential5auditNtB2_13OperationTypeNtNtCs5cb5cxfFw7H_4core3fmt7Display3fmt
FNDA:0,_RNvXs1_NtNtNtCsfvgE7hV3dwJ_27fireworks_collaboration_lib4core10credential5auditNtB5_11AuditLoggerNtNtCs5cb5cxfFw7H_4core7default7Default7default
FNDA:0,_RNvXs2_NtNtNtCsfvgE7hV3dwJ_27fireworks_collaboration_lib4core10credential5auditNtB5_11AuditLoggerNtNtCs5cb5cxfFw7H_4core5clone5Clone5clone
FNF:42
FNH:33
DA:61,4
DA:62,4
DA:63,1
DA:64,1
DA:65,1
DA:66,1
DA:67,0
DA:68,0
DA:69,0
DA:70,0
DA:72,4
DA:109,10095
DA:110,10095
DA:111,10095
DA:113,10095
DA:114,10095
DA:115,10095
DA:116,10095
DA:117,10095
DA:119,57
DA:120,57
DA:121,57
DA:123,57
DA:124,57
DA:125,57
DA:185,52
DA:186,52
DA:187,52
DA:188,52
DA:189,52
DA:190,52
DA:191,52
DA:192,52
DA:193,52
DA:194,52
DA:197,29
DA:198,29
DA:199,29
DA:201,29
DA:202,5
DA:203,5
DA:204,5
DA:205,24
DA:206,29
DA:209,16
DA:210,16
DA:211,11
DA:212,5
DA:215,5
DA:216,5
DA:217,0
DA:218,5
DA:219,0
DA:221,5
DA:222,16
DA:225,4
DA:226,4
DA:227,4
DA:228,4
DA:229,4
DA:230,4
DA:239,52
DA:240,52
DA:241,52
DA:242,52
DA:243,52
DA:244,52
DA:245,52
DA:246,52
DA:247,52
DA:255,14
DA:256,14
DA:257,14
DA:258,14
DA:259,14
DA:262,14
DA:263,14
DA:264,0
DA:266,14
DA:267,14
DA:270,14
DA:271,3
DA:273,2
DA:275,1
DA:276,1
DA:279,11
DA:281,14
DA:282,14
DA:285,52
DA:287,52
DA:288,52
DA:289,52
DA:290,52
DA:291,52
DA:292,52
DA:297,15092
DA:298,15092
DA:299,15092
DA:300,15092
DA:301,15092
DA:302,15092
DA:303,15092
DA:304,15092
DA:305,15092
DA:317,15131
DA:318,15131
DA:319,15131
DA:320,15131
DA:321,15131
DA:322,15131
DA:323,15131
DA:324,15131
DA:325,15131
DA:326,15131
DA:327,15097
DA:329,34
DA:332,15131
DA:333,15131
DA:334,15131
DA:335,15131
DA:336,15131
DA:337,15131
DA:338,15131
DA:339,15131
DA:340,15131
DA:343,15131
DA:344,15131
DA:345,15131
DA:348,15131
DA:349,24
DA:350,0
DA:351,24
DA:352,15107
DA:353,15131
DA:356,3
DA:357,3
DA:359,2
DA:360,3
DA:362,2
DA:363,2
DA:364,2
DA:366,2
DA:367,3
DA:370,24
DA:372,24
DA:373,16
DA:374,16
DA:376,8
DA:380,24
DA:383,24
DA:384,24
DA:385,24
DA:386,24
DA:388,24
DA:389,24
DA:400,4
DA:401,4
DA:403,4
DA:404,4
DA:405,13
DA:406,4
DA:409,4
DA:410,2
DA:411,0
DA:412,2
DA:413,2
DA:415,4
DA:417,0
DA:420,4
DA:421,4
DA:424,2
DA:425,2
DA:426,2
DA:427,2
DA:428,2
DA:429,2
DA:432,16
DA:433,16
DA:434,16
DA:435,16
DA:436,16
DA:437,16
DA:440,29
DA:441,29
DA:442,29
DA:443,29
DA:444,29
DA:447,4
DA:448,4
DA:449,4
DA:450,4
DA:451,4
DA:454,11
DA:455,11
DA:456,11
DA:457,11
DA:458,11
DA:459,11
DA:462,28
DA:463,28
DA:464,28
DA:465,28
DA:466,28
DA:467,28
DA:470,2
DA:471,2
DA:472,2
DA:473,2
DA:474,2
DA:477,6
DA:478,6
DA:479,6
DA:480,6
DA:483,14
DA:484,14
DA:485,14
DA:488,2
DA:489,2
DA:490,2
DA:494,0
DA:495,0
DA:496,0
DA:500,5
DA:501,5
DA:502,5
DA:503,5
DA:504,5
DA:505,5
DA:506,5
DA:507,5
DA:508,5
BRF:0
BRH:0
LF:246
LH:225
end_of_record
SF:C:\Users\34404\Documents\GitHub\fireworks-collaboration\src-tauri\src\core\credential\config.rs
FN:85,_RNvMs_NtNtNtCscu9j8SGJFlb_27fireworks_collaboration_lib4core10credential6configNtB4_16CredentialConfig12with_storage
FN:109,_RNvMs_NtNtNtCscu9j8SGJFlb_27fireworks_collaboration_lib4core10credential6configNtB4_16CredentialConfig14with_file_path
FN:103,_RNvMs_NtNtNtCscu9j8SGJFlb_27fireworks_collaboration_lib4core10credential6configNtB4_16CredentialConfig15with_audit_mode
FN:97,_RNvMs_NtNtNtCscu9j8SGJFlb_27fireworks_collaboration_lib4core10credential6configNtB4_16CredentialConfig18with_debug_logging
FN:137,_RNvMs_NtNtNtCscu9j8SGJFlb_27fireworks_collaboration_lib4core10credential6configNtB4_16CredentialConfig22effective_storage_type
FN:80,_RNvMs_NtNtNtCscu9j8SGJFlb_27fireworks_collaboration_lib4core10credential6configNtB4_16CredentialConfig3new
FN:115,_RNvMs_NtNtNtCscu9j8SGJFlb_27fireworks_collaboration_lib4core10credential6configNtB4_16CredentialConfig8validate
FN:91,_RNvMs_NtNtNtCscu9j8SGJFlb_27fireworks_collaboration_lib4core10credential6configNtB4_16CredentialConfig8with_ttl
FN:54,_RNvNtNtNtCscu9j8SGJFlb_27fireworks_collaboration_lib4core10credential6config19default_ttl_seconds
FN:59,_RNvNtNtNtCscu9j8SGJFlb_27fireworks_collaboration_lib4core10credential6config21default_key_cache_ttl
FN:65,_RNvXNtNtNtCscu9j8SGJFlb_27fireworks_collaboration_lib4core10credential6configNtB2_16CredentialConfigNtNtCs5cb5cxfFw7H_4core7default7Default7default
FN:85,_RNvMs_NtNtNtCsfvgE7hV3dwJ_27fireworks_collaboration_lib4core10credential6configNtB4_16CredentialConfig12with_storage
FN:109,_RNvMs_NtNtNtCsfvgE7hV3dwJ_27fireworks_collaboration_lib4core10credential6configNtB4_16CredentialConfig14with_file_path
FN:103,_RNvMs_NtNtNtCsfvgE7hV3dwJ_27fireworks_collaboration_lib4core10credential6configNtB4_16CredentialConfig15with_audit_mode
FN:97,_RNvMs_NtNtNtCsfvgE7hV3dwJ_27fireworks_collaboration_lib4core10credential6configNtB4_16CredentialConfig18with_debug_logging
FN:137,_RNvMs_NtNtNtCsfvgE7hV3dwJ_27fireworks_collaboration_lib4core10credential6configNtB4_16CredentialConfig22effective_storage_type
FN:80,_RNvMs_NtNtNtCsfvgE7hV3dwJ_27fireworks_collaboration_lib4core10credential6configNtB4_16CredentialConfig3new
FN:115,_RNvMs_NtNtNtCsfvgE7hV3dwJ_27fireworks_collaboration_lib4core10credential6configNtB4_16CredentialConfig8validate
FN:91,_RNvMs_NtNtNtCsfvgE7hV3dwJ_27fireworks_collaboration_lib4core10credential6configNtB4_16CredentialConfig8with_ttl
FN:54,_RNvNtNtNtCsfvgE7hV3dwJ_27fireworks_collaboration_lib4core10credential6config19default_ttl_seconds
FN:59,_RNvNtNtNtCsfvgE7hV3dwJ_27fireworks_collaboration_lib4core10credential6config21default_key_cache_ttl
FN:65,_RNvXNtNtNtCsfvgE7hV3dwJ_27fireworks_collaboration_lib4core10credential6configNtB2_16CredentialConfigNtNtCs5cb5cxfFw7H_4core7default7Default7default
FNDA:63,_RNvMs_NtNtNtCscu9j8SGJFlb_27fireworks_collaboration_lib4core10credential6configNtB4_16CredentialConfig12with_storage
FNDA:71,_RNvMs_NtNtNtCscu9j8SGJFlb_27fireworks_collaboration_lib4core10credential6configNtB4_16CredentialConfig14with_file_path
FNDA:2,_RNvMs_NtNtNtCscu9j8SGJFlb_27fireworks_collaboration_lib4core10credential6configNtB4_16CredentialConfig15with_audit_mode
FNDA:2,_RNvMs_NtNtNtCscu9j8SGJFlb_27fireworks_collaboration_lib4core10credential6configNtB4_16CredentialConfig18with_debug_logging
FNDA:4,_RNvMs_NtNtNtCscu9j8SGJFlb_27fireworks_collaboration_lib4core10credential6configNtB4_16CredentialConfig22effective_storage_type
FNDA:101,_RNvMs_NtNtNtCscu9j8SGJFlb_27fireworks_collaboration_lib4core10credential6configNtB4_16CredentialConfig3new
FNDA:9,_RNvMs_NtNtNtCscu9j8SGJFlb_27fireworks_collaboration_lib4core10credential6configNtB4_16CredentialConfig8validate
FNDA:13,_RNvMs_NtNtNtCscu9j8SGJFlb_27fireworks_collaboration_lib4core10credential6configNtB4_16CredentialConfig8with_ttl
FNDA:715,_RNvNtNtNtCscu9j8SGJFlb_27fireworks_collaboration_lib4core10credential6config19default_ttl_seconds
FNDA:715,_RNvNtNtNtCscu9j8SGJFlb_27fireworks_collaboration_lib4core10credential6config21default_key_cache_ttl
FNDA:714,_RNvXNtNtNtCscu9j8SGJFlb_27fireworks_collaboration_lib4core10credential6configNtB2_16CredentialConfigNtNtCs5cb5cxfFw7H_4core7default7Default7default
FNDA:0,_RNvMs_NtNtNtCsfvgE7hV3dwJ_27fireworks_collaboration_lib4core10credential6configNtB4_16CredentialConfig12with_storage
FNDA:0,_RNvMs_NtNtNtCsfvgE7hV3dwJ_27fireworks_collaboration_lib4core10credential6configNtB4_16CredentialConfig14with_file_path
FNDA:0,_RNvMs_NtNtNtCsfvgE7hV3dwJ_27fireworks_collaboration_lib4core10credential6configNtB4_16CredentialConfig15with_audit_mode
FNDA:0,_RNvMs_NtNtNtCsfvgE7hV3dwJ_27fireworks_collaboration_lib4core10credential6configNtB4_16CredentialConfig18with_debug_logging
FNDA:0,_RNvMs_NtNtNtCsfvgE7hV3dwJ_27fireworks_collaboration_lib4core10credential6configNtB4_16CredentialConfig22effective_storage_type
FNDA:0,_RNvMs_NtNtNtCsfvgE7hV3dwJ_27fireworks_collaboration_lib4core10credential6configNtB4_16CredentialConfig3new
FNDA:0,_RNvMs_NtNtNtCsfvgE7hV3dwJ_27fireworks_collaboration_lib4core10credential6configNtB4_16CredentialConfig8validate
FNDA:0,_RNvMs_NtNtNtCsfvgE7hV3dwJ_27fireworks_collaboration_lib4core10credential6configNtB4_16CredentialConfig8with_ttl
FNDA:0,_RNvNtNtNtCsfvgE7hV3dwJ_27fireworks_collaboration_lib4core10credential6config19default_ttl_seconds
FNDA:0,_RNvNtNtNtCsfvgE7hV3dwJ_27fireworks_collaboration_lib4core10credential6config21default_key_cache_ttl
FNDA:0,_RNvXNtNtNtCsfvgE7hV3dwJ_27fireworks_collaboration_lib4core10credential6configNtB2_16CredentialConfigNtNtCs5cb5cxfFw7H_4core7default7Default7default
FNF:11
FNH:11
DA:54,715
DA:56,715
DA:57,715
DA:59,715
DA:61,715
DA:62,715
DA:65,714
DA:66,714
DA:67,714
DA:68,714
DA:69,714
DA:70,714
DA:71,714
DA:72,714
DA:73,714
DA:74,714
DA:75,714
DA:80,101
DA:81,101
DA:82,101
DA:85,63
DA:86,63
DA:87,63
DA:88,63
DA:91,13
DA:92,13
DA:93,13
DA:94,13
DA:97,2
DA:98,2
DA:99,2
DA:100,2
DA:103,2
DA:104,2
DA:105,2
DA:106,2
DA:109,71
DA:110,71
DA:111,71
DA:112,71
DA:115,9
DA:117,9
DA:118,2
DA:119,7
DA:122,7
DA:123,7
DA:124,2
DA:125,5
DA:126,0
DA:129,5
DA:130,1
DA:131,4
DA:133,4
DA:134,9
DA:137,4
DA:140,4
DA:141,4
BRF:0
BRH:0
LF:57
LH:56
end_of_record
SF:C:\Users\34404\Documents\GitHub\fireworks-collaboration\src-tauri\src\core\credential\factory.rs
FN:166,_RNvMNtNtNtCscu9j8SGJFlb_27fireworks_collaboration_lib4core10credential7factoryNtB2_22CredentialStoreFactory18try_encrypted_file
FN:172,_RNvMNtNtNtCscu9j8SGJFlb_27fireworks_collaboration_lib4core10credential7factoryNtB2_22CredentialStoreFactory19create_memory_store
FN:153,_RNvMNtNtNtCscu9j8SGJFlb_27fireworks_collaboration_lib4core10credential7factoryNtB2_22CredentialStoreFactory19try_system_keychain
FN:123,_RNvMNtNtNtCscu9j8SGJFlb_27fireworks_collaboration_lib4core10credential7factoryNtB2_22CredentialStoreFactory6create
FN:168,_RNCNvMNtNtNtCscu9j8SGJFlb_27fireworks_collaboration_lib4core10credential7factoryNtB4_22CredentialStoreFactory18try_encrypted_file0Ba_
FN:155,_RNCNvMNtNtNtCscu9j8SGJFlb_27fireworks_collaboration_lib4core10credential7factoryNtB4_22CredentialStoreFactory19try_system_keychain0Ba_
FN:126,_RNCNvMNtNtNtCscu9j8SGJFlb_27fireworks_collaboration_lib4core10credential7factoryNtB4_22CredentialStoreFactory6create0Ba_
FN:140,_RNCNvMNtNtNtCscu9j8SGJFlb_27fireworks_collaboration_lib4core10credential7factoryNtB4_22CredentialStoreFactory6creates0_0Ba_
FN:133,_RNCNvMNtNtNtCscu9j8SGJFlb_27fireworks_collaboration_lib4core10credential7factoryNtB4_22CredentialStoreFactory6creates_0Ba_
FN:168,_RNCNvMNtNtNtCsfvgE7hV3dwJ_27fireworks_collaboration_lib4core10credential7factoryNtB4_22CredentialStoreFactory18try_encrypted_file0Ba_
FN:155,_RNCNvMNtNtNtCsfvgE7hV3dwJ_27fireworks_collaboration_lib4core10credential7factoryNtB4_22CredentialStoreFactory19try_system_keychain0Ba_
FN:126,_RNCNvMNtNtNtCsfvgE7hV3dwJ_27fireworks_collaboration_lib4core10credential7factoryNtB4_22CredentialStoreFactory6create0Ba_
FN:140,_RNCNvMNtNtNtCsfvgE7hV3dwJ_27fireworks_collaboration_lib4core10credential7factoryNtB4_22CredentialStoreFactory6creates0_0Ba_
FN:133,_RNCNvMNtNtNtCsfvgE7hV3dwJ_27fireworks_collaboration_lib4core10credential7factoryNtB4_22CredentialStoreFactory6creates_0Ba_
FN:166,_RNvMNtNtNtCsfvgE7hV3dwJ_27fireworks_collaboration_lib4core10credential7factoryNtB2_22CredentialStoreFactory18try_encrypted_file
FN:172,_RNvMNtNtNtCsfvgE7hV3dwJ_27fireworks_collaboration_lib4core10credential7factoryNtB2_22CredentialStoreFactory19create_memory_store
FN:153,_RNvMNtNtNtCsfvgE7hV3dwJ_27fireworks_collaboration_lib4core10credential7factoryNtB2_22CredentialStoreFactory19try_system_keychain
FN:123,_RNvMNtNtNtCsfvgE7hV3dwJ_27fireworks_collaboration_lib4core10credential7factoryNtB2_22CredentialStoreFactory6create
FNDA:5,_RNvMNtNtNtCscu9j8SGJFlb_27fireworks_collaboration_lib4core10credential7factoryNtB2_22CredentialStoreFactory18try_encrypted_file
FNDA:29,_RNvMNtNtNtCscu9j8SGJFlb_27fireworks_collaboration_lib4core10credential7factoryNtB2_22CredentialStoreFactory19create_memory_store
FNDA:4,_RNvMNtNtNtCscu9j8SGJFlb_27fireworks_collaboration_lib4core10credential7factoryNtB2_22CredentialStoreFactory19try_system_keychain
FNDA:35,_RNvMNtNtNtCscu9j8SGJFlb_27fireworks_collaboration_lib4core10credential7factoryNtB2_22CredentialStoreFactory6create
FNDA:2,_RNCNvMNtNtNtCscu9j8SGJFlb_27fireworks_collaboration_lib4core10credential7factoryNtB4_22CredentialStoreFactory18try_encrypted_file0Ba_
FNDA:4,_RNCNvMNtNtNtCscu9j8SGJFlb_27fireworks_collaboration_lib4core10credential7factoryNtB4_22CredentialStoreFactory19try_system_keychain0Ba_
FNDA:0,_RNCNvMNtNtNtCscu9j8SGJFlb_27fireworks_collaboration_lib4core10credential7factoryNtB4_22CredentialStoreFactory6create0Ba_
FNDA:3,_RNCNvMNtNtNtCscu9j8SGJFlb_27fireworks_collaboration_lib4core10credential7factoryNtB4_22CredentialStoreFactory6creates0_0Ba_
FNDA:0,_RNCNvMNtNtNtCscu9j8SGJFlb_27fireworks_collaboration_lib4core10credential7factoryNtB4_22CredentialStoreFactory6creates_0Ba_
FNDA:0,_RNCNvMNtNtNtCsfvgE7hV3dwJ_27fireworks_collaboration_lib4core10credential7factoryNtB4_22CredentialStoreFactory18try_encrypted_file0Ba_
FNDA:0,_RNCNvMNtNtNtCsfvgE7hV3dwJ_27fireworks_collaboration_lib4core10credential7factoryNtB4_22CredentialStoreFactory19try_system_keychain0Ba_
FNDA:0,_RNCNvMNtNtNtCsfvgE7hV3dwJ_27fireworks_collaboration_lib4core10credential7factoryNtB4_22CredentialStoreFactory6create0Ba_
FNDA:0,_RNCNvMNtNtNtCsfvgE7hV3dwJ_27fireworks_collaboration_lib4core10credential7factoryNtB4_22CredentialStoreFactory6creates0_0Ba_
FNDA:0,_RNCNvMNtNtNtCsfvgE7hV3dwJ_27fireworks_collaboration_lib4core10credential7factoryNtB4_22CredentialStoreFactory6creates_0Ba_
FNDA:0,_RNvMNtNtNtCsfvgE7hV3dwJ_27fireworks_collaboration_lib4core10credential7factoryNtB2_22CredentialStoreFactory18try_encrypted_file
FNDA:0,_RNvMNtNtNtCsfvgE7hV3dwJ_27fireworks_collaboration_lib4core10credential7factoryNtB2_22CredentialStoreFactory19create_memory_store
FNDA:0,_RNvMNtNtNtCsfvgE7hV3dwJ_27fireworks_collaboration_lib4core10credential7factoryNtB2_22CredentialStoreFactory19try_system_keychain
FNDA:0,_RNvMNtNtNtCsfvgE7hV3dwJ_27fireworks_collaboration_lib4core10credential7factoryNtB2_22CredentialStoreFactory6create
FNF:9
FNH:7
DA:123,35
DA:124,35
DA:125,4
DA:126,4
DA:127,0
DA:128,0
DA:131,0
DA:132,0
DA:133,4
DA:134,0
DA:135,0
DA:138,0
DA:139,0
DA:140,5
DA:141,3
DA:142,0
DA:145,3
DA:146,3
DA:147,26
DA:149,35
DA:153,4
DA:155,4
DA:156,4
DA:166,5
DA:168,5
DA:169,5
DA:172,29
DA:174,29
DA:175,29
BRF:0
BRH:0
LF:34
LH:23
end_of_record
SF:C:\Users\34404\Documents\GitHub\fireworks-collaboration\src-tauri\src\core\credential\file_store.rs
FN:214,_RNvXs1_NtNtNtCscu9j8SGJFlb_27fireworks_collaboration_lib4core10credential10file_storeNtNtB7_5model10CredentialINtNtCs5cb5cxfFw7H_4core7convert4FromNtB5_22SerializableCredentialE4from
FN:405,_RNCNvMs2_NtNtNtCscu9j8SGJFlb_27fireworks_collaboration_lib4core10credential10file_storeNtB7_18EncryptedFileStore10derive_key0Bd_
FN:416,_RNCNvMs2_NtNtNtCscu9j8SGJFlb_27fireworks_collaboration_lib4core10credential10file_storeNtB7_18EncryptedFileStore10derive_keys0_0Bd_
FN:411,_RNCNvMs2_NtNtNtCscu9j8SGJFlb_27fireworks_collaboration_lib4core10credential10file_storeNtB7_18EncryptedFileStore10derive_keys_0Bd_
FN:569,_RNCNvMs2_NtNtNtCscu9j8SGJFlb_27fireworks_collaboration_lib4core10credential10file_storeNtB7_18EncryptedFileStore16load_credentials0Bd_
FN:572,_RNCNvMs2_NtNtNtCscu9j8SGJFlb_27fireworks_collaboration_lib4core10credential10file_storeNtB7_18EncryptedFileStore16load_credentialss_0Bd_
FN:592,_RNCNvMs2_NtNtNtCscu9j8SGJFlb_27fireworks_collaboration_lib4core10credential10file_storeNtB7_18EncryptedFileStore16save_credentials0Bd_
FN:596,_RNCNvMs2_NtNtNtCscu9j8SGJFlb_27fireworks_collaboration_lib4core10credential10file_storeNtB7_18EncryptedFileStore16save_credentialss_0Bd_
FN:293,_RNCNvMs2_NtNtNtCscu9j8SGJFlb_27fireworks_collaboration_lib4core10credential10file_storeNtB7_18EncryptedFileStore3new0Bd_
FN:301,_RNCNvMs2_NtNtNtCscu9j8SGJFlb_27fireworks_collaboration_lib4core10credential10file_storeNtB7_18EncryptedFileStore3news_0Bd_
FN:508,_RNCNvMs2_NtNtNtCscu9j8SGJFlb_27fireworks_collaboration_lib4core10credential10file_storeNtB7_18EncryptedFileStore7decrypt0Bd_
FN:511,_RNCNvMs2_NtNtNtCscu9j8SGJFlb_27fireworks_collaboration_lib4core10credential10file_storeNtB7_18EncryptedFileStore7decrypts0_0Bd_
FN:518,_RNCNvMs2_NtNtNtCscu9j8SGJFlb_27fireworks_collaboration_lib4core10credential10file_storeNtB7_18EncryptedFileStore7decrypts1_0Bd_
FN:521,_RNCNvMs2_NtNtNtCscu9j8SGJFlb_27fireworks_collaboration_lib4core10credential10file_storeNtB7_18EncryptedFileStore7decrypts2_0Bd_
FN:525,_RNCNvMs2_NtNtNtCscu9j8SGJFlb_27fireworks_collaboration_lib4core10credential10file_storeNtB7_18EncryptedFileStore7decrypts3_0Bd_
FN:527,_RNCNvMs2_NtNtNtCscu9j8SGJFlb_27fireworks_collaboration_lib4core10credential10file_storeNtB7_18EncryptedFileStore7decrypts4_0Bd_
FN:534,_RNCNvMs2_NtNtNtCscu9j8SGJFlb_27fireworks_collaboration_lib4core10credential10file_storeNtB7_18EncryptedFileStore7decrypts5_0Bd_
FN:546,_RNCNvMs2_NtNtNtCscu9j8SGJFlb_27fireworks_collaboration_lib4core10credential10file_storeNtB7_18EncryptedFileStore7decrypts6_0Bd_
FN:551,_RNCNvMs2_NtNtNtCscu9j8SGJFlb_27fireworks_collaboration_lib4core10credential10file_storeNtB7_18EncryptedFileStore7decrypts7_0Bd_
FN:555,_RNCNvMs2_NtNtNtCscu9j8SGJFlb_27fireworks_collaboration_lib4core10credential10file_storeNtB7_18EncryptedFileStore7decrypts8_0Bd_
FN:510,_RNCNvMs2_NtNtNtCscu9j8SGJFlb_27fireworks_collaboration_lib4core10credential10file_storeNtB7_18EncryptedFileStore7decrypts_0Bd_
FN:473,_RNCNvMs2_NtNtNtCscu9j8SGJFlb_27fireworks_collaboration_lib4core10credential10file_storeNtB7_18EncryptedFileStore7encrypt0Bd_
FN:485,_RNCNvMs2_NtNtNtCscu9j8SGJFlb_27fireworks_collaboration_lib4core10credential10file_storeNtB7_18EncryptedFileStore7encrypts0_0Bd_
FN:489,_RNCNvMs2_NtNtNtCscu9j8SGJFlb_27fireworks_collaboration_lib4core10credential10file_storeNtB7_18EncryptedFileStore7encrypts1_0Bd_
FN:480,_RNCNvMs2_NtNtNtCscu9j8SGJFlb_27fireworks_collaboration_lib4core10credential10file_storeNtB7_18EncryptedFileStore7encrypts_0Bd_
FN:623,_RNCNvXs3_NtNtNtCscu9j8SGJFlb_27fireworks_collaboration_lib4core10credential10file_storeNtB7_18EncryptedFileStoreNtNtB9_7storage15CredentialStore3get0Bd_
FN:633,_RNCNvXs3_NtNtNtCscu9j8SGJFlb_27fireworks_collaboration_lib4core10credential10file_storeNtB7_18EncryptedFileStoreNtNtB9_7storage15CredentialStore3gets_0Bd_
FN:684,_RNCNvXs3_NtNtNtCscu9j8SGJFlb_27fireworks_collaboration_lib4core10credential10file_storeNtB7_18EncryptedFileStoreNtNtB9_7storage15CredentialStore4list0Bd_
FN:685,_RNCNvXs3_NtNtNtCscu9j8SGJFlb_27fireworks_collaboration_lib4core10credential10file_storeNtB7_18EncryptedFileStoreNtNtB9_7storage15CredentialStore4lists_0Bd_
FN:149,_RNvMNtNtNtCscu9j8SGJFlb_27fireworks_collaboration_lib4core10credential10file_storeNtB2_14MasterPassword3new
FN:153,_RNvMNtNtNtCscu9j8SGJFlb_27fireworks_collaboration_lib4core10credential10file_storeNtB2_14MasterPassword6as_str
FN:401,_RNvMs2_NtNtNtCscu9j8SGJFlb_27fireworks_collaboration_lib4core10credential10file_storeNtB5_18EncryptedFileStore10derive_key
FN:561,_RNvMs2_NtNtNtCscu9j8SGJFlb_27fireworks_collaboration_lib4core10credential10file_storeNtB5_18EncryptedFileStore16load_credentials
FN:585,_RNvMs2_NtNtNtCscu9j8SGJFlb_27fireworks_collaboration_lib4core10credential10file_storeNtB5_18EncryptedFileStore16save_credentials
FN:432,_RNvMs2_NtNtNtCscu9j8SGJFlb_27fireworks_collaboration_lib4core10credential10file_storeNtB5_18EncryptedFileStore17get_or_derive_key
FN:389,_RNvMs2_NtNtNtCscu9j8SGJFlb_27fireworks_collaboration_lib4core10credential10file_storeNtB5_18EncryptedFileStore19set_master_password
FN:289,_RNvMs2_NtNtNtCscu9j8SGJFlb_27fireworks_collaboration_lib4core10credential10file_storeNtB5_18EncryptedFileStore3new
FN:504,_RNvMs2_NtNtNtCscu9j8SGJFlb_27fireworks_collaboration_lib4core10credential10file_storeNtB5_18EncryptedFileStore7decrypt
FN:464,_RNvMs2_NtNtNtCscu9j8SGJFlb_27fireworks_collaboration_lib4core10credential10file_storeNtB5_18EncryptedFileStore7encrypt
FN:614,_RNvMs2_NtNtNtCscu9j8SGJFlb_27fireworks_collaboration_lib4core10credential10file_storeNtB5_18EncryptedFileStore8make_key
FN:163,_RNvMs_NtNtNtCscu9j8SGJFlb_27fireworks_collaboration_lib4core10credential10file_storeNtB4_13EncryptionKey3new
FN:167,_RNvMs_NtNtNtCscu9j8SGJFlb_27fireworks_collaboration_lib4core10credential10file_storeNtB4_13EncryptionKey8as_slice
FN:201,_RNvXs0_NtNtNtCscu9j8SGJFlb_27fireworks_collaboration_lib4core10credential10file_storeNtB5_22SerializableCredentialINtNtCs5cb5cxfFw7H_4core7convert4FromRNtNtB7_5model10CredentialE4from
FN:691,_RNvXs3_NtNtNtCscu9j8SGJFlb_27fireworks_collaboration_lib4core10credential10file_storeNtB5_18EncryptedFileStoreNtNtB7_7storage15CredentialStore16update_last_used
FN:642,_RNvXs3_NtNtNtCscu9j8SGJFlb_27fireworks_collaboration_lib4core10credential10file_storeNtB5_18EncryptedFileStoreNtNtB7_7storage15CredentialStore3add
FN:620,_RNvXs3_NtNtNtCscu9j8SGJFlb_27fireworks_collaboration_lib4core10credential10file_storeNtB5_18EncryptedFileStoreNtNtB7_7storage15CredentialStore3get
FN:672,_RNvXs3_NtNtNtCscu9j8SGJFlb_27fireworks_collaboration_lib4core10credential10file_storeNtB5_18EncryptedFileStoreNtNtB7_7storage15CredentialStore4list
FN:658,_RNvXs3_NtNtNtCscu9j8SGJFlb_27fireworks_collaboration_lib4core10credential10file_storeNtB5_18EncryptedFileStoreNtNtB7_7storage15CredentialStore6remove
FN:405,_RNCNvMs2_NtNtNtCsfvgE7hV3dwJ_27fireworks_collaboration_lib4core10credential10file_storeNtB7_18EncryptedFileStore10derive_key0Bd_
FN:416,_RNCNvMs2_NtNtNtCsfvgE7hV3dwJ_27fireworks_collaboration_lib4core10credential10file_storeNtB7_18EncryptedFileStore10derive_keys0_0Bd_
FN:411,_RNCNvMs2_NtNtNtCsfvgE7hV3dwJ_27fireworks_collaboration_lib4core10credential10file_storeNtB7_18EncryptedFileStore10derive_keys_0Bd_
FN:569,_RNCNvMs2_NtNtNtCsfvgE7hV3dwJ_27fireworks_collaboration_lib4core10credential10file_storeNtB7_18EncryptedFileStore16load_credentials0Bd_
FN:572,_RNCNvMs2_NtNtNtCsfvgE7hV3dwJ_27fireworks_collaboration_lib4core10credential10file_storeNtB7_18EncryptedFileStore16load_credentialss_0Bd_
FN:592,_RNCNvMs2_NtNtNtCsfvgE7hV3dwJ_27fireworks_collaboration_lib4core10credential10file_storeNtB7_18EncryptedFileStore16save_credentials0Bd_
FN:596,_RNCNvMs2_NtNtNtCsfvgE7hV3dwJ_27fireworks_collaboration_lib4core10credential10file_storeNtB7_18EncryptedFileStore16save_credentialss_0Bd_
FN:293,_RNCNvMs2_NtNtNtCsfvgE7hV3dwJ_27fireworks_collaboration_lib4core10credential10file_storeNtB7_18EncryptedFileStore3new0Bd_
FN:301,_RNCNvMs2_NtNtNtCsfvgE7hV3dwJ_27fireworks_collaboration_lib4core10credential10file_storeNtB7_18EncryptedFileStore3news_0Bd_
FN:508,_RNCNvMs2_NtNtNtCsfvgE7hV3dwJ_27fireworks_collaboration_lib4core10credential10file_storeNtB7_18EncryptedFileStore7decrypt0Bd_
FN:511,_RNCNvMs2_NtNtNtCsfvgE7hV3dwJ_27fireworks_collaboration_lib4core10credential10file_storeNtB7_18EncryptedFileStore7decrypts0_0Bd_
FN:518,_RNCNvMs2_NtNtNtCsfvgE7hV3dwJ_27fireworks_collaboration_lib4core10credential10file_storeNtB7_18EncryptedFileStore7decrypts1_0Bd_
FN:521,_RNCNvMs2_NtNtNtCsfvgE7hV3dwJ_27fireworks_collaboration_lib4core10credential10file_storeNtB7_18EncryptedFileStore7decrypts2_0Bd_
FN:525,_RNCNvMs2_NtNtNtCsfvgE7hV3dwJ_27fireworks_collaboration_lib4core10credential10file_storeNtB7_18EncryptedFileStore7decrypts3_0Bd_
FN:527,_RNCNvMs2_NtNtNtCsfvgE7hV3dwJ_27fireworks_collaboration_lib4core10credential10file_storeNtB7_18EncryptedFileStore7decrypts4_0Bd_
FN:534,_RNCNvMs2_NtNtNtCsfvgE7hV3dwJ_27fireworks_collaboration_lib4core10credential10file_storeNtB7_18EncryptedFileStore7decrypts5_0Bd_
FN:546,_RNCNvMs2_NtNtNtCsfvgE7hV3dwJ_27fireworks_collaboration_lib4core10credential10file_storeNtB7_18EncryptedFileStore7decrypts6_0Bd_
FN:551,_RNCNvMs2_NtNtNtCsfvgE7hV3dwJ_27fireworks_collaboration_lib4core10credential10file_storeNtB7_18EncryptedFileStore7decrypts7_0Bd_
FN:555,_RNCNvMs2_NtNtNtCsfvgE7hV3dwJ_27fireworks_collaboration_lib4core10credential10file_storeNtB7_18EncryptedFileStore7decrypts8_0Bd_
FN:510,_RNCNvMs2_NtNtNtCsfvgE7hV3dwJ_27fireworks_collaboration_lib4core10credential10file_storeNtB7_18EncryptedFileStore7decrypts_0Bd_
FN:473,_RNCNvMs2_NtNtNtCsfvgE7hV3dwJ_27fireworks_collaboration_lib4core10credential10file_storeNtB7_18EncryptedFileStore7encrypt0Bd_
FN:485,_RNCNvMs2_NtNtNtCsfvgE7hV3dwJ_27fireworks_collaboration_lib4core10credential10file_storeNtB7_18EncryptedFileStore7encrypts0_0Bd_
FN:489,_RNCNvMs2_NtNtNtCsfvgE7hV3dwJ_27fireworks_collaboration_lib4core10credential10file_storeNtB7_18EncryptedFileStore7encrypts1_0Bd_
FN:480,_RNCNvMs2_NtNtNtCsfvgE7hV3dwJ_27fireworks_collaboration_lib4core10credential10file_storeNtB7_18EncryptedFileStore7encrypts_0Bd_
FN:623,_RNCNvXs3_NtNtNtCsfvgE7hV3dwJ_27fireworks_collaboration_lib4core10credential10file_storeNtB7_18EncryptedFileStoreNtNtB9_7storage15CredentialStore3get0Bd_
FN:633,_RNCNvXs3_NtNtNtCsfvgE7hV3dwJ_27fireworks_collaboration_lib4core10credential10file_storeNtB7_18EncryptedFileStoreNtNtB9_7storage15CredentialStore3gets_0Bd_
FN:684,_RNCNvXs3_NtNtNtCsfvgE7hV3dwJ_27fireworks_collaboration_lib4core10credential10file_storeNtB7_18EncryptedFileStoreNtNtB9_7storage15CredentialStore4list0Bd_
FN:685,_RNCNvXs3_NtNtNtCsfvgE7hV3dwJ_27fireworks_collaboration_lib4core10credential10file_storeNtB7_18EncryptedFileStoreNtNtB9_7storage15CredentialStore4lists_0Bd_
FN:149,_RNvMNtNtNtCsfvgE7hV3dwJ_27fireworks_collaboration_lib4core10credential10file_storeNtB2_14MasterPassword3new
FN:153,_RNvMNtNtNtCsfvgE7hV3dwJ_27fireworks_collaboration_lib4core10credential10file_storeNtB2_14MasterPassword6as_str
FN:401,_RNvMs2_NtNtNtCsfvgE7hV3dwJ_27fireworks_collaboration_lib4core10credential10file_storeNtB5_18EncryptedFileStore10derive_key
FN:561,_RNvMs2_NtNtNtCsfvgE7hV3dwJ_27fireworks_collaboration_lib4core10credential10file_storeNtB5_18EncryptedFileStore16load_credentials
FN:585,_RNvMs2_NtNtNtCsfvgE7hV3dwJ_27fireworks_collaboration_lib4core10credential10file_storeNtB5_18EncryptedFileStore16save_credentials
FN:432,_RNvMs2_NtNtNtCsfvgE7hV3dwJ_27fireworks_collaboration_lib4core10credential10file_storeNtB5_18EncryptedFileStore17get_or_derive_key
FN:389,_RNvMs2_NtNtNtCsfvgE7hV3dwJ_27fireworks_collaboration_lib4core10credential10file_storeNtB5_18EncryptedFileStore19set_master_password
FN:289,_RNvMs2_NtNtNtCsfvgE7hV3dwJ_27fireworks_collaboration_lib4core10credential10file_storeNtB5_18EncryptedFileStore3new
FN:504,_RNvMs2_NtNtNtCsfvgE7hV3dwJ_27fireworks_collaboration_lib4core10credential10file_storeNtB5_18EncryptedFileStore7decrypt
FN:464,_RNvMs2_NtNtNtCsfvgE7hV3dwJ_27fireworks_collaboration_lib4core10credential10file_storeNtB5_18EncryptedFileStore7encrypt
FN:614,_RNvMs2_NtNtNtCsfvgE7hV3dwJ_27fireworks_collaboration_lib4core10credential10file_storeNtB5_18EncryptedFileStore8make_key
FN:163,_RNvMs_NtNtNtCsfvgE7hV3dwJ_27fireworks_collaboration_lib4core10credential10file_storeNtB4_13EncryptionKey3new
FN:167,_RNvMs_NtNtNtCsfvgE7hV3dwJ_27fireworks_collaboration_lib4core10credential10file_storeNtB4_13EncryptionKey8as_slice
FN:201,_RNvXs0_NtNtNtCsfvgE7hV3dwJ_27fireworks_collaboration_lib4core10credential10file_storeNtB5_22SerializableCredentialINtNtCs5cb5cxfFw7H_4core7convert4FromRNtNtB7_5model10CredentialE4from
FN:214,_RNvXs1_NtNtNtCsfvgE7hV3dwJ_27fireworks_collaboration_lib4core10credential10file_storeNtNtB7_5model10CredentialINtNtCs5cb5cxfFw7H_4core7convert4FromNtB5_22SerializableCredentialE4from
FN:691,_RNvXs3_NtNtNtCsfvgE7hV3dwJ_27fireworks_collaboration_lib4core10credential10file_storeNtB5_18EncryptedFileStoreNtNtB7_7storage15CredentialStore16update_last_used
FN:642,_RNvXs3_NtNtNtCsfvgE7hV3dwJ_27fireworks_collaboration_lib4core10credential10file_storeNtB5_18EncryptedFileStoreNtNtB7_7storage15CredentialStore3add
FN:620,_RNvXs3_NtNtNtCsfvgE7hV3dwJ_27fireworks_collaboration_lib4core10credential10file_storeNtB5_18EncryptedFileStoreNtNtB7_7storage15CredentialStore3get
FN:672,_RNvXs3_NtNtNtCsfvgE7hV3dwJ_27fireworks_collaboration_lib4core10credential10file_storeNtB5_18EncryptedFileStoreNtNtB7_7storage15CredentialStore4list
FN:658,_RNvXs3_NtNtNtCsfvgE7hV3dwJ_27fireworks_collaboration_lib4core10credential10file_storeNtB5_18EncryptedFileStoreNtNtB7_7storage15CredentialStore6remove
FNDA:472,_RNvXs1_NtNtNtCscu9j8SGJFlb_27fireworks_collaboration_lib4core10credential10file_storeNtNtB7_5model10CredentialINtNtCs5cb5cxfFw7H_4core7convert4FromNtB5_22SerializableCredentialE4from
FNDA:0,_RNCNvMs2_NtNtNtCscu9j8SGJFlb_27fireworks_collaboration_lib4core10credential10file_storeNtB7_18EncryptedFileStore10derive_key0Bd_
FNDA:0,_RNCNvMs2_NtNtNtCscu9j8SGJFlb_27fireworks_collaboration_lib4core10credential10file_storeNtB7_18EncryptedFileStore10derive_keys0_0Bd_
FNDA:0,_RNCNvMs2_NtNtNtCscu9j8SGJFlb_27fireworks_collaboration_lib4core10credential10file_storeNtB7_18EncryptedFileStore10derive_keys_0Bd_
FNDA:2,_RNCNvMs2_NtNtNtCscu9j8SGJFlb_27fireworks_collaboration_lib4core10credential10file_storeNtB7_18EncryptedFileStore16load_credentials0Bd_
FNDA:10,_RNCNvMs2_NtNtNtCscu9j8SGJFlb_27fireworks_collaboration_lib4core10credential10file_storeNtB7_18EncryptedFileStore16load_credentialss_0Bd_
FNDA:0,_RNCNvMs2_NtNtNtCscu9j8SGJFlb_27fireworks_collaboration_lib4core10credential10file_storeNtB7_18EncryptedFileStore16save_credentials0Bd_
FNDA:0,_RNCNvMs2_NtNtNtCscu9j8SGJFlb_27fireworks_collaboration_lib4core10credential10file_storeNtB7_18EncryptedFileStore16save_credentialss_0Bd_
FNDA:1,_RNCNvMs2_NtNtNtCscu9j8SGJFlb_27fireworks_collaboration_lib4core10credential10file_storeNtB7_18EncryptedFileStore3new0Bd_
FNDA:1,_RNCNvMs2_NtNtNtCscu9j8SGJFlb_27fireworks_collaboration_lib4core10credential10file_storeNtB7_18EncryptedFileStore3news_0Bd_
FNDA:0,_RNCNvMs2_NtNtNtCscu9j8SGJFlb_27fireworks_collaboration_lib4core10credential10file_storeNtB7_18EncryptedFileStore7decrypt0Bd_
FNDA:0,_RNCNvMs2_NtNtNtCscu9j8SGJFlb_27fireworks_collaboration_lib4core10credential10file_storeNtB7_18EncryptedFileStore7decrypts0_0Bd_
FNDA:0,_RNCNvMs2_NtNtNtCscu9j8SGJFlb_27fireworks_collaboration_lib4core10credential10file_storeNtB7_18EncryptedFileStore7decrypts1_0Bd_
FNDA:0,_RNCNvMs2_NtNtNtCscu9j8SGJFlb_27fireworks_collaboration_lib4core10credential10file_storeNtB7_18EncryptedFileStore7decrypts2_0Bd_
FNDA:0,_RNCNvMs2_NtNtNtCscu9j8SGJFlb_27fireworks_collaboration_lib4core10credential10file_storeNtB7_18EncryptedFileStore7decrypts3_0Bd_
FNDA:16,_RNCNvMs2_NtNtNtCscu9j8SGJFlb_27fireworks_collaboration_lib4core10credential10file_storeNtB7_18EncryptedFileStore7decrypts4_0Bd_
FNDA:0,_RNCNvMs2_NtNtNtCscu9j8SGJFlb_27fireworks_collaboration_lib4core10credential10file_storeNtB7_18EncryptedFileStore7decrypts5_0Bd_
FNDA:0,_RNCNvMs2_NtNtNtCscu9j8SGJFlb_27fireworks_collaboration_lib4core10credential10file_storeNtB7_18EncryptedFileStore7decrypts6_0Bd_
FNDA:1,_RNCNvMs2_NtNtNtCscu9j8SGJFlb_27fireworks_collaboration_lib4core10credential10file_storeNtB7_18EncryptedFileStore7decrypts7_0Bd_
FNDA:0,_RNCNvMs2_NtNtNtCscu9j8SGJFlb_27fireworks_collaboration_lib4core10credential10file_storeNtB7_18EncryptedFileStore7decrypts8_0Bd_
FNDA:1,_RNCNvMs2_NtNtNtCscu9j8SGJFlb_27fireworks_collaboration_lib4core10credential10file_storeNtB7_18EncryptedFileStore7decrypts_0Bd_
FNDA:0,_RNCNvMs2_NtNtNtCscu9j8SGJFlb_27fireworks_collaboration_lib4core10credential10file_storeNtB7_18EncryptedFileStore7encrypt0Bd_
FNDA:0,_RNCNvMs2_NtNtNtCscu9j8SGJFlb_27fireworks_collaboration_lib4core10credential10file_storeNtB7_18EncryptedFileStore7encrypts0_0Bd_
FNDA:0,_RNCNvMs2_NtNtNtCscu9j8SGJFlb_27fireworks_collaboration_lib4core10credential10file_storeNtB7_18EncryptedFileStore7encrypts1_0Bd_
FNDA:0,_RNCNvMs2_NtNtNtCscu9j8SGJFlb_27fireworks_collaboration_lib4core10credential10file_storeNtB7_18EncryptedFileStore7encrypts_0Bd_
FNDA:0,_RNCNvXs3_NtNtNtCscu9j8SGJFlb_27fireworks_collaboration_lib4core10credential10file_storeNtB7_18EncryptedFileStoreNtNtB9_7storage15CredentialStore3get0Bd_
FNDA:80,_RNCNvXs3_NtNtNtCscu9j8SGJFlb_27fireworks_collaboration_lib4core10credential10file_storeNtB7_18EncryptedFileStoreNtNtB9_7storage15CredentialStore3gets_0Bd_
FNDA:392,_RNCNvXs3_NtNtNtCscu9j8SGJFlb_27fireworks_collaboration_lib4core10credential10file_storeNtB7_18EncryptedFileStoreNtNtB9_7storage15CredentialStore4list0Bd_
FNDA:392,_RNCNvXs3_NtNtNtCscu9j8SGJFlb_27fireworks_collaboration_lib4core10credential10file_storeNtB7_18EncryptedFileStoreNtNtB9_7storage15CredentialStore4lists_0Bd_
FNDA:184,_RNvMNtNtNtCscu9j8SGJFlb_27fireworks_collaboration_lib4core10credential10file_storeNtB2_14MasterPassword3new
FNDA:475,_RNvMNtNtNtCscu9j8SGJFlb_27fireworks_collaboration_lib4core10credential10file_storeNtB2_14MasterPassword6as_str
FNDA:475,_RNvMs2_NtNtNtCscu9j8SGJFlb_27fireworks_collaboration_lib4core10credential10file_storeNtB5_18EncryptedFileStore10derive_key
FNDA:579,_RNvMs2_NtNtNtCscu9j8SGJFlb_27fireworks_collaboration_lib4core10credential10file_storeNtB5_18EncryptedFileStore16load_credentials
FNDA:453,_RNvMs2_NtNtNtCscu9j8SGJFlb_27fireworks_collaboration_lib4core10credential10file_storeNtB5_18EncryptedFileStore16save_credentials
FNDA:968,_RNvMs2_NtNtNtCscu9j8SGJFlb_27fireworks_collaboration_lib4core10credential10file_storeNtB5_18EncryptedFileStore17get_or_derive_key
FNDA:184,_RNvMs2_NtNtNtCscu9j8SGJFlb_27fireworks_collaboration_lib4core10credential10file_storeNtB5_18EncryptedFileStore19set_master_password
FNDA:89,_RNvMs2_NtNtNtCscu9j8SGJFlb_27fireworks_collaboration_lib4core10credential10file_storeNtB5_18EncryptedFileStore3new
FNDA:516,_RNvMs2_NtNtNtCscu9j8SGJFlb_27fireworks_collaboration_lib4core10credential10file_storeNtB5_18EncryptedFileStore7decrypt
FNDA:453,_RNvMs2_NtNtNtCscu9j8SGJFlb_27fireworks_collaboration_lib4core10credential10file_storeNtB5_18EncryptedFileStore7encrypt
FNDA:535,_RNvMs2_NtNtNtCscu9j8SGJFlb_27fireworks_collaboration_lib4core10credential10file_storeNtB5_18EncryptedFileStore8make_key
FNDA:1443,_RNvMs_NtNtNtCscu9j8SGJFlb_27fireworks_collaboration_lib4core10credential10file_storeNtB4_13EncryptionKey3new
FNDA:2888,_RNvMs_NtNtNtCscu9j8SGJFlb_27fireworks_collaboration_lib4core10credential10file_storeNtB4_13EncryptionKey8as_slice
FNDA:439,_RNvXs0_NtNtNtCscu9j8SGJFlb_27fireworks_collaboration_lib4core10credential10file_storeNtB5_22SerializableCredentialINtNtCs5cb5cxfFw7H_4core7convert4FromRNtNtB7_5model10CredentialE4from
FNDA:1,_RNvXs3_NtNtNtCscu9j8SGJFlb_27fireworks_collaboration_lib4core10credential10file_storeNtB5_18EncryptedFileStoreNtNtB7_7storage15CredentialStore16update_last_used
FNDA:440,_RNvXs3_NtNtNtCscu9j8SGJFlb_27fireworks_collaboration_lib4core10credential10file_storeNtB5_18EncryptedFileStoreNtNtB7_7storage15CredentialStore3add
FNDA:107,_RNvXs3_NtNtNtCscu9j8SGJFlb_27fireworks_collaboration_lib4core10credential10file_storeNtB5_18EncryptedFileStoreNtNtB7_7storage15CredentialStore3get
FNDA:18,_RNvXs3_NtNtNtCscu9j8SGJFlb_27fireworks_collaboration_lib4core10credential10file_storeNtB5_18EncryptedFileStoreNtNtB7_7storage15CredentialStore4list
FNDA:13,_RNvXs3_NtNtNtCscu9j8SGJFlb_27fireworks_collaboration_lib4core10credential10file_storeNtB5_18EncryptedFileStoreNtNtB7_7storage15CredentialStore6remove
FNDA:0,_RNCNvMs2_NtNtNtCsfvgE7hV3dwJ_27fireworks_collaboration_lib4core10credential10file_storeNtB7_18EncryptedFileStore10derive_key0Bd_
FNDA:0,_RNCNvMs2_NtNtNtCsfvgE7hV3dwJ_27fireworks_collaboration_lib4core10credential10file_storeNtB7_18EncryptedFileStore10derive_keys0_0Bd_
FNDA:0,_RNCNvMs2_NtNtNtCsfvgE7hV3dwJ_27fireworks_collaboration_lib4core10credential10file_storeNtB7_18EncryptedFileStore10derive_keys_0Bd_
FNDA:0,_RNCNvMs2_NtNtNtCsfvgE7hV3dwJ_27fireworks_collaboration_lib4core10credential10file_storeNtB7_18EncryptedFileStore16load_credentials0Bd_
FNDA:0,_RNCNvMs2_NtNtNtCsfvgE7hV3dwJ_27fireworks_collaboration_lib4core10credential10file_storeNtB7_18EncryptedFileStore16load_credentialss_0Bd_
FNDA:0,_RNCNvMs2_NtNtNtCsfvgE7hV3dwJ_27fireworks_collaboration_lib4core10credential10file_storeNtB7_18EncryptedFileStore16save_credentials0Bd_
FNDA:0,_RNCNvMs2_NtNtNtCsfvgE7hV3dwJ_27fireworks_collaboration_lib4core10credential10file_storeNtB7_18EncryptedFileStore16save_credentialss_0Bd_
FNDA:0,_RNCNvMs2_NtNtNtCsfvgE7hV3dwJ_27fireworks_collaboration_lib4core10credential10file_storeNtB7_18EncryptedFileStore3new0Bd_
FNDA:0,_RNCNvMs2_NtNtNtCsfvgE7hV3dwJ_27fireworks_collaboration_lib4core10credential10file_storeNtB7_18EncryptedFileStore3news_0Bd_
FNDA:0,_RNCNvMs2_NtNtNtCsfvgE7hV3dwJ_27fireworks_collaboration_lib4core10credential10file_storeNtB7_18EncryptedFileStore7decrypt0Bd_
FNDA:0,_RNCNvMs2_NtNtNtCsfvgE7hV3dwJ_27fireworks_collaboration_lib4core10credential10file_storeNtB7_18EncryptedFileStore7decrypts0_0Bd_
FNDA:0,_RNCNvMs2_NtNtNtCsfvgE7hV3dwJ_27fireworks_collaboration_lib4core10credential10file_storeNtB7_18EncryptedFileStore7decrypts1_0Bd_
FNDA:0,_RNCNvMs2_NtNtNtCsfvgE7hV3dwJ_27fireworks_collaboration_lib4core10credential10file_storeNtB7_18EncryptedFileStore7decrypts2_0Bd_
FNDA:0,_RNCNvMs2_NtNtNtCsfvgE7hV3dwJ_27fireworks_collaboration_lib4core10credential10file_storeNtB7_18EncryptedFileStore7decrypts3_0Bd_
FNDA:0,_RNCNvMs2_NtNtNtCsfvgE7hV3dwJ_27fireworks_collaboration_lib4core10credential10file_storeNtB7_18EncryptedFileStore7decrypts4_0Bd_
FNDA:0,_RNCNvMs2_NtNtNtCsfvgE7hV3dwJ_27fireworks_collaboration_lib4core10credential10file_storeNtB7_18EncryptedFileStore7decrypts5_0Bd_
FNDA:0,_RNCNvMs2_NtNtNtCsfvgE7hV3dwJ_27fireworks_collaboration_lib4core10credential10file_storeNtB7_18EncryptedFileStore7decrypts6_0Bd_
FNDA:0,_RNCNvMs2_NtNtNtCsfvgE7hV3dwJ_27fireworks_collaboration_lib4core10credential10file_storeNtB7_18EncryptedFileStore7decrypts7_0Bd_
FNDA:0,_RNCNvMs2_NtNtNtCsfvgE7hV3dwJ_27fireworks_collaboration_lib4core10credential10file_storeNtB7_18EncryptedFileStore7decrypts8_0Bd_
FNDA:0,_RNCNvMs2_NtNtNtCsfvgE7hV3dwJ_27fireworks_collaboration_lib4core10credential10file_storeNtB7_18EncryptedFileStore7decrypts_0Bd_
FNDA:0,_RNCNvMs2_NtNtNtCsfvgE7hV3dwJ_27fireworks_collaboration_lib4core10credential10file_storeNtB7_18EncryptedFileStore7encrypt0Bd_
FNDA:0,_RNCNvMs2_NtNtNtCsfvgE7hV3dwJ_27fireworks_collaboration_lib4core10credential10file_storeNtB7_18EncryptedFileStore7encrypts0_0Bd_
FNDA:0,_RNCNvMs2_NtNtNtCsfvgE7hV3dwJ_27fireworks_collaboration_lib4core10credential10file_storeNtB7_18EncryptedFileStore7encrypts1_0Bd_
FNDA:0,_RNCNvMs2_NtNtNtCsfvgE7hV3dwJ_27fireworks_collaboration_lib4core10credential10file_storeNtB7_18EncryptedFileStore7encrypts_0Bd_
FNDA:0,_RNCNvXs3_NtNtNtCsfvgE7hV3dwJ_27fireworks_collaboration_lib4core10credential10file_storeNtB7_18EncryptedFileStoreNtNtB9_7storage15CredentialStore3get0Bd_
FNDA:0,_RNCNvXs3_NtNtNtCsfvgE7hV3dwJ_27fireworks_collaboration_lib4core10credential10file_storeNtB7_18EncryptedFileStoreNtNtB9_7storage15CredentialStore3gets_0Bd_
FNDA:0,_RNCNvXs3_NtNtNtCsfvgE7hV3dwJ_27fireworks_collaboration_lib4core10credential10file_storeNtB7_18EncryptedFileStoreNtNtB9_7storage15CredentialStore4list0Bd_
FNDA:0,_RNCNvXs3_NtNtNtCsfvgE7hV3dwJ_27fireworks_collaboration_lib4core10credential10file_storeNtB7_18EncryptedFileStoreNtNtB9_7storage15CredentialStore4lists_0Bd_
FNDA:0,_RNvMNtNtNtCsfvgE7hV3dwJ_27fireworks_collaboration_lib4core10credential10file_storeNtB2_14MasterPassword3new
FNDA:0,_RNvMNtNtNtCsfvgE7hV3dwJ_27fireworks_collaboration_lib4core10credential10file_storeNtB2_14MasterPassword6as_str
FNDA:0,_RNvMs2_NtNtNtCsfvgE7hV3dwJ_27fireworks_collaboration_lib4core10credential10file_storeNtB5_18EncryptedFileStore10derive_key
FNDA:0,_RNvMs2_NtNtNtCsfvgE7hV3dwJ_27fireworks_collaboration_lib4core10credential10file_storeNtB5_18EncryptedFileStore16load_credentials
FNDA:0,_RNvMs2_NtNtNtCsfvgE7hV3dwJ_27fireworks_collaboration_lib4core10credential10file_storeNtB5_18EncryptedFileStore16save_credentials
FNDA:0,_RNvMs2_NtNtNtCsfvgE7hV3dwJ_27fireworks_collaboration_lib4core10credential10file_storeNtB5_18EncryptedFileStore17get_or_derive_key
FNDA:0,_RNvMs2_NtNtNtCsfvgE7hV3dwJ_27fireworks_collaboration_lib4core10credential10file_storeNtB5_18EncryptedFileStore19set_master_password
FNDA:0,_RNvMs2_NtNtNtCsfvgE7hV3dwJ_27fireworks_collaboration_lib4core10credential10file_storeNtB5_18EncryptedFileStore3new
FNDA:0,_RNvMs2_NtNtNtCsfvgE7hV3dwJ_27fireworks_collaboration_lib4core10credential10file_storeNtB5_18EncryptedFileStore7decrypt
FNDA:0,_RNvMs2_NtNtNtCsfvgE7hV3dwJ_27fireworks_collaboration_lib4core10credential10file_storeNtB5_18EncryptedFileStore7encrypt
FNDA:0,_RNvMs2_NtNtNtCsfvgE7hV3dwJ_27fireworks_collaboration_lib4core10credential10file_storeNtB5_18EncryptedFileStore8make_key
FNDA:0,_RNvMs_NtNtNtCsfvgE7hV3dwJ_27fireworks_collaboration_lib4core10credential10file_storeNtB4_13EncryptionKey3new
FNDA:0,_RNvMs_NtNtNtCsfvgE7hV3dwJ_27fireworks_collaboration_lib4core10credential10file_storeNtB4_13EncryptionKey8as_slice
FNDA:0,_RNvXs0_NtNtNtCsfvgE7hV3dwJ_27fireworks_collaboration_lib4core10credential10file_storeNtB5_22SerializableCredentialINtNtCs5cb5cxfFw7H_4core7convert4FromRNtNtB7_5model10CredentialE4from
FNDA:0,_RNvXs1_NtNtNtCsfvgE7hV3dwJ_27fireworks_collaboration_lib4core10credential10file_storeNtNtB7_5model10CredentialINtNtCs5cb5cxfFw7H_4core7convert4FromNtB5_22SerializableCredentialE4from
FNDA:0,_RNvXs3_NtNtNtCsfvgE7hV3dwJ_27fireworks_collaboration_lib4core10credential10file_storeNtB5_18EncryptedFileStoreNtNtB7_7storage15CredentialStore16update_last_used
FNDA:0,_RNvXs3_NtNtNtCsfvgE7hV3dwJ_27fireworks_collaboration_lib4core10credential10file_storeNtB5_18EncryptedFileStoreNtNtB7_7storage15CredentialStore3add
FNDA:0,_RNvXs3_NtNtNtCsfvgE7hV3dwJ_27fireworks_collaboration_lib4core10credential10file_storeNtB5_18EncryptedFileStoreNtNtB7_7storage15CredentialStore3get
FNDA:0,_RNvXs3_NtNtNtCsfvgE7hV3dwJ_27fireworks_collaboration_lib4core10credential10file_storeNtB5_18EncryptedFileStoreNtNtB7_7storage15CredentialStore4list
FNDA:0,_RNvXs3_NtNtNtCsfvgE7hV3dwJ_27fireworks_collaboration_lib4core10credential10file_storeNtB5_18EncryptedFileStoreNtNtB7_7storage15CredentialStore6remove
FNF:48
FNH:30
DA:149,184
DA:150,184
DA:151,184
DA:153,475
DA:154,475
DA:155,475
DA:163,1443
DA:164,1443
DA:165,1443
DA:167,2888
DA:168,2888
DA:169,2888
DA:201,439
DA:202,439
DA:203,439
DA:204,439
DA:205,439
DA:206,439
DA:207,439
DA:208,439
DA:209,439
DA:210,439
DA:214,472
DA:215,472
DA:216,472
DA:217,472
DA:218,472
DA:219,472
DA:220,472
DA:289,89
DA:290,89
DA:291,89
DA:292,89
DA:293,89
DA:294,88
DA:296,88
DA:299,88
DA:300,87
DA:301,87
DA:302,1
DA:314,87
DA:315,87
DA:316,87
DA:317,87
DA:318,87
DA:319,87
DA:322,85
DA:323,52
DA:325,0
DA:326,52
DA:327,33
DA:329,2
DA:330,2
DA:331,2
DA:332,2
DA:336,85
DA:338,85
DA:339,85
DA:340,85
DA:341,85
DA:342,85
DA:343,85
DA:344,85
DA:345,89
DA:389,184
DA:390,184
DA:391,184
DA:394,184
DA:395,184
DA:397,184
DA:398,184
DA:401,475
DA:402,475
DA:403,475
DA:404,475
DA:405,475
DA:407,475
DA:408,475
DA:409,475
DA:410,475
DA:411,475
DA:414,475
DA:415,475
DA:416,475
DA:418,475
DA:419,475
DA:421,475
DA:422,0
DA:423,475
DA:425,475
DA:426,475
DA:428,475
DA:429,475
DA:432,968
DA:433,968
DA:436,968
DA:437,899
DA:439,493
DA:440,493
DA:441,493
DA:442,493
DA:443,406
DA:444,69
DA:447,475
DA:450,475
DA:451,475
DA:452,475
DA:454,475
DA:455,475
DA:456,475
DA:457,475
DA:458,475
DA:460,475
DA:461,968
DA:464,453
DA:465,453
DA:466,453
DA:467,453
DA:468,453
DA:469,453
DA:472,453
DA:473,453
DA:476,453
DA:479,453
DA:480,453
DA:483,453
DA:484,453
DA:485,453
DA:488,453
DA:489,453
DA:490,453
DA:491,453
DA:492,453
DA:494,453
DA:495,453
DA:496,453
DA:497,453
DA:498,453
DA:499,453
DA:500,453
DA:501,453
DA:504,516
DA:506,516
DA:507,516
DA:508,516
DA:509,515
DA:510,516
DA:511,515
DA:513,515
DA:516,515
DA:517,515
DA:518,515
DA:519,515
DA:520,515
DA:521,515
DA:524,515
DA:525,515
DA:526,515
DA:527,515
DA:528,16
DA:529,16
DA:532,499
DA:533,499
DA:534,499
DA:535,499
DA:536,0
DA:537,0
DA:538,0
DA:539,0
DA:540,0
DA:541,499
DA:542,499
DA:545,499
DA:546,499
DA:549,499
DA:550,499
DA:551,499
DA:554,498
DA:555,498
DA:557,498
DA:558,516
DA:561,579
DA:562,579
DA:563,51
DA:564,51
DA:565,51
DA:566,528
DA:568,528
DA:569,528
DA:571,526
DA:572,526
DA:574,516
DA:575,0
DA:576,0
DA:577,0
DA:578,0
DA:579,516
DA:581,516
DA:582,579
DA:585,453
DA:587,453
DA:589,453
DA:591,453
DA:592,453
DA:595,453
DA:596,453
DA:610,453
DA:611,453
DA:614,535
DA:615,535
DA:616,535
DA:620,107
DA:621,107
DA:623,107
DA:624,0
DA:625,0
DA:627,107
DA:628,107
DA:629,107
DA:630,82
DA:632,82
DA:633,82
DA:636,80
DA:637,80
DA:638,3
DA:640,107
DA:642,440
DA:643,440
DA:645,440
DA:646,440
DA:647,440
DA:648,439
DA:650,439
DA:651,439
DA:652,439
DA:654,439
DA:655,439
DA:656,440
DA:658,13
DA:659,13
DA:661,13
DA:662,13
DA:663,13
DA:664,13
DA:666,13
DA:668,13
DA:669,13
DA:670,13
DA:672,18
DA:673,18
DA:675,18
DA:676,18
DA:677,18
DA:680,14
DA:681,14
DA:682,14
DA:683,14
DA:684,392
DA:685,392
DA:686,14
DA:688,14
DA:689,18
DA:691,1
DA:692,1
DA:694,1
DA:695,1
DA:696,1
DA:697,1
DA:699,1
DA:700,1
DA:701,1
DA:702,1
DA:703,0
DA:705,1
DA:706,1
BRF:0
BRH:0
LF:305
LH:272
end_of_record
SF:C:\Users\34404\Documents\GitHub\fireworks-collaboration\src-tauri\src\core\credential\keychain_windows.rs
FN:67,_RNvMNtNtNtCscu9j8SGJFlb_27fireworks_collaboration_lib4core10credential16keychain_windowsNtB2_22WindowsCredentialStore13from_wide_ptr
FN:62,_RNvMNtNtNtCscu9j8SGJFlb_27fireworks_collaboration_lib4core10credential16keychain_windowsNtB2_22WindowsCredentialStore14to_wide_string
FN:57,_RNvMNtNtNtCscu9j8SGJFlb_27fireworks_collaboration_lib4core10credential16keychain_windowsNtB2_22WindowsCredentialStore16make_target_name
FN:25,_RNvMNtNtNtCscu9j8SGJFlb_27fireworks_collaboration_lib4core10credential16keychain_windowsNtB2_22WindowsCredentialStore3new
FN:250,_RNvXs_NtNtNtCscu9j8SGJFlb_27fireworks_collaboration_lib4core10credential16keychain_windowsNtB4_22WindowsCredentialStoreNtNtB6_7storage15CredentialStore16update_last_used
FN:118,_RNvXs_NtNtNtCscu9j8SGJFlb_27fireworks_collaboration_lib4core10credential16keychain_windowsNtB4_22WindowsCredentialStoreNtNtB6_7storage15CredentialStore3add
FN:80,_RNvXs_NtNtNtCscu9j8SGJFlb_27fireworks_collaboration_lib4core10credential16keychain_windowsNtB4_22WindowsCredentialStoreNtNtB6_7storage15CredentialStore3get
FN:180,_RNvXs_NtNtNtCscu9j8SGJFlb_27fireworks_collaboration_lib4core10credential16keychain_windowsNtB4_22WindowsCredentialStoreNtNtB6_7storage15CredentialStore4list
FN:160,_RNvXs_NtNtNtCscu9j8SGJFlb_27fireworks_collaboration_lib4core10credential16keychain_windowsNtB4_22WindowsCredentialStoreNtNtB6_7storage15CredentialStore6remove
FN:72,_RNCNvMNtNtNtCscu9j8SGJFlb_27fireworks_collaboration_lib4core10credential16keychain_windowsNtB4_22WindowsCredentialStore13from_wide_ptr0Ba_
FN:81,_RNCNvXs_NtNtNtCscu9j8SGJFlb_27fireworks_collaboration_lib4core10credential16keychain_windowsNtB6_22WindowsCredentialStoreNtNtB8_7storage15CredentialStore3get0Bc_
FN:72,_RNCNvMNtNtNtCsfvgE7hV3dwJ_27fireworks_collaboration_lib4core10credential16keychain_windowsNtB4_22WindowsCredentialStore13from_wide_ptr0Ba_
FN:81,_RNCNvXs_NtNtNtCsfvgE7hV3dwJ_27fireworks_collaboration_lib4core10credential16keychain_windowsNtB6_22WindowsCredentialStoreNtNtB8_7storage15CredentialStore3get0Bc_
FN:67,_RNvMNtNtNtCsfvgE7hV3dwJ_27fireworks_collaboration_lib4core10credential16keychain_windowsNtB2_22WindowsCredentialStore13from_wide_ptr
FN:62,_RNvMNtNtNtCsfvgE7hV3dwJ_27fireworks_collaboration_lib4core10credential16keychain_windowsNtB2_22WindowsCredentialStore14to_wide_string
FN:57,_RNvMNtNtNtCsfvgE7hV3dwJ_27fireworks_collaboration_lib4core10credential16keychain_windowsNtB2_22WindowsCredentialStore16make_target_name
FN:25,_RNvMNtNtNtCsfvgE7hV3dwJ_27fireworks_collaboration_lib4core10credential16keychain_windowsNtB2_22WindowsCredentialStore3new
FN:250,_RNvXs_NtNtNtCsfvgE7hV3dwJ_27fireworks_collaboration_lib4core10credential16keychain_windowsNtB4_22WindowsCredentialStoreNtNtB6_7storage15CredentialStore16update_last_used
FN:118,_RNvXs_NtNtNtCsfvgE7hV3dwJ_27fireworks_collaboration_lib4core10credential16keychain_windowsNtB4_22WindowsCredentialStoreNtNtB6_7storage15CredentialStore3add
FN:80,_RNvXs_NtNtNtCsfvgE7hV3dwJ_27fireworks_collaboration_lib4core10credential16keychain_windowsNtB4_22WindowsCredentialStoreNtNtB6_7storage15CredentialStore3get
FN:180,_RNvXs_NtNtNtCsfvgE7hV3dwJ_27fireworks_collaboration_lib4core10credential16keychain_windowsNtB4_22WindowsCredentialStoreNtNtB6_7storage15CredentialStore4list
FN:160,_RNvXs_NtNtNtCsfvgE7hV3dwJ_27fireworks_collaboration_lib4core10credential16keychain_windowsNtB4_22WindowsCredentialStoreNtNtB6_7storage15CredentialStore6remove
FNDA:19,_RNvMNtNtNtCscu9j8SGJFlb_27fireworks_collaboration_lib4core10credential16keychain_windowsNtB2_22WindowsCredentialStore13from_wide_ptr
FNDA:21,_RNvMNtNtNtCscu9j8SGJFlb_27fireworks_collaboration_lib4core10credential16keychain_windowsNtB2_22WindowsCredentialStore14to_wide_string
FNDA:16,_RNvMNtNtNtCscu9j8SGJFlb_27fireworks_collaboration_lib4core10credential16keychain_windowsNtB2_22WindowsCredentialStore16make_target_name
FNDA:7,_RNvMNtNtNtCscu9j8SGJFlb_27fireworks_collaboration_lib4core10credential16keychain_windowsNtB2_22WindowsCredentialStore3new
FNDA:0,_RNvXs_NtNtNtCscu9j8SGJFlb_27fireworks_collaboration_lib4core10credential16keychain_windowsNtB4_22WindowsCredentialStoreNtNtB6_7storage15CredentialStore16update_last_used
FNDA:5,_RNvXs_NtNtNtCscu9j8SGJFlb_27fireworks_collaboration_lib4core10credential16keychain_windowsNtB4_22WindowsCredentialStoreNtNtB6_7storage15CredentialStore3add
FNDA:3,_RNvXs_NtNtNtCscu9j8SGJFlb_27fireworks_collaboration_lib4core10credential16keychain_windowsNtB4_22WindowsCredentialStoreNtNtB6_7storage15CredentialStore3get
FNDA:1,_RNvXs_NtNtNtCscu9j8SGJFlb_27fireworks_collaboration_lib4core10credential16keychain_windowsNtB4_22WindowsCredentialStoreNtNtB6_7storage15CredentialStore4list
FNDA:8,_RNvXs_NtNtNtCscu9j8SGJFlb_27fireworks_collaboration_lib4core10credential16keychain_windowsNtB4_22WindowsCredentialStoreNtNtB6_7storage15CredentialStore6remove
FNDA:1116,_RNCNvMNtNtNtCscu9j8SGJFlb_27fireworks_collaboration_lib4core10credential16keychain_windowsNtB4_22WindowsCredentialStore13from_wide_ptr0Ba_
FNDA:0,_RNCNvXs_NtNtNtCscu9j8SGJFlb_27fireworks_collaboration_lib4core10credential16keychain_windowsNtB6_22WindowsCredentialStoreNtNtB8_7storage15CredentialStore3get0Bc_
FNDA:0,_RNCNvMNtNtNtCsfvgE7hV3dwJ_27fireworks_collaboration_lib4core10credential16keychain_windowsNtB4_22WindowsCredentialStore13from_wide_ptr0Ba_
FNDA:0,_RNCNvXs_NtNtNtCsfvgE7hV3dwJ_27fireworks_collaboration_lib4core10credential16keychain_windowsNtB6_22WindowsCredentialStoreNtNtB8_7storage15CredentialStore3get0Bc_
FNDA:0,_RNvMNtNtNtCsfvgE7hV3dwJ_27fireworks_collaboration_lib4core10credential16keychain_windowsNtB2_22WindowsCredentialStore13from_wide_ptr
FNDA:0,_RNvMNtNtNtCsfvgE7hV3dwJ_27fireworks_collaboration_lib4core10credential16keychain_windowsNtB2_22WindowsCredentialStore14to_wide_string
FNDA:0,_RNvMNtNtNtCsfvgE7hV3dwJ_27fireworks_collaboration_lib4core10credential16keychain_windowsNtB2_22WindowsCredentialStore16make_target_name
FNDA:0,_RNvMNtNtNtCsfvgE7hV3dwJ_27fireworks_collaboration_lib4core10credential16keychain_windowsNtB2_22WindowsCredentialStore3new
FNDA:0,_RNvXs_NtNtNtCsfvgE7hV3dwJ_27fireworks_collaboration_lib4core10credential16keychain_windowsNtB4_22WindowsCredentialStoreNtNtB6_7storage15CredentialStore16update_last_used
FNDA:0,_RNvXs_NtNtNtCsfvgE7hV3dwJ_27fireworks_collaboration_lib4core10credential16keychain_windowsNtB4_22WindowsCredentialStoreNtNtB6_7storage15CredentialStore3add
FNDA:0,_RNvXs_NtNtNtCsfvgE7hV3dwJ_27fireworks_collaboration_lib4core10credential16keychain_windowsNtB4_22WindowsCredentialStoreNtNtB6_7storage15CredentialStore3get
FNDA:0,_RNvXs_NtNtNtCsfvgE7hV3dwJ_27fireworks_collaboration_lib4core10credential16keychain_windowsNtB4_22WindowsCredentialStoreNtNtB6_7storage15CredentialStore4list
FNDA:0,_RNvXs_NtNtNtCsfvgE7hV3dwJ_27fireworks_collaboration_lib4core10credential16keychain_windowsNtB4_22WindowsCredentialStoreNtNtB6_7storage15CredentialStore6remove
FNF:11
FNH:9
DA:25,7
DA:29,7
DA:30,7
DA:31,7
DA:32,7
DA:34,7
DA:35,7
DA:38,7
DA:39,7
DA:40,7
DA:42,7
DA:43,0
DA:45,0
DA:46,0
DA:47,0
DA:48,0
DA:49,0
DA:50,7
DA:53,7
DA:54,7
DA:57,16
DA:58,16
DA:59,16
DA:62,21
DA:63,21
DA:64,21
DA:67,19
DA:68,19
DA:69,0
DA:70,19
DA:72,1116
DA:73,19
DA:74,19
DA:76,19
DA:80,3
DA:81,3
DA:82,0
DA:83,0
DA:85,3
DA:86,3
DA:89,3
DA:90,3
DA:92,3
DA:94,1
DA:95,2
DA:97,2
DA:98,0
DA:99,0
DA:100,0
DA:101,2
DA:103,2
DA:104,2
DA:105,2
DA:106,2
DA:108,2
DA:110,2
DA:112,2
DA:114,2
DA:116,3
DA:118,5
DA:119,5
DA:120,5
DA:121,5
DA:123,5
DA:124,5
DA:125,0
DA:126,0
DA:127,0
DA:128,0
DA:129,0
DA:130,5
DA:133,5
DA:134,5
DA:135,5
DA:136,5
DA:137,5
DA:138,5
DA:139,5
DA:140,5
DA:141,5
DA:142,5
DA:143,5
DA:144,5
DA:145,5
DA:146,5
DA:148,5
DA:149,5
DA:150,0
DA:151,0
DA:152,0
DA:153,0
DA:154,5
DA:157,5
DA:158,5
DA:160,8
DA:161,8
DA:162,8
DA:165,8
DA:166,8
DA:167,3
DA:169,3
DA:170,0
DA:171,0
DA:172,0
DA:173,3
DA:174,5
DA:177,8
DA:178,8
DA:180,1
DA:181,1
DA:184,1
DA:185,1
DA:188,1
DA:189,1
DA:191,1
DA:192,1
DA:195,1
DA:196,0
DA:198,0
DA:199,0
DA:200,0
DA:201,0
DA:202,0
DA:203,0
DA:204,1
DA:206,1
DA:207,19
DA:208,19
DA:209,19
DA:210,19
DA:213,19
DA:214,0
DA:215,19
DA:217,19
DA:220,19
DA:221,16
DA:222,16
DA:225,19
DA:226,3
DA:227,3
DA:228,3
DA:229,3
DA:230,3
DA:231,3
DA:232,3
DA:233,3
DA:234,3
DA:235,3
DA:236,3
DA:237,3
DA:238,3
DA:239,16
DA:240,0
DA:243,1
DA:244,0
DA:247,1
DA:248,1
DA:250,0
DA:253,0
DA:254,0
BRF:0
BRH:0
LF:163
LH:124
end_of_record
SF:C:\Users\34404\Documents\GitHub\fireworks-collaboration\src-tauri\src\core\credential\model.rs
FN:129,_RNvMNtNtNtCscu9j8SGJFlb_27fireworks_collaboration_lib4core10credential5modelNtB2_10Credential10identifier
FN:115,_RNvMNtNtNtCscu9j8SGJFlb_27fireworks_collaboration_lib4core10credential5modelNtB2_10Credential10is_expired
FN:153,_RNvMNtNtNtCscu9j8SGJFlb_27fireworks_collaboration_lib4core10credential5modelNtB2_10Credential15masked_password
FN:98,_RNvMNtNtNtCscu9j8SGJFlb_27fireworks_collaboration_lib4core10credential5modelNtB2_10Credential15new_with_expiry
FN:124,_RNvMNtNtNtCscu9j8SGJFlb_27fireworks_collaboration_lib4core10credential5modelNtB2_10Credential16update_last_used
FN:86,_RNvMNtNtNtCscu9j8SGJFlb_27fireworks_collaboration_lib4core10credential5modelNtB2_10Credential3new
FN:184,_RNvXs0_NtNtNtCscu9j8SGJFlb_27fireworks_collaboration_lib4core10credential5modelNtB5_10CredentialNtNtCs5cb5cxfFw7H_4core3fmt5Debug3fmt
FN:169,_RNvXs_NtNtNtCscu9j8SGJFlb_27fireworks_collaboration_lib4core10credential5modelNtB4_10CredentialNtNtCs5cb5cxfFw7H_4core3fmt7Display3fmt
FN:129,_RNvMNtNtNtCsfvgE7hV3dwJ_27fireworks_collaboration_lib4core10credential5modelNtB2_10Credential10identifier
FN:115,_RNvMNtNtNtCsfvgE7hV3dwJ_27fireworks_collaboration_lib4core10credential5modelNtB2_10Credential10is_expired
FN:153,_RNvMNtNtNtCsfvgE7hV3dwJ_27fireworks_collaboration_lib4core10credential5modelNtB2_10Credential15masked_password
FN:98,_RNvMNtNtNtCsfvgE7hV3dwJ_27fireworks_collaboration_lib4core10credential5modelNtB2_10Credential15new_with_expiry
FN:124,_RNvMNtNtNtCsfvgE7hV3dwJ_27fireworks_collaboration_lib4core10credential5modelNtB2_10Credential16update_last_used
FN:86,_RNvMNtNtNtCsfvgE7hV3dwJ_27fireworks_collaboration_lib4core10credential5modelNtB2_10Credential3new
FN:184,_RNvXs0_NtNtNtCsfvgE7hV3dwJ_27fireworks_collaboration_lib4core10credential5modelNtB5_10CredentialNtNtCs5cb5cxfFw7H_4core3fmt5Debug3fmt
FN:169,_RNvXs_NtNtNtCsfvgE7hV3dwJ_27fireworks_collaboration_lib4core10credential5modelNtB4_10CredentialNtNtCs5cb5cxfFw7H_4core3fmt7Display3fmt
FNDA:6,_RNvMNtNtNtCscu9j8SGJFlb_27fireworks_collaboration_lib4core10credential5modelNtB2_10Credential10identifier
FNDA:823064,_RNvMNtNtNtCscu9j8SGJFlb_27fireworks_collaboration_lib4core10credential5modelNtB2_10Credential10is_expired
FNDA:31,_RNvMNtNtNtCscu9j8SGJFlb_27fireworks_collaboration_lib4core10credential5modelNtB2_10Credential15masked_password
FNDA:16,_RNvMNtNtNtCscu9j8SGJFlb_27fireworks_collaboration_lib4core10credential5modelNtB2_10Credential15new_with_expiry
FNDA:514,_RNvMNtNtNtCscu9j8SGJFlb_27fireworks_collaboration_lib4core10credential5modelNtB2_10Credential16update_last_used
FNDA:6371,_RNvMNtNtNtCscu9j8SGJFlb_27fireworks_collaboration_lib4core10credential5modelNtB2_10Credential3new
FNDA:5,_RNvXs0_NtNtNtCscu9j8SGJFlb_27fireworks_collaboration_lib4core10credential5modelNtB5_10CredentialNtNtCs5cb5cxfFw7H_4core3fmt5Debug3fmt
FNDA:5,_RNvXs_NtNtNtCscu9j8SGJFlb_27fireworks_collaboration_lib4core10credential5modelNtB4_10CredentialNtNtCs5cb5cxfFw7H_4core3fmt7Display3fmt
FNDA:0,_RNvMNtNtNtCsfvgE7hV3dwJ_27fireworks_collaboration_lib4core10credential5modelNtB2_10Credential10identifier
FNDA:0,_RNvMNtNtNtCsfvgE7hV3dwJ_27fireworks_collaboration_lib4core10credential5modelNtB2_10Credential10is_expired
FNDA:0,_RNvMNtNtNtCsfvgE7hV3dwJ_27fireworks_collaboration_lib4core10credential5modelNtB2_10Credential15masked_password
FNDA:0,_RNvMNtNtNtCsfvgE7hV3dwJ_27fireworks_collaboration_lib4core10credential5modelNtB2_10Credential15new_with_expiry
FNDA:0,_RNvMNtNtNtCsfvgE7hV3dwJ_27fireworks_collaboration_lib4core10credential5modelNtB2_10Credential16update_last_used
FNDA:0,_RNvMNtNtNtCsfvgE7hV3dwJ_27fireworks_collaboration_lib4core10credential5modelNtB2_10Credential3new
FNDA:0,_RNvXs0_NtNtNtCsfvgE7hV3dwJ_27fireworks_collaboration_lib4core10credential5modelNtB5_10CredentialNtNtCs5cb5cxfFw7H_4core3fmt5Debug3fmt
FNDA:0,_RNvXs_NtNtNtCsfvgE7hV3dwJ_27fireworks_collaboration_lib4core10credential5modelNtB4_10CredentialNtNtCs5cb5cxfFw7H_4core3fmt7Display3fmt
FNF:8
FNH:8
DA:86,6371
DA:87,6371
DA:88,6371
DA:89,6371
DA:90,6371
DA:91,6371
DA:92,6371
DA:93,6371
DA:94,6371
DA:95,6371
DA:98,16
DA:99,16
DA:100,16
DA:101,16
DA:102,16
DA:103,16
DA:104,16
DA:105,16
DA:106,16
DA:107,16
DA:108,16
DA:109,16
DA:110,16
DA:111,16
DA:112,16
DA:115,823064
DA:116,823064
DA:117,19
DA:119,823045
DA:121,823064
DA:124,514
DA:125,514
DA:126,514
DA:129,6
DA:130,6
DA:131,6
DA:153,31
DA:154,31
DA:155,31
DA:156,9
DA:158,22
DA:159,22
DA:160,22
DA:162,31
DA:169,5
DA:170,5
DA:171,5
DA:172,5
DA:175,5
DA:179,5
DA:184,5
DA:185,5
DA:186,5
DA:187,5
DA:188,5
DA:189,5
DA:190,5
DA:191,5
DA:192,5
DA:193,5
BRF:0
BRH:0
LF:60
LH:60
end_of_record
SF:C:\Users\34404\Documents\GitHub\fireworks-collaboration\src-tauri\src\core\credential\storage.rs
FN:287,_RNCNvXs0_NtNtNtCscu9j8SGJFlb_27fireworks_collaboration_lib4core10credential7storageNtB7_21MemoryCredentialStoreNtB7_15CredentialStore16update_last_used0Bd_
FN:241,_RNCNvXs0_NtNtNtCscu9j8SGJFlb_27fireworks_collaboration_lib4core10credential7storageNtB7_21MemoryCredentialStoreNtB7_15CredentialStore3add0Bd_
FN:215,_RNCNvXs0_NtNtNtCscu9j8SGJFlb_27fireworks_collaboration_lib4core10credential7storageNtB7_21MemoryCredentialStoreNtB7_15CredentialStore3get0Bd_
FN:272,_RNCNvXs0_NtNtNtCscu9j8SGJFlb_27fireworks_collaboration_lib4core10credential7storageNtB7_21MemoryCredentialStoreNtB7_15CredentialStore4list0Bd_
FN:276,_RNCNvXs0_NtNtNtCscu9j8SGJFlb_27fireworks_collaboration_lib4core10credential7storageNtB7_21MemoryCredentialStoreNtB7_15CredentialStore4lists_0Bd_
FN:257,_RNCNvXs0_NtNtNtCscu9j8SGJFlb_27fireworks_collaboration_lib4core10credential7storageNtB7_21MemoryCredentialStoreNtB7_15CredentialStore6remove0Bd_
FN:180,_RNvYNtNtNtNtCscu9j8SGJFlb_27fireworks_collaboration_lib4core10credential7storage21MemoryCredentialStoreNtB4_15CredentialStore6existsBa_
FN:192,_RNvMNtNtNtCscu9j8SGJFlb_27fireworks_collaboration_lib4core10credential7storageNtB2_21MemoryCredentialStore3new
FN:199,_RNvMNtNtNtCscu9j8SGJFlb_27fireworks_collaboration_lib4core10credential7storageNtB2_21MemoryCredentialStore8make_key
FN:283,_RNvXs0_NtNtNtCscu9j8SGJFlb_27fireworks_collaboration_lib4core10credential7storageNtB5_21MemoryCredentialStoreNtB5_15CredentialStore16update_last_used
FN:237,_RNvXs0_NtNtNtCscu9j8SGJFlb_27fireworks_collaboration_lib4core10credential7storageNtB5_21MemoryCredentialStoreNtB5_15CredentialStore3add
FN:211,_RNvXs0_NtNtNtCscu9j8SGJFlb_27fireworks_collaboration_lib4core10credential7storageNtB5_21MemoryCredentialStoreNtB5_15CredentialStore3get
FN:268,_RNvXs0_NtNtNtCscu9j8SGJFlb_27fireworks_collaboration_lib4core10credential7storageNtB5_21MemoryCredentialStoreNtB5_15CredentialStore4list
FN:253,_RNvXs0_NtNtNtCscu9j8SGJFlb_27fireworks_collaboration_lib4core10credential7storageNtB5_21MemoryCredentialStoreNtB5_15CredentialStore6remove
FN:205,_RNvXs_NtNtNtCscu9j8SGJFlb_27fireworks_collaboration_lib4core10credential7storageNtB4_21MemoryCredentialStoreNtNtCs5cb5cxfFw7H_4core7default7Default7default
FN:180,_RNvYNtNtNtNtCscu9j8SGJFlb_27fireworks_collaboration_lib4core10credential10file_store18EncryptedFileStoreNtNtB6_7storage15CredentialStore6existsBa_
FN:180,_RNvYNtNtNtNtCscu9j8SGJFlb_27fireworks_collaboration_lib4core10credential16keychain_windows22WindowsCredentialStoreNtNtB6_7storage15CredentialStore6existsBa_
FN:287,_RNCNvXs0_NtNtNtCsfvgE7hV3dwJ_27fireworks_collaboration_lib4core10credential7storageNtB7_21MemoryCredentialStoreNtB7_15CredentialStore16update_last_used0Bd_
FN:241,_RNCNvXs0_NtNtNtCsfvgE7hV3dwJ_27fireworks_collaboration_lib4core10credential7storageNtB7_21MemoryCredentialStoreNtB7_15CredentialStore3add0Bd_
FN:215,_RNCNvXs0_NtNtNtCsfvgE7hV3dwJ_27fireworks_collaboration_lib4core10credential7storageNtB7_21MemoryCredentialStoreNtB7_15CredentialStore3get0Bd_
FN:272,_RNCNvXs0_NtNtNtCsfvgE7hV3dwJ_27fireworks_collaboration_lib4core10credential7storageNtB7_21MemoryCredentialStoreNtB7_15CredentialStore4list0Bd_
FN:276,_RNCNvXs0_NtNtNtCsfvgE7hV3dwJ_27fireworks_collaboration_lib4core10credential7storageNtB7_21MemoryCredentialStoreNtB7_15CredentialStore4lists_0Bd_
FN:257,_RNCNvXs0_NtNtNtCsfvgE7hV3dwJ_27fireworks_collaboration_lib4core10credential7storageNtB7_21MemoryCredentialStoreNtB7_15CredentialStore6remove0Bd_
FN:192,_RNvMNtNtNtCsfvgE7hV3dwJ_27fireworks_collaboration_lib4core10credential7storageNtB2_21MemoryCredentialStore3new
FN:199,_RNvMNtNtNtCsfvgE7hV3dwJ_27fireworks_collaboration_lib4core10credential7storageNtB2_21MemoryCredentialStore8make_key
FN:283,_RNvXs0_NtNtNtCsfvgE7hV3dwJ_27fireworks_collaboration_lib4core10credential7storageNtB5_21MemoryCredentialStoreNtB5_15CredentialStore16update_last_used
FN:237,_RNvXs0_NtNtNtCsfvgE7hV3dwJ_27fireworks_collaboration_lib4core10credential7storageNtB5_21MemoryCredentialStoreNtB5_15CredentialStore3add
FN:211,_RNvXs0_NtNtNtCsfvgE7hV3dwJ_27fireworks_collaboration_lib4core10credential7storageNtB5_21MemoryCredentialStoreNtB5_15CredentialStore3get
FN:268,_RNvXs0_NtNtNtCsfvgE7hV3dwJ_27fireworks_collaboration_lib4core10credential7storageNtB5_21MemoryCredentialStoreNtB5_15CredentialStore4list
FN:253,_RNvXs0_NtNtNtCsfvgE7hV3dwJ_27fireworks_collaboration_lib4core10credential7storageNtB5_21MemoryCredentialStoreNtB5_15CredentialStore6remove
FN:205,_RNvXs_NtNtNtCsfvgE7hV3dwJ_27fireworks_collaboration_lib4core10credential7storageNtB4_21MemoryCredentialStoreNtNtCs5cb5cxfFw7H_4core7default7Default7default
FN:180,_RNvYpNtNtNtNtCsfvgE7hV3dwJ_27fireworks_collaboration_lib4core10credential7storage15CredentialStore6existsBb_
FNDA:0,_RNCNvXs0_NtNtNtCscu9j8SGJFlb_27fireworks_collaboration_lib4core10credential7storageNtB7_21MemoryCredentialStoreNtB7_15CredentialStore16update_last_used0Bd_
FNDA:0,_RNCNvXs0_NtNtNtCscu9j8SGJFlb_27fireworks_collaboration_lib4core10credential7storageNtB7_21MemoryCredentialStoreNtB7_15CredentialStore3add0Bd_
FNDA:0,_RNCNvXs0_NtNtNtCscu9j8SGJFlb_27fireworks_collaboration_lib4core10credential7storageNtB7_21MemoryCredentialStoreNtB7_15CredentialStore3get0Bd_
FNDA:0,_RNCNvXs0_NtNtNtCscu9j8SGJFlb_27fireworks_collaboration_lib4core10credential7storageNtB7_21MemoryCredentialStoreNtB7_15CredentialStore4list0Bd_
FNDA:820002,_RNCNvXs0_NtNtNtCscu9j8SGJFlb_27fireworks_collaboration_lib4core10credential7storageNtB7_21MemoryCredentialStoreNtB7_15CredentialStore4lists_0Bd_
FNDA:0,_RNCNvXs0_NtNtNtCscu9j8SGJFlb_27fireworks_collaboration_lib4core10credential7storageNtB7_21MemoryCredentialStoreNtB7_15CredentialStore6remove0Bd_
FNDA:0,_RNvYNtNtNtNtCscu9j8SGJFlb_27fireworks_collaboration_lib4core10credential7storage21MemoryCredentialStoreNtB4_15CredentialStore6existsBa_
FNDA:69,_RNvMNtNtNtCscu9j8SGJFlb_27fireworks_collaboration_lib4core10credential7storageNtB2_21MemoryCredentialStore3new
FNDA:14043,_RNvMNtNtNtCscu9j8SGJFlb_27fireworks_collaboration_lib4core10credential7storageNtB2_21MemoryCredentialStore8make_key
FNDA:1762,_RNvXs0_NtNtNtCscu9j8SGJFlb_27fireworks_collaboration_lib4core10credential7storageNtB5_21MemoryCredentialStoreNtB5_15CredentialStore16update_last_used
FNDA:5424,_RNvXs0_NtNtNtCscu9j8SGJFlb_27fireworks_collaboration_lib4core10credential7storageNtB5_21MemoryCredentialStoreNtB5_15CredentialStore3add
FNDA:5831,_RNvXs0_NtNtNtCscu9j8SGJFlb_27fireworks_collaboration_lib4core10credential7storageNtB5_21MemoryCredentialStoreNtB5_15CredentialStore3get
FNDA:2271,_RNvXs0_NtNtNtCscu9j8SGJFlb_27fireworks_collaboration_lib4core10credential7storageNtB5_21MemoryCredentialStoreNtB5_15CredentialStore4list
FNDA:1028,_RNvXs0_NtNtNtCscu9j8SGJFlb_27fireworks_collaboration_lib4core10credential7storageNtB5_21MemoryCredentialStoreNtB5_15CredentialStore6remove
FNDA:0,_RNvXs_NtNtNtCscu9j8SGJFlb_27fireworks_collaboration_lib4core10credential7storageNtB4_21MemoryCredentialStoreNtNtCs5cb5cxfFw7H_4core7default7Default7default
FNDA:0,_RNvYNtNtNtNtCscu9j8SGJFlb_27fireworks_collaboration_lib4core10credential10file_store18EncryptedFileStoreNtNtB6_7storage15CredentialStore6existsBa_
FNDA:0,_RNvYNtNtNtNtCscu9j8SGJFlb_27fireworks_collaboration_lib4core10credential16keychain_windows22WindowsCredentialStoreNtNtB6_7storage15CredentialStore6existsBa_
FNDA:0,_RNCNvXs0_NtNtNtCsfvgE7hV3dwJ_27fireworks_collaboration_lib4core10credential7storageNtB7_21MemoryCredentialStoreNtB7_15CredentialStore16update_last_used0Bd_
FNDA:0,_RNCNvXs0_NtNtNtCsfvgE7hV3dwJ_27fireworks_collaboration_lib4core10credential7storageNtB7_21MemoryCredentialStoreNtB7_15CredentialStore3add0Bd_
FNDA:0,_RNCNvXs0_NtNtNtCsfvgE7hV3dwJ_27fireworks_collaboration_lib4core10credential7storageNtB7_21MemoryCredentialStoreNtB7_15CredentialStore3get0Bd_
FNDA:0,_RNCNvXs0_NtNtNtCsfvgE7hV3dwJ_27fireworks_collaboration_lib4core10credential7storageNtB7_21MemoryCredentialStoreNtB7_15CredentialStore4list0Bd_
FNDA:0,_RNCNvXs0_NtNtNtCsfvgE7hV3dwJ_27fireworks_collaboration_lib4core10credential7storageNtB7_21MemoryCredentialStoreNtB7_15CredentialStore4lists_0Bd_
FNDA:0,_RNCNvXs0_NtNtNtCsfvgE7hV3dwJ_27fireworks_collaboration_lib4core10credential7storageNtB7_21MemoryCredentialStoreNtB7_15CredentialStore6remove0Bd_
FNDA:0,_RNvMNtNtNtCsfvgE7hV3dwJ_27fireworks_collaboration_lib4core10credential7storageNtB2_21MemoryCredentialStore3new
FNDA:0,_RNvMNtNtNtCsfvgE7hV3dwJ_27fireworks_collaboration_lib4core10credential7storageNtB2_21MemoryCredentialStore8make_key
FNDA:0,_RNvXs0_NtNtNtCsfvgE7hV3dwJ_27fireworks_collaboration_lib4core10credential7storageNtB5_21MemoryCredentialStoreNtB5_15CredentialStore16update_last_used
FNDA:0,_RNvXs0_NtNtNtCsfvgE7hV3dwJ_27fireworks_collaboration_lib4core10credential7storageNtB5_21MemoryCredentialStoreNtB5_15CredentialStore3add
FNDA:0,_RNvXs0_NtNtNtCsfvgE7hV3dwJ_27fireworks_collaboration_lib4core10credential7storageNtB5_21MemoryCredentialStoreNtB5_15CredentialStore3get
FNDA:0,_RNvXs0_NtNtNtCsfvgE7hV3dwJ_27fireworks_collaboration_lib4core10credential7storageNtB5_21MemoryCredentialStoreNtB5_15CredentialStore4list
FNDA:0,_RNvXs0_NtNtNtCsfvgE7hV3dwJ_27fireworks_collaboration_lib4core10credential7storageNtB5_21MemoryCredentialStoreNtB5_15CredentialStore6remove
FNDA:0,_RNvXs_NtNtNtCsfvgE7hV3dwJ_27fireworks_collaboration_lib4core10credential7storageNtB4_21MemoryCredentialStoreNtNtCs5cb5cxfFw7H_4core7default7Default7default
FNDA:0,_RNvYpNtNtNtNtCsfvgE7hV3dwJ_27fireworks_collaboration_lib4core10credential7storage15CredentialStore6existsBb_
FNF:15
FNH:8
DA:180,0
DA:181,0
DA:182,0
DA:192,69
DA:193,69
DA:194,69
DA:195,69
DA:196,69
DA:199,14043
DA:200,14043
DA:201,14043
DA:205,0
DA:206,0
DA:207,0
DA:211,5831
DA:212,5831
DA:213,5831
DA:214,5831
DA:215,5831
DA:217,5831
DA:218,5829
DA:219,5829
DA:220,2575
DA:221,3
DA:222,2572
DA:223,2572
DA:224,3254
DA:227,2
DA:228,2
DA:229,2
DA:230,0
DA:234,3254
DA:235,5831
DA:237,5424
DA:238,5424
DA:239,5424
DA:240,5424
DA:241,5424
DA:243,5424
DA:245,5424
DA:246,10
DA:247,5414
DA:249,5414
DA:250,5414
DA:251,5424
DA:253,1028
DA:254,1028
DA:255,1028
DA:256,1028
DA:257,1028
DA:259,1028
DA:261,1028
DA:262,9
DA:263,1019
DA:265,1019
DA:266,1028
DA:268,2271
DA:269,2271
DA:270,2271
DA:271,2271
DA:272,2271
DA:274,2271
DA:275,2271
DA:276,820002
DA:277,2271
DA:278,2271
DA:280,2271
DA:281,2271
DA:283,1762
DA:284,1762
DA:285,1762
DA:286,1762
DA:287,1762
DA:289,1762
DA:291,1762
DA:292,512
DA:293,512
DA:295,1250
DA:297,1762
BRF:0
BRH:0
LF:85
LH:73
end_of_record
SF:C:\Users\34404\Documents\GitHub\fireworks-collaboration\src-tauri\src\core\git\default_impl\add.rs
FN:15,_RINvNtNtNtNtCscu9j8SGJFlb_27fireworks_collaboration_lib4core3git12default_impl3add7git_addNCNCNvMNtNtNtB8_5tasks12git_registry5localNtNtB1B_8registry12TaskRegistry18spawn_git_add_task0s_0EBa_
FN:15,_RINvNtNtNtNtCscu9j8SGJFlb_27fireworks_collaboration_lib4core3git12default_impl3add7git_addNCNvNtNtBa_4soak6runner14prepare_commits_0EBa_
FN:15,_RINvNtNtNtNtCscu9j8SGJFlb_27fireworks_collaboration_lib4core3git12default_impl3add7git_addNCNvNtNtBa_4soak6runner14setup_producers3_0EBa_
FN:55,_RNCINvNtNtNtNtCscu9j8SGJFlb_27fireworks_collaboration_lib4core3git12default_impl3add7git_addNCNCNvMNtNtNtBa_5tasks12git_registry5localNtNtB1D_8registry12TaskRegistry18spawn_git_add_task0s_0E0Bc_
FN:64,_RNCINvNtNtNtNtCscu9j8SGJFlb_27fireworks_collaboration_lib4core3git12default_impl3add7git_addNCNCNvMNtNtNtBa_5tasks12git_registry5localNtNtB1D_8registry12TaskRegistry18spawn_git_add_task0s_0Es0_0Bc_
FN:71,_RNCINvNtNtNtNtCscu9j8SGJFlb_27fireworks_collaboration_lib4core3git12default_impl3add7git_addNCNCNvMNtNtNtBa_5tasks12git_registry5localNtNtB1D_8registry12TaskRegistry18spawn_git_add_task0s_0Es1_0Bc_
FN:88,_RNCINvNtNtNtNtCscu9j8SGJFlb_27fireworks_collaboration_lib4core3git12default_impl3add7git_addNCNCNvMNtNtNtBa_5tasks12git_registry5localNtNtB1D_8registry12TaskRegistry18spawn_git_add_task0s_0Es2_0Bc_
FN:113,_RNCINvNtNtNtNtCscu9j8SGJFlb_27fireworks_collaboration_lib4core3git12default_impl3add7git_addNCNCNvMNtNtNtBa_5tasks12git_registry5localNtNtB1D_8registry12TaskRegistry18spawn_git_add_task0s_0Es3_0Bc_
FN:120,_RNCINvNtNtNtNtCscu9j8SGJFlb_27fireworks_collaboration_lib4core3git12default_impl3add7git_addNCNCNvMNtNtNtBa_5tasks12git_registry5localNtNtB1D_8registry12TaskRegistry18spawn_git_add_task0s_0Es4_0Bc_
FN:138,_RNCINvNtNtNtNtCscu9j8SGJFlb_27fireworks_collaboration_lib4core3git12default_impl3add7git_addNCNCNvMNtNtNtBa_5tasks12git_registry5localNtNtB1D_8registry12TaskRegistry18spawn_git_add_task0s_0Es5_0Bc_
FN:63,_RNCINvNtNtNtNtCscu9j8SGJFlb_27fireworks_collaboration_lib4core3git12default_impl3add7git_addNCNCNvMNtNtNtBa_5tasks12git_registry5localNtNtB1D_8registry12TaskRegistry18spawn_git_add_task0s_0Es_0Bc_
FN:55,_RNCINvNtNtNtNtCscu9j8SGJFlb_27fireworks_collaboration_lib4core3git12default_impl3add7git_addNCNvNtNtBc_4soak6runner14prepare_commits_0E0Bc_
FN:64,_RNCINvNtNtNtNtCscu9j8SGJFlb_27fireworks_collaboration_lib4core3git12default_impl3add7git_addNCNvNtNtBc_4soak6runner14prepare_commits_0Es0_0Bc_
FN:71,_RNCINvNtNtNtNtCscu9j8SGJFlb_27fireworks_collaboration_lib4core3git12default_impl3add7git_addNCNvNtNtBc_4soak6runner14prepare_commits_0Es1_0Bc_
FN:88,_RNCINvNtNtNtNtCscu9j8SGJFlb_27fireworks_collaboration_lib4core3git12default_impl3add7git_addNCNvNtNtBc_4soak6runner14prepare_commits_0Es2_0Bc_
FN:113,_RNCINvNtNtNtNtCscu9j8SGJFlb_27fireworks_collaboration_lib4core3git12default_impl3add7git_addNCNvNtNtBc_4soak6runner14prepare_commits_0Es3_0Bc_
FN:120,_RNCINvNtNtNtNtCscu9j8SGJFlb_27fireworks_collaboration_lib4core3git12default_impl3add7git_addNCNvNtNtBc_4soak6runner14prepare_commits_0Es4_0Bc_
FN:138,_RNCINvNtNtNtNtCscu9j8SGJFlb_27fireworks_collaboration_lib4core3git12default_impl3add7git_addNCNvNtNtBc_4soak6runner14prepare_commits_0Es5_0Bc_
FN:63,_RNCINvNtNtNtNtCscu9j8SGJFlb_27fireworks_collaboration_lib4core3git12default_impl3add7git_addNCNvNtNtBc_4soak6runner14prepare_commits_0Es_0Bc_
FN:55,_RNCINvNtNtNtNtCscu9j8SGJFlb_27fireworks_collaboration_lib4core3git12default_impl3add7git_addNCNvNtNtBc_4soak6runner14setup_producers3_0E0Bc_
FN:64,_RNCINvNtNtNtNtCscu9j8SGJFlb_27fireworks_collaboration_lib4core3git12default_impl3add7git_addNCNvNtNtBc_4soak6runner14setup_producers3_0Es0_0Bc_
FN:71,_RNCINvNtNtNtNtCscu9j8SGJFlb_27fireworks_collaboration_lib4core3git12default_impl3add7git_addNCNvNtNtBc_4soak6runner14setup_producers3_0Es1_0Bc_
FN:88,_RNCINvNtNtNtNtCscu9j8SGJFlb_27fireworks_collaboration_lib4core3git12default_impl3add7git_addNCNvNtNtBc_4soak6runner14setup_producers3_0Es2_0Bc_
FN:113,_RNCINvNtNtNtNtCscu9j8SGJFlb_27fireworks_collaboration_lib4core3git12default_impl3add7git_addNCNvNtNtBc_4soak6runner14setup_producers3_0Es3_0Bc_
FN:120,_RNCINvNtNtNtNtCscu9j8SGJFlb_27fireworks_collaboration_lib4core3git12default_impl3add7git_addNCNvNtNtBc_4soak6runner14setup_producers3_0Es4_0Bc_
FN:138,_RNCINvNtNtNtNtCscu9j8SGJFlb_27fireworks_collaboration_lib4core3git12default_impl3add7git_addNCNvNtNtBc_4soak6runner14setup_producers3_0Es5_0Bc_
FN:63,_RNCINvNtNtNtNtCscu9j8SGJFlb_27fireworks_collaboration_lib4core3git12default_impl3add7git_addNCNvNtNtBc_4soak6runner14setup_producers3_0Es_0Bc_
FN:11,_RNvNtNtNtNtCscu9j8SGJFlb_27fireworks_collaboration_lib4core3git12default_impl3add19normalize_component
FN:15,_RINvNtNtNtNtCscu9j8SGJFlb_27fireworks_collaboration_lib4core3git12default_impl3add7git_addNCNvNtNtCsgV7FHrbFFzv_8commands6common12repo_factory11commit_file0EB1y_
FN:55,_RNCINvNtNtNtNtCscu9j8SGJFlb_27fireworks_collaboration_lib4core3git12default_impl3add7git_addNCNvNtNtCsgV7FHrbFFzv_8commands6common12repo_factory11commit_file0E0B1A_
FN:64,_RNCINvNtNtNtNtCscu9j8SGJFlb_27fireworks_collaboration_lib4core3git12default_impl3add7git_addNCNvNtNtCsgV7FHrbFFzv_8commands6common12repo_factory11commit_file0Es0_0B1A_
FN:71,_RNCINvNtNtNtNtCscu9j8SGJFlb_27fireworks_collaboration_lib4core3git12default_impl3add7git_addNCNvNtNtCsgV7FHrbFFzv_8commands6common12repo_factory11commit_file0Es1_0B1A_
FN:88,_RNCINvNtNtNtNtCscu9j8SGJFlb_27fireworks_collaboration_lib4core3git12default_impl3add7git_addNCNvNtNtCsgV7FHrbFFzv_8commands6common12repo_factory11commit_file0Es2_0B1A_
FN:113,_RNCINvNtNtNtNtCscu9j8SGJFlb_27fireworks_collaboration_lib4core3git12default_impl3add7git_addNCNvNtNtCsgV7FHrbFFzv_8commands6common12repo_factory11commit_file0Es3_0B1A_
FN:120,_RNCINvNtNtNtNtCscu9j8SGJFlb_27fireworks_collaboration_lib4core3git12default_impl3add7git_addNCNvNtNtCsgV7FHrbFFzv_8commands6common12repo_factory11commit_file0Es4_0B1A_
FN:138,_RNCINvNtNtNtNtCscu9j8SGJFlb_27fireworks_collaboration_lib4core3git12default_impl3add7git_addNCNvNtNtCsgV7FHrbFFzv_8commands6common12repo_factory11commit_file0Es5_0B1A_
FN:63,_RNCINvNtNtNtNtCscu9j8SGJFlb_27fireworks_collaboration_lib4core3git12default_impl3add7git_addNCNvNtNtCsgV7FHrbFFzv_8commands6common12repo_factory11commit_file0Es_0B1A_
FN:15,_RINvNtNtNtNtCscu9j8SGJFlb_27fireworks_collaboration_lib4core3git12default_impl3add7git_addNCNvNtNtCs6dua4rg4Ovk_3e2e6common12repo_factory11commit_file0EB1y_
FN:55,_RNCINvNtNtNtNtCscu9j8SGJFlb_27fireworks_collaboration_lib4core3git12default_impl3add7git_addNCNvNtNtCs6dua4rg4Ovk_3e2e6common12repo_factory11commit_file0E0B1A_
FN:64,_RNCINvNtNtNtNtCscu9j8SGJFlb_27fireworks_collaboration_lib4core3git12default_impl3add7git_addNCNvNtNtCs6dua4rg4Ovk_3e2e6common12repo_factory11commit_file0Es0_0B1A_
FN:71,_RNCINvNtNtNtNtCscu9j8SGJFlb_27fireworks_collaboration_lib4core3git12default_impl3add7git_addNCNvNtNtCs6dua4rg4Ovk_3e2e6common12repo_factory11commit_file0Es1_0B1A_
FN:88,_RNCINvNtNtNtNtCscu9j8SGJFlb_27fireworks_collaboration_lib4core3git12default_impl3add7git_addNCNvNtNtCs6dua4rg4Ovk_3e2e6common12repo_factory11commit_file0Es2_0B1A_
FN:113,_RNCINvNtNtNtNtCscu9j8SGJFlb_27fireworks_collaboration_lib4core3git12default_impl3add7git_addNCNvNtNtCs6dua4rg4Ovk_3e2e6common12repo_factory11commit_file0Es3_0B1A_
FN:120,_RNCINvNtNtNtNtCscu9j8SGJFlb_27fireworks_collaboration_lib4core3git12default_impl3add7git_addNCNvNtNtCs6dua4rg4Ovk_3e2e6common12repo_factory11commit_file0Es4_0B1A_
FN:138,_RNCINvNtNtNtNtCscu9j8SGJFlb_27fireworks_collaboration_lib4core3git12default_impl3add7git_addNCNvNtNtCs6dua4rg4Ovk_3e2e6common12repo_factory11commit_file0Es5_0B1A_
FN:63,_RNCINvNtNtNtNtCscu9j8SGJFlb_27fireworks_collaboration_lib4core3git12default_impl3add7git_addNCNvNtNtCs6dua4rg4Ovk_3e2e6common12repo_factory11commit_file0Es_0B1A_
FN:15,_RINvNtNtNtNtCscu9j8SGJFlb_27fireworks_collaboration_lib4core3git12default_impl3add7git_addNCNvNtNtCs5NYoXysI8dX_6events6common12repo_factory11commit_file0EB1y_
FN:55,_RNCINvNtNtNtNtCscu9j8SGJFlb_27fireworks_collaboration_lib4core3git12default_impl3add7git_addNCNvNtNtCs5NYoXysI8dX_6events6common12repo_factory11commit_file0E0B1A_
FN:64,_RNCINvNtNtNtNtCscu9j8SGJFlb_27fireworks_collaboration_lib4core3git12default_impl3add7git_addNCNvNtNtCs5NYoXysI8dX_6events6common12repo_factory11commit_file0Es0_0B1A_
FN:71,_RNCINvNtNtNtNtCscu9j8SGJFlb_27fireworks_collaboration_lib4core3git12default_impl3add7git_addNCNvNtNtCs5NYoXysI8dX_6events6common12repo_factory11commit_file0Es1_0B1A_
FN:88,_RNCINvNtNtNtNtCscu9j8SGJFlb_27fireworks_collaboration_lib4core3git12default_impl3add7git_addNCNvNtNtCs5NYoXysI8dX_6events6common12repo_factory11commit_file0Es2_0B1A_
FN:113,_RNCINvNtNtNtNtCscu9j8SGJFlb_27fireworks_collaboration_lib4core3git12default_impl3add7git_addNCNvNtNtCs5NYoXysI8dX_6events6common12repo_factory11commit_file0Es3_0B1A_
FN:120,_RNCINvNtNtNtNtCscu9j8SGJFlb_27fireworks_collaboration_lib4core3git12default_impl3add7git_addNCNvNtNtCs5NYoXysI8dX_6events6common12repo_factory11commit_file0Es4_0B1A_
FN:138,_RNCINvNtNtNtNtCscu9j8SGJFlb_27fireworks_collaboration_lib4core3git12default_impl3add7git_addNCNvNtNtCs5NYoXysI8dX_6events6common12repo_factory11commit_file0Es5_0B1A_
FN:63,_RNCINvNtNtNtNtCscu9j8SGJFlb_27fireworks_collaboration_lib4core3git12default_impl3add7git_addNCNvNtNtCs5NYoXysI8dX_6events6common12repo_factory11commit_file0Es_0B1A_
FN:15,_RINvNtNtNtNtCsfvgE7hV3dwJ_27fireworks_collaboration_lib4core3git12default_impl3add7git_addpEBa_
FN:55,_RNCINvNtNtNtNtCsfvgE7hV3dwJ_27fireworks_collaboration_lib4core3git12default_impl3add7git_addpE0Bc_
FN:64,_RNCINvNtNtNtNtCsfvgE7hV3dwJ_27fireworks_collaboration_lib4core3git12default_impl3add7git_addpEs0_0Bc_
FN:71,_RNCINvNtNtNtNtCsfvgE7hV3dwJ_27fireworks_collaboration_lib4core3git12default_impl3add7git_addpEs1_0Bc_
FN:88,_RNCINvNtNtNtNtCsfvgE7hV3dwJ_27fireworks_collaboration_lib4core3git12default_impl3add7git_addpEs2_0Bc_
FN:113,_RNCINvNtNtNtNtCsfvgE7hV3dwJ_27fireworks_collaboration_lib4core3git12default_impl3add7git_addpEs3_0Bc_
FN:120,_RNCINvNtNtNtNtCsfvgE7hV3dwJ_27fireworks_collaboration_lib4core3git12default_impl3add7git_addpEs4_0Bc_
FN:138,_RNCINvNtNtNtNtCsfvgE7hV3dwJ_27fireworks_collaboration_lib4core3git12default_impl3add7git_addpEs5_0Bc_
FN:63,_RNCINvNtNtNtNtCsfvgE7hV3dwJ_27fireworks_collaboration_lib4core3git12default_impl3add7git_addpEs_0Bc_
FN:11,_RNvNtNtNtNtCsfvgE7hV3dwJ_27fireworks_collaboration_lib4core3git12default_impl3add19normalize_component
FN:15,_RINvNtNtNtNtCscu9j8SGJFlb_27fireworks_collaboration_lib4core3git12default_impl3add7git_addNCNvNtNtCsgvyBa5thnhP_3git18git_add_and_commit16section_add_edges_20add_cancelled_before0EB1y_
FN:15,_RINvNtNtNtNtCscu9j8SGJFlb_27fireworks_collaboration_lib4core3git12default_impl3add7git_addNCNvNtNtCsgvyBa5thnhP_3git18git_add_and_commit16section_add_edges_22add_rejects_empty_lists_0EB1y_
FN:15,_RINvNtNtNtNtCscu9j8SGJFlb_27fireworks_collaboration_lib4core3git12default_impl3add7git_addNCNvNtNtCsgvyBa5thnhP_3git18git_add_and_commit16section_add_edges_37add_rejects_outside_path_and_absolutes0_0EB1y_
FN:15,_RINvNtNtNtNtCscu9j8SGJFlb_27fireworks_collaboration_lib4core3git12default_impl3add7git_addNCNvNtNtCsgvyBa5thnhP_3git18git_add_and_commit16section_add_edges_37add_rejects_outside_path_and_absolutes_0EB1y_
FN:15,_RINvNtNtNtNtCscu9j8SGJFlb_27fireworks_collaboration_lib4core3git12default_impl3add7git_addNCNvNtNtCsgvyBa5thnhP_3git18git_add_and_commit17section_add_basics_43add_success_with_dir_and_dedup_and_progresss_0EB1y_
FN:15,_RINvNtNtNtNtCscu9j8SGJFlb_27fireworks_collaboration_lib4core3git12default_impl3add7git_addNCNvNtNtCsgvyBa5thnhP_3git6common12repo_factory11commit_file0EB1y_
FN:15,_RINvNtNtNtNtCscu9j8SGJFlb_27fireworks_collaboration_lib4core3git12default_impl3add7git_addNCNvNtNtCsgvyBa5thnhP_3git6common8fixtures12commit_filess_0EB1y_
FN:15,_RINvNtNtNtNtCscu9j8SGJFlb_27fireworks_collaboration_lib4core3git12default_impl3add7git_addNCNvNtNtNtCsgvyBa5thnhP_3git9submodule6common12repo_factory11commit_file0EB1A_
FN:55,_RNCINvNtNtNtNtCscu9j8SGJFlb_27fireworks_collaboration_lib4core3git12default_impl3add7git_addNCNvNtNtCsgvyBa5thnhP_3git18git_add_and_commit16section_add_edges_20add_cancelled_before0E0B1A_
FN:64,_RNCINvNtNtNtNtCscu9j8SGJFlb_27fireworks_collaboration_lib4core3git12default_impl3add7git_addNCNvNtNtCsgvyBa5thnhP_3git18git_add_and_commit16section_add_edges_20add_cancelled_before0Es0_0B1A_
FN:71,_RNCINvNtNtNtNtCscu9j8SGJFlb_27fireworks_collaboration_lib4core3git12default_impl3add7git_addNCNvNtNtCsgvyBa5thnhP_3git18git_add_and_commit16section_add_edges_20add_cancelled_before0Es1_0B1A_
FN:88,_RNCINvNtNtNtNtCscu9j8SGJFlb_27fireworks_collaboration_lib4core3git12default_impl3add7git_addNCNvNtNtCsgvyBa5thnhP_3git18git_add_and_commit16section_add_edges_20add_cancelled_before0Es2_0B1A_
FN:113,_RNCINvNtNtNtNtCscu9j8SGJFlb_27fireworks_collaboration_lib4core3git12default_impl3add7git_addNCNvNtNtCsgvyBa5thnhP_3git18git_add_and_commit16section_add_edges_20add_cancelled_before0Es3_0B1A_
FN:120,_RNCINvNtNtNtNtCscu9j8SGJFlb_27fireworks_collaboration_lib4core3git12default_impl3add7git_addNCNvNtNtCsgvyBa5thnhP_3git18git_add_and_commit16section_add_edges_20add_cancelled_before0Es4_0B1A_
FN:138,_RNCINvNtNtNtNtCscu9j8SGJFlb_27fireworks_collaboration_lib4core3git12default_impl3add7git_addNCNvNtNtCsgvyBa5thnhP_3git18git_add_and_commit16section_add_edges_20add_cancelled_before0Es5_0B1A_
FN:63,_RNCINvNtNtNtNtCscu9j8SGJFlb_27fireworks_collaboration_lib4core3git12default_impl3add7git_addNCNvNtNtCsgvyBa5thnhP_3git18git_add_and_commit16section_add_edges_20add_cancelled_before0Es_0B1A_
FN:55,_RNCINvNtNtNtNtCscu9j8SGJFlb_27fireworks_collaboration_lib4core3git12default_impl3add7git_addNCNvNtNtCsgvyBa5thnhP_3git18git_add_and_commit16section_add_edges_22add_rejects_empty_lists_0E0B1A_
FN:64,_RNCINvNtNtNtNtCscu9j8SGJFlb_27fireworks_collaboration_lib4core3git12default_impl3add7git_addNCNvNtNtCsgvyBa5thnhP_3git18git_add_and_commit16section_add_edges_22add_rejects_empty_lists_0Es0_0B1A_
FN:71,_RNCINvNtNtNtNtCscu9j8SGJFlb_27fireworks_collaboration_lib4core3git12default_impl3add7git_addNCNvNtNtCsgvyBa5thnhP_3git18git_add_and_commit16section_add_edges_22add_rejects_empty_lists_0Es1_0B1A_
FN:88,_RNCINvNtNtNtNtCscu9j8SGJFlb_27fireworks_collaboration_lib4core3git12default_impl3add7git_addNCNvNtNtCsgvyBa5thnhP_3git18git_add_and_commit16section_add_edges_22add_rejects_empty_lists_0Es2_0B1A_
FN:113,_RNCINvNtNtNtNtCscu9j8SGJFlb_27fireworks_collaboration_lib4core3git12default_impl3add7git_addNCNvNtNtCsgvyBa5thnhP_3git18git_add_and_commit16section_add_edges_22add_rejects_empty_lists_0Es3_0B1A_
FN:120,_RNCINvNtNtNtNtCscu9j8SGJFlb_27fireworks_collaboration_lib4core3git12default_impl3add7git_addNCNvNtNtCsgvyBa5thnhP_3git18git_add_and_commit16section_add_edges_22add_rejects_empty_lists_0Es4_0B1A_
FN:138,_RNCINvNtNtNtNtCscu9j8SGJFlb_27fireworks_collaboration_lib4core3git12default_impl3add7git_addNCNvNtNtCsgvyBa5thnhP_3git18git_add_and_commit16section_add_edges_22add_rejects_empty_lists_0Es5_0B1A_
FN:63,_RNCINvNtNtNtNtCscu9j8SGJFlb_27fireworks_collaboration_lib4core3git12default_impl3add7git_addNCNvNtNtCsgvyBa5thnhP_3git18git_add_and_commit16section_add_edges_22add_rejects_empty_lists_0Es_0B1A_
FN:55,_RNCINvNtNtNtNtCscu9j8SGJFlb_27fireworks_collaboration_lib4core3git12default_impl3add7git_addNCNvNtNtCsgvyBa5thnhP_3git18git_add_and_commit16section_add_edges_37add_rejects_outside_path_and_absolutes0_0E0B1A_
FN:64,_RNCINvNtNtNtNtCscu9j8SGJFlb_27fireworks_collaboration_lib4core3git12default_impl3add7git_addNCNvNtNtCsgvyBa5thnhP_3git18git_add_and_commit16section_add_edges_37add_rejects_outside_path_and_absolutes0_0Es0_0B1A_
FN:71,_RNCINvNtNtNtNtCscu9j8SGJFlb_27fireworks_collaboration_lib4core3git12default_impl3add7git_addNCNvNtNtCsgvyBa5thnhP_3git18git_add_and_commit16section_add_edges_37add_rejects_outside_path_and_absolutes0_0Es1_0B1A_
FN:88,_RNCINvNtNtNtNtCscu9j8SGJFlb_27fireworks_collaboration_lib4core3git12default_impl3add7git_addNCNvNtNtCsgvyBa5thnhP_3git18git_add_and_commit16section_add_edges_37add_rejects_outside_path_and_absolutes0_0Es2_0B1A_
FN:113,_RNCINvNtNtNtNtCscu9j8SGJFlb_27fireworks_collaboration_lib4core3git12default_impl3add7git_addNCNvNtNtCsgvyBa5thnhP_3git18git_add_and_commit16section_add_edges_37add_rejects_outside_path_and_absolutes0_0Es3_0B1A_
FN:120,_RNCINvNtNtNtNtCscu9j8SGJFlb_27fireworks_collaboration_lib4core3git12default_impl3add7git_addNCNvNtNtCsgvyBa5thnhP_3git18git_add_and_commit16section_add_edges_37add_rejects_outside_path_and_absolutes0_0Es4_0B1A_
FN:138,_RNCINvNtNtNtNtCscu9j8SGJFlb_27fireworks_collaboration_lib4core3git12default_impl3add7git_addNCNvNtNtCsgvyBa5thnhP_3git18git_add_and_commit16section_add_edges_37add_rejects_outside_path_and_absolutes0_0Es5_0B1A_
FN:63,_RNCINvNtNtNtNtCscu9j8SGJFlb_27fireworks_collaboration_lib4core3git12default_impl3add7git_addNCNvNtNtCsgvyBa5thnhP_3git18git_add_and_commit16section_add_edges_37add_rejects_outside_path_and_absolutes0_0Es_0B1A_
FN:55,_RNCINvNtNtNtNtCscu9j8SGJFlb_27fireworks_collaboration_lib4core3git12default_impl3add7git_addNCNvNtNtCsgvyBa5thnhP_3git18git_add_and_commit16section_add_edges_37add_rejects_outside_path_and_absolutes_0E0B1A_
FN:64,_RNCINvNtNtNtNtCscu9j8SGJFlb_27fireworks_collaboration_lib4core3git12default_impl3add7git_addNCNvNtNtCsgvyBa5thnhP_3git18git_add_and_commit16section_add_edges_37add_rejects_outside_path_and_absolutes_0Es0_0B1A_
FN:71,_RNCINvNtNtNtNtCscu9j8SGJFlb_27fireworks_collaboration_lib4core3git12default_impl3add7git_addNCNvNtNtCsgvyBa5thnhP_3git18git_add_and_commit16section_add_edges_37add_rejects_outside_path_and_absolutes_0Es1_0B1A_
FN:88,_RNCINvNtNtNtNtCscu9j8SGJFlb_27fireworks_collaboration_lib4core3git12default_impl3add7git_addNCNvNtNtCsgvyBa5thnhP_3git18git_add_and_commit16section_add_edges_37add_rejects_outside_path_and_absolutes_0Es2_0B1A_
FN:113,_RNCINvNtNtNtNtCscu9j8SGJFlb_27fireworks_collaboration_lib4core3git12default_impl3add7git_addNCNvNtNtCsgvyBa5thnhP_3git18git_add_and_commit16section_add_edges_37add_rejects_outside_path_and_absolutes_0Es3_0B1A_
FN:120,_RNCINvNtNtNtNtCscu9j8SGJFlb_27fireworks_collaboration_lib4core3git12default_impl3add7git_addNCNvNtNtCsgvyBa5thnhP_3git18git_add_and_commit16section_add_edges_37add_rejects_outside_path_and_absolutes_0Es4_0B1A_
FN:138,_RNCINvNtNtNtNtCscu9j8SGJFlb_27fireworks_collaboration_lib4core3git12default_impl3add7git_addNCNvNtNtCsgvyBa5thnhP_3git18git_add_and_commit16section_add_edges_37add_rejects_outside_path_and_absolutes_0Es5_0B1A_
FN:63,_RNCINvNtNtNtNtCscu9j8SGJFlb_27fireworks_collaboration_lib4core3git12default_impl3add7git_addNCNvNtNtCsgvyBa5thnhP_3git18git_add_and_commit16section_add_edges_37add_rejects_outside_path_and_absolutes_0Es_0B1A_
FN:55,_RNCINvNtNtNtNtCscu9j8SGJFlb_27fireworks_collaboration_lib4core3git12default_impl3add7git_addNCNvNtNtCsgvyBa5thnhP_3git18git_add_and_commit17section_add_basics_43add_success_with_dir_and_dedup_and_progresss_0E0B1A_
FN:64,_RNCINvNtNtNtNtCscu9j8SGJFlb_27fireworks_collaboration_lib4core3git12default_impl3add7git_addNCNvNtNtCsgvyBa5thnhP_3git18git_add_and_commit17section_add_basics_43add_success_with_dir_and_dedup_and_progresss_0Es0_0B1A_
FN:71,_RNCINvNtNtNtNtCscu9j8SGJFlb_27fireworks_collaboration_lib4core3git12default_impl3add7git_addNCNvNtNtCsgvyBa5thnhP_3git18git_add_and_commit17section_add_basics_43add_success_with_dir_and_dedup_and_progresss_0Es1_0B1A_
FN:88,_RNCINvNtNtNtNtCscu9j8SGJFlb_27fireworks_collaboration_lib4core3git12default_impl3add7git_addNCNvNtNtCsgvyBa5thnhP_3git18git_add_and_commit17section_add_basics_43add_success_with_dir_and_dedup_and_progresss_0Es2_0B1A_
FN:113,_RNCINvNtNtNtNtCscu9j8SGJFlb_27fireworks_collaboration_lib4core3git12default_impl3add7git_addNCNvNtNtCsgvyBa5thnhP_3git18git_add_and_commit17section_add_basics_43add_success_with_dir_and_dedup_and_progresss_0Es3_0B1A_
FN:120,_RNCINvNtNtNtNtCscu9j8SGJFlb_27fireworks_collaboration_lib4core3git12default_impl3add7git_addNCNvNtNtCsgvyBa5thnhP_3git18git_add_and_commit17section_add_basics_43add_success_with_dir_and_dedup_and_progresss_0Es4_0B1A_
FN:138,_RNCINvNtNtNtNtCscu9j8SGJFlb_27fireworks_collaboration_lib4core3git12default_impl3add7git_addNCNvNtNtCsgvyBa5thnhP_3git18git_add_and_commit17section_add_basics_43add_success_with_dir_and_dedup_and_progresss_0Es5_0B1A_
FN:63,_RNCINvNtNtNtNtCscu9j8SGJFlb_27fireworks_collaboration_lib4core3git12default_impl3add7git_addNCNvNtNtCsgvyBa5thnhP_3git18git_add_and_commit17section_add_basics_43add_success_with_dir_and_dedup_and_progresss_0Es_0B1A_
FN:55,_RNCINvNtNtNtNtCscu9j8SGJFlb_27fireworks_collaboration_lib4core3git12default_impl3add7git_addNCNvNtNtCsgvyBa5thnhP_3git6common12repo_factory11commit_file0E0B1A_
FN:64,_RNCINvNtNtNtNtCscu9j8SGJFlb_27fireworks_collaboration_lib4core3git12default_impl3add7git_addNCNvNtNtCsgvyBa5thnhP_3git6common12repo_factory11commit_file0Es0_0B1A_
FN:71,_RNCINvNtNtNtNtCscu9j8SGJFlb_27fireworks_collaboration_lib4core3git12default_impl3add7git_addNCNvNtNtCsgvyBa5thnhP_3git6common12repo_factory11commit_file0Es1_0B1A_
FN:88,_RNCINvNtNtNtNtCscu9j8SGJFlb_27fireworks_collaboration_lib4core3git12default_impl3add7git_addNCNvNtNtCsgvyBa5thnhP_3git6common12repo_factory11commit_file0Es2_0B1A_
FN:113,_RNCINvNtNtNtNtCscu9j8SGJFlb_27fireworks_collaboration_lib4core3git12default_impl3add7git_addNCNvNtNtCsgvyBa5thnhP_3git6common12repo_factory11commit_file0Es3_0B1A_
FN:120,_RNCINvNtNtNtNtCscu9j8SGJFlb_27fireworks_collaboration_lib4core3git12default_impl3add7git_addNCNvNtNtCsgvyBa5thnhP_3git6common12repo_factory11commit_file0Es4_0B1A_
FN:138,_RNCINvNtNtNtNtCscu9j8SGJFlb_27fireworks_collaboration_lib4core3git12default_impl3add7git_addNCNvNtNtCsgvyBa5thnhP_3git6common12repo_factory11commit_file0Es5_0B1A_
FN:63,_RNCINvNtNtNtNtCscu9j8SGJFlb_27fireworks_collaboration_lib4core3git12default_impl3add7git_addNCNvNtNtCsgvyBa5thnhP_3git6common12repo_factory11commit_file0Es_0B1A_
FN:55,_RNCINvNtNtNtNtCscu9j8SGJFlb_27fireworks_collaboration_lib4core3git12default_impl3add7git_addNCNvNtNtCsgvyBa5thnhP_3git6common8fixtures12commit_filess_0E0B1A_
FN:64,_RNCINvNtNtNtNtCscu9j8SGJFlb_27fireworks_collaboration_lib4core3git12default_impl3add7git_addNCNvNtNtCsgvyBa5thnhP_3git6common8fixtures12commit_filess_0Es0_0B1A_
FN:71,_RNCINvNtNtNtNtCscu9j8SGJFlb_27fireworks_collaboration_lib4core3git12default_impl3add7git_addNCNvNtNtCsgvyBa5thnhP_3git6common8fixtures12commit_filess_0Es1_0B1A_
FN:88,_RNCINvNtNtNtNtCscu9j8SGJFlb_27fireworks_collaboration_lib4core3git12default_impl3add7git_addNCNvNtNtCsgvyBa5thnhP_3git6common8fixtures12commit_filess_0Es2_0B1A_
FN:113,_RNCINvNtNtNtNtCscu9j8SGJFlb_27fireworks_collaboration_lib4core3git12default_impl3add7git_addNCNvNtNtCsgvyBa5thnhP_3git6common8fixtures12commit_filess_0Es3_0B1A_
FN:120,_RNCINvNtNtNtNtCscu9j8SGJFlb_27fireworks_collaboration_lib4core3git12default_impl3add7git_addNCNvNtNtCsgvyBa5thnhP_3git6common8fixtures12commit_filess_0Es4_0B1A_
FN:138,_RNCINvNtNtNtNtCscu9j8SGJFlb_27fireworks_collaboration_lib4core3git12default_impl3add7git_addNCNvNtNtCsgvyBa5thnhP_3git6common8fixtures12commit_filess_0Es5_0B1A_
FN:63,_RNCINvNtNtNtNtCscu9j8SGJFlb_27fireworks_collaboration_lib4core3git12default_impl3add7git_addNCNvNtNtCsgvyBa5thnhP_3git6common8fixtures12commit_filess_0Es_0B1A_
FN:55,_RNCINvNtNtNtNtCscu9j8SGJFlb_27fireworks_collaboration_lib4core3git12default_impl3add7git_addNCNvNtNtNtCsgvyBa5thnhP_3git9submodule6common12repo_factory11commit_file0E0B1C_
FN:64,_RNCINvNtNtNtNtCscu9j8SGJFlb_27fireworks_collaboration_lib4core3git12default_impl3add7git_addNCNvNtNtNtCsgvyBa5thnhP_3git9submodule6common12repo_factory11commit_file0Es0_0B1C_
FN:71,_RNCINvNtNtNtNtCscu9j8SGJFlb_27fireworks_collaboration_lib4core3git12default_impl3add7git_addNCNvNtNtNtCsgvyBa5thnhP_3git9submodule6common12repo_factory11commit_file0Es1_0B1C_
FN:88,_RNCINvNtNtNtNtCscu9j8SGJFlb_27fireworks_collaboration_lib4core3git12default_impl3add7git_addNCNvNtNtNtCsgvyBa5thnhP_3git9submodule6common12repo_factory11commit_file0Es2_0B1C_
FN:113,_RNCINvNtNtNtNtCscu9j8SGJFlb_27fireworks_collaboration_lib4core3git12default_impl3add7git_addNCNvNtNtNtCsgvyBa5thnhP_3git9submodule6common12repo_factory11commit_file0Es3_0B1C_
FN:120,_RNCINvNtNtNtNtCscu9j8SGJFlb_27fireworks_collaboration_lib4core3git12default_impl3add7git_addNCNvNtNtNtCsgvyBa5thnhP_3git9submodule6common12repo_factory11commit_file0Es4_0B1C_
FN:138,_RNCINvNtNtNtNtCscu9j8SGJFlb_27fireworks_collaboration_lib4core3git12default_impl3add7git_addNCNvNtNtNtCsgvyBa5thnhP_3git9submodule6common12repo_factory11commit_file0Es5_0B1C_
FN:63,_RNCINvNtNtNtNtCscu9j8SGJFlb_27fireworks_collaboration_lib4core3git12default_impl3add7git_addNCNvNtNtNtCsgvyBa5thnhP_3git9submodule6common12repo_factory11commit_file0Es_0B1C_
FN:15,_RINvNtNtNtNtCscu9j8SGJFlb_27fireworks_collaboration_lib4core3git12default_impl3add7git_addNCNvNtNtCs7iVILGxhzfA_5proxy6common12repo_factory11commit_file0EB1y_
FN:55,_RNCINvNtNtNtNtCscu9j8SGJFlb_27fireworks_collaboration_lib4core3git12default_impl3add7git_addNCNvNtNtCs7iVILGxhzfA_5proxy6common12repo_factory11commit_file0E0B1A_
FN:64,_RNCINvNtNtNtNtCscu9j8SGJFlb_27fireworks_collaboration_lib4core3git12default_impl3add7git_addNCNvNtNtCs7iVILGxhzfA_5proxy6common12repo_factory11commit_file0Es0_0B1A_
FN:71,_RNCINvNtNtNtNtCscu9j8SGJFlb_27fireworks_collaboration_lib4core3git12default_impl3add7git_addNCNvNtNtCs7iVILGxhzfA_5proxy6common12repo_factory11commit_file0Es1_0B1A_
FN:88,_RNCINvNtNtNtNtCscu9j8SGJFlb_27fireworks_collaboration_lib4core3git12default_impl3add7git_addNCNvNtNtCs7iVILGxhzfA_5proxy6common12repo_factory11commit_file0Es2_0B1A_
FN:113,_RNCINvNtNtNtNtCscu9j8SGJFlb_27fireworks_collaboration_lib4core3git12default_impl3add7git_addNCNvNtNtCs7iVILGxhzfA_5proxy6common12repo_factory11commit_file0Es3_0B1A_
FN:120,_RNCINvNtNtNtNtCscu9j8SGJFlb_27fireworks_collaboration_lib4core3git12default_impl3add7git_addNCNvNtNtCs7iVILGxhzfA_5proxy6common12repo_factory11commit_file0Es4_0B1A_
FN:138,_RNCINvNtNtNtNtCscu9j8SGJFlb_27fireworks_collaboration_lib4core3git12default_impl3add7git_addNCNvNtNtCs7iVILGxhzfA_5proxy6common12repo_factory11commit_file0Es5_0B1A_
FN:63,_RNCINvNtNtNtNtCscu9j8SGJFlb_27fireworks_collaboration_lib4core3git12default_impl3add7git_addNCNvNtNtCs7iVILGxhzfA_5proxy6common12repo_factory11commit_file0Es_0B1A_
FN:15,_RINvNtNtNtNtCscu9j8SGJFlb_27fireworks_collaboration_lib4core3git12default_impl3add7git_addNCNvNtNtCsg9T22JMUfCw_7quality6common12repo_factory11commit_file0EB1y_
FN:55,_RNCINvNtNtNtNtCscu9j8SGJFlb_27fireworks_collaboration_lib4core3git12default_impl3add7git_addNCNvNtNtCsg9T22JMUfCw_7quality6common12repo_factory11commit_file0E0B1A_
FN:64,_RNCINvNtNtNtNtCscu9j8SGJFlb_27fireworks_collaboration_lib4core3git12default_impl3add7git_addNCNvNtNtCsg9T22JMUfCw_7quality6common12repo_factory11commit_file0Es0_0B1A_
FN:71,_RNCINvNtNtNtNtCscu9j8SGJFlb_27fireworks_collaboration_lib4core3git12default_impl3add7git_addNCNvNtNtCsg9T22JMUfCw_7quality6common12repo_factory11commit_file0Es1_0B1A_
FN:88,_RNCINvNtNtNtNtCscu9j8SGJFlb_27fireworks_collaboration_lib4core3git12default_impl3add7git_addNCNvNtNtCsg9T22JMUfCw_7quality6common12repo_factory11commit_file0Es2_0B1A_
FN:113,_RNCINvNtNtNtNtCscu9j8SGJFlb_27fireworks_collaboration_lib4core3git12default_impl3add7git_addNCNvNtNtCsg9T22JMUfCw_7quality6common12repo_factory11commit_file0Es3_0B1A_
FN:120,_RNCINvNtNtNtNtCscu9j8SGJFlb_27fireworks_collaboration_lib4core3git12default_impl3add7git_addNCNvNtNtCsg9T22JMUfCw_7quality6common12repo_factory11commit_file0Es4_0B1A_
FN:138,_RNCINvNtNtNtNtCscu9j8SGJFlb_27fireworks_collaboration_lib4core3git12default_impl3add7git_addNCNvNtNtCsg9T22JMUfCw_7quality6common12repo_factory11commit_file0Es5_0B1A_
FN:63,_RNCINvNtNtNtNtCscu9j8SGJFlb_27fireworks_collaboration_lib4core3git12default_impl3add7git_addNCNvNtNtCsg9T22JMUfCw_7quality6common12repo_factory11commit_file0Es_0B1A_
FN:15,_RINvNtNtNtNtCscu9j8SGJFlb_27fireworks_collaboration_lib4core3git12default_impl3add7git_addNCNvNtNtCs5bjiTMnK4Rn_9submodule6common12repo_factory11commit_file0EB1y_
FN:55,_RNCINvNtNtNtNtCscu9j8SGJFlb_27fireworks_collaboration_lib4core3git12default_impl3add7git_addNCNvNtNtCs5bjiTMnK4Rn_9submodule6common12repo_factory11commit_file0E0B1A_
FN:64,_RNCINvNtNtNtNtCscu9j8SGJFlb_27fireworks_collaboration_lib4core3git12default_impl3add7git_addNCNvNtNtCs5bjiTMnK4Rn_9submodule6common12repo_factory11commit_file0Es0_0B1A_
FN:71,_RNCINvNtNtNtNtCscu9j8SGJFlb_27fireworks_collaboration_lib4core3git12default_impl3add7git_addNCNvNtNtCs5bjiTMnK4Rn_9submodule6common12repo_factory11commit_file0Es1_0B1A_
FN:88,_RNCINvNtNtNtNtCscu9j8SGJFlb_27fireworks_collaboration_lib4core3git12default_impl3add7git_addNCNvNtNtCs5bjiTMnK4Rn_9submodule6common12repo_factory11commit_file0Es2_0B1A_
FN:113,_RNCINvNtNtNtNtCscu9j8SGJFlb_27fireworks_collaboration_lib4core3git12default_impl3add7git_addNCNvNtNtCs5bjiTMnK4Rn_9submodule6common12repo_factory11commit_file0Es3_0B1A_
FN:120,_RNCINvNtNtNtNtCscu9j8SGJFlb_27fireworks_collaboration_lib4core3git12default_impl3add7git_addNCNvNtNtCs5bjiTMnK4Rn_9submodule6common12repo_factory11commit_file0Es4_0B1A_
FN:138,_RNCINvNtNtNtNtCscu9j8SGJFlb_27fireworks_collaboration_lib4core3git12default_impl3add7git_addNCNvNtNtCs5bjiTMnK4Rn_9submodule6common12repo_factory11commit_file0Es5_0B1A_
FN:63,_RNCINvNtNtNtNtCscu9j8SGJFlb_27fireworks_collaboration_lib4core3git12default_impl3add7git_addNCNvNtNtCs5bjiTMnK4Rn_9submodule6common12repo_factory11commit_file0Es_0B1A_
FN:15,_RINvNtNtNtNtCscu9j8SGJFlb_27fireworks_collaboration_lib4core3git12default_impl3add7git_addNCNvNtNtCse2afPLa6SGs_5tasks6common12repo_factory11commit_file0EB1y_
FN:15,_RINvNtNtNtNtCscu9j8SGJFlb_27fireworks_collaboration_lib4core3git12default_impl3add7git_addNvNtCse2afPLa6SGs_5tasks14git_operations13noop_progressEB1u_
FN:55,_RNCINvNtNtNtNtCscu9j8SGJFlb_27fireworks_collaboration_lib4core3git12default_impl3add7git_addNCNvNtNtCse2afPLa6SGs_5tasks6common12repo_factory11commit_file0E0B1A_
FN:64,_RNCINvNtNtNtNtCscu9j8SGJFlb_27fireworks_collaboration_lib4core3git12default_impl3add7git_addNCNvNtNtCse2afPLa6SGs_5tasks6common12repo_factory11commit_file0Es0_0B1A_
FN:71,_RNCINvNtNtNtNtCscu9j8SGJFlb_27fireworks_collaboration_lib4core3git12default_impl3add7git_addNCNvNtNtCse2afPLa6SGs_5tasks6common12repo_factory11commit_file0Es1_0B1A_
FN:88,_RNCINvNtNtNtNtCscu9j8SGJFlb_27fireworks_collaboration_lib4core3git12default_impl3add7git_addNCNvNtNtCse2afPLa6SGs_5tasks6common12repo_factory11commit_file0Es2_0B1A_
FN:113,_RNCINvNtNtNtNtCscu9j8SGJFlb_27fireworks_collaboration_lib4core3git12default_impl3add7git_addNCNvNtNtCse2afPLa6SGs_5tasks6common12repo_factory11commit_file0Es3_0B1A_
FN:120,_RNCINvNtNtNtNtCscu9j8SGJFlb_27fireworks_collaboration_lib4core3git12default_impl3add7git_addNCNvNtNtCse2afPLa6SGs_5tasks6common12repo_factory11commit_file0Es4_0B1A_
FN:138,_RNCINvNtNtNtNtCscu9j8SGJFlb_27fireworks_collaboration_lib4core3git12default_impl3add7git_addNCNvNtNtCse2afPLa6SGs_5tasks6common12repo_factory11commit_file0Es5_0B1A_
FN:63,_RNCINvNtNtNtNtCscu9j8SGJFlb_27fireworks_collaboration_lib4core3git12default_impl3add7git_addNCNvNtNtCse2afPLa6SGs_5tasks6common12repo_factory11commit_file0Es_0B1A_
FN:55,_RNCINvNtNtNtNtCscu9j8SGJFlb_27fireworks_collaboration_lib4core3git12default_impl3add7git_addNvNtCse2afPLa6SGs_5tasks14git_operations13noop_progressE0B1w_
FN:64,_RNCINvNtNtNtNtCscu9j8SGJFlb_27fireworks_collaboration_lib4core3git12default_impl3add7git_addNvNtCse2afPLa6SGs_5tasks14git_operations13noop_progressEs0_0B1w_
FN:71,_RNCINvNtNtNtNtCscu9j8SGJFlb_27fireworks_collaboration_lib4core3git12default_impl3add7git_addNvNtCse2afPLa6SGs_5tasks14git_operations13noop_progressEs1_0B1w_
FN:88,_RNCINvNtNtNtNtCscu9j8SGJFlb_27fireworks_collaboration_lib4core3git12default_impl3add7git_addNvNtCse2afPLa6SGs_5tasks14git_operations13noop_progressEs2_0B1w_
FN:113,_RNCINvNtNtNtNtCscu9j8SGJFlb_27fireworks_collaboration_lib4core3git12default_impl3add7git_addNvNtCse2afPLa6SGs_5tasks14git_operations13noop_progressEs3_0B1w_
FN:120,_RNCINvNtNtNtNtCscu9j8SGJFlb_27fireworks_collaboration_lib4core3git12default_impl3add7git_addNvNtCse2afPLa6SGs_5tasks14git_operations13noop_progressEs4_0B1w_
FN:138,_RNCINvNtNtNtNtCscu9j8SGJFlb_27fireworks_collaboration_lib4core3git12default_impl3add7git_addNvNtCse2afPLa6SGs_5tasks14git_operations13noop_progressEs5_0B1w_
FN:63,_RNCINvNtNtNtNtCscu9j8SGJFlb_27fireworks_collaboration_lib4core3git12default_impl3add7git_addNvNtCse2afPLa6SGs_5tasks14git_operations13noop_progressEs_0B1w_
FN:15,_RINvNtNtNtNtCscu9j8SGJFlb_27fireworks_collaboration_lib4core3git12default_impl3add7git_addNCNvNtNtCscRE2irdvoKL_9workspace6common12repo_factory11commit_file0EB1y_
FN:55,_RNCINvNtNtNtNtCscu9j8SGJFlb_27fireworks_collaboration_lib4core3git12default_impl3add7git_addNCNvNtNtCscRE2irdvoKL_9workspace6common12repo_factory11commit_file0E0B1A_
FN:64,_RNCINvNtNtNtNtCscu9j8SGJFlb_27fireworks_collaboration_lib4core3git12default_impl3add7git_addNCNvNtNtCscRE2irdvoKL_9workspace6common12repo_factory11commit_file0Es0_0B1A_
FN:71,_RNCINvNtNtNtNtCscu9j8SGJFlb_27fireworks_collaboration_lib4core3git12default_impl3add7git_addNCNvNtNtCscRE2irdvoKL_9workspace6common12repo_factory11commit_file0Es1_0B1A_
FN:88,_RNCINvNtNtNtNtCscu9j8SGJFlb_27fireworks_collaboration_lib4core3git12default_impl3add7git_addNCNvNtNtCscRE2irdvoKL_9workspace6common12repo_factory11commit_file0Es2_0B1A_
FN:113,_RNCINvNtNtNtNtCscu9j8SGJFlb_27fireworks_collaboration_lib4core3git12default_impl3add7git_addNCNvNtNtCscRE2irdvoKL_9workspace6common12repo_factory11commit_file0Es3_0B1A_
FN:120,_RNCINvNtNtNtNtCscu9j8SGJFlb_27fireworks_collaboration_lib4core3git12default_impl3add7git_addNCNvNtNtCscRE2irdvoKL_9workspace6common12repo_factory11commit_file0Es4_0B1A_
FN:138,_RNCINvNtNtNtNtCscu9j8SGJFlb_27fireworks_collaboration_lib4core3git12default_impl3add7git_addNCNvNtNtCscRE2irdvoKL_9workspace6common12repo_factory11commit_file0Es5_0B1A_
FN:63,_RNCINvNtNtNtNtCscu9j8SGJFlb_27fireworks_collaboration_lib4core3git12default_impl3add7git_addNCNvNtNtCscRE2irdvoKL_9workspace6common12repo_factory11commit_file0Es_0B1A_
FNDA:0,_RINvNtNtNtNtCscu9j8SGJFlb_27fireworks_collaboration_lib4core3git12default_impl3add7git_addNCNCNvMNtNtNtB8_5tasks12git_registry5localNtNtB1B_8registry12TaskRegistry18spawn_git_add_task0s_0EBa_
FNDA:6,_RINvNtNtNtNtCscu9j8SGJFlb_27fireworks_collaboration_lib4core3git12default_impl3add7git_addNCNvNtNtBa_4soak6runner14prepare_commits_0EBa_
FNDA:6,_RINvNtNtNtNtCscu9j8SGJFlb_27fireworks_collaboration_lib4core3git12default_impl3add7git_addNCNvNtNtBa_4soak6runner14setup_producers3_0EBa_
FNDA:0,_RNCINvNtNtNtNtCscu9j8SGJFlb_27fireworks_collaboration_lib4core3git12default_impl3add7git_addNCNCNvMNtNtNtBa_5tasks12git_registry5localNtNtB1D_8registry12TaskRegistry18spawn_git_add_task0s_0E0Bc_
FNDA:0,_RNCINvNtNtNtNtCscu9j8SGJFlb_27fireworks_collaboration_lib4core3git12default_impl3add7git_addNCNCNvMNtNtNtBa_5tasks12git_registry5localNtNtB1D_8registry12TaskRegistry18spawn_git_add_task0s_0Es0_0Bc_
FNDA:0,_RNCINvNtNtNtNtCscu9j8SGJFlb_27fireworks_collaboration_lib4core3git12default_impl3add7git_addNCNCNvMNtNtNtBa_5tasks12git_registry5localNtNtB1D_8registry12TaskRegistry18spawn_git_add_task0s_0Es1_0Bc_
FNDA:0,_RNCINvNtNtNtNtCscu9j8SGJFlb_27fireworks_collaboration_lib4core3git12default_impl3add7git_addNCNCNvMNtNtNtBa_5tasks12git_registry5localNtNtB1D_8registry12TaskRegistry18spawn_git_add_task0s_0Es2_0Bc_
FNDA:0,_RNCINvNtNtNtNtCscu9j8SGJFlb_27fireworks_collaboration_lib4core3git12default_impl3add7git_addNCNCNvMNtNtNtBa_5tasks12git_registry5localNtNtB1D_8registry12TaskRegistry18spawn_git_add_task0s_0Es3_0Bc_
FNDA:0,_RNCINvNtNtNtNtCscu9j8SGJFlb_27fireworks_collaboration_lib4core3git12default_impl3add7git_addNCNCNvMNtNtNtBa_5tasks12git_registry5localNtNtB1D_8registry12TaskRegistry18spawn_git_add_task0s_0Es4_0Bc_
FNDA:0,_RNCINvNtNtNtNtCscu9j8SGJFlb_27fireworks_collaboration_lib4core3git12default_impl3add7git_addNCNCNvMNtNtNtBa_5tasks12git_registry5localNtNtB1D_8registry12TaskRegistry18spawn_git_add_task0s_0Es5_0Bc_
FNDA:0,_RNCINvNtNtNtNtCscu9j8SGJFlb_27fireworks_collaboration_lib4core3git12default_impl3add7git_addNCNCNvMNtNtNtBa_5tasks12git_registry5localNtNtB1D_8registry12TaskRegistry18spawn_git_add_task0s_0Es_0Bc_
FNDA:0,_RNCINvNtNtNtNtCscu9j8SGJFlb_27fireworks_collaboration_lib4core3git12default_impl3add7git_addNCNvNtNtBc_4soak6runner14prepare_commits_0E0Bc_
FNDA:0,_RNCINvNtNtNtNtCscu9j8SGJFlb_27fireworks_collaboration_lib4core3git12default_impl3add7git_addNCNvNtNtBc_4soak6runner14prepare_commits_0Es0_0Bc_
FNDA:0,_RNCINvNtNtNtNtCscu9j8SGJFlb_27fireworks_collaboration_lib4core3git12default_impl3add7git_addNCNvNtNtBc_4soak6runner14prepare_commits_0Es1_0Bc_
FNDA:0,_RNCINvNtNtNtNtCscu9j8SGJFlb_27fireworks_collaboration_lib4core3git12default_impl3add7git_addNCNvNtNtBc_4soak6runner14prepare_commits_0Es2_0Bc_
FNDA:0,_RNCINvNtNtNtNtCscu9j8SGJFlb_27fireworks_collaboration_lib4core3git12default_impl3add7git_addNCNvNtNtBc_4soak6runner14prepare_commits_0Es3_0Bc_
FNDA:0,_RNCINvNtNtNtNtCscu9j8SGJFlb_27fireworks_collaboration_lib4core3git12default_impl3add7git_addNCNvNtNtBc_4soak6runner14prepare_commits_0Es4_0Bc_
FNDA:0,_RNCINvNtNtNtNtCscu9j8SGJFlb_27fireworks_collaboration_lib4core3git12default_impl3add7git_addNCNvNtNtBc_4soak6runner14prepare_commits_0Es5_0Bc_
FNDA:0,_RNCINvNtNtNtNtCscu9j8SGJFlb_27fireworks_collaboration_lib4core3git12default_impl3add7git_addNCNvNtNtBc_4soak6runner14prepare_commits_0Es_0Bc_
FNDA:0,_RNCINvNtNtNtNtCscu9j8SGJFlb_27fireworks_collaboration_lib4core3git12default_impl3add7git_addNCNvNtNtBc_4soak6runner14setup_producers3_0E0Bc_
FNDA:0,_RNCINvNtNtNtNtCscu9j8SGJFlb_27fireworks_collaboration_lib4core3git12default_impl3add7git_addNCNvNtNtBc_4soak6runner14setup_producers3_0Es0_0Bc_
FNDA:0,_RNCINvNtNtNtNtCscu9j8SGJFlb_27fireworks_collaboration_lib4core3git12default_impl3add7git_addNCNvNtNtBc_4soak6runner14setup_producers3_0Es1_0Bc_
FNDA:0,_RNCINvNtNtNtNtCscu9j8SGJFlb_27fireworks_collaboration_lib4core3git12default_impl3add7git_addNCNvNtNtBc_4soak6runner14setup_producers3_0Es2_0Bc_
FNDA:0,_RNCINvNtNtNtNtCscu9j8SGJFlb_27fireworks_collaboration_lib4core3git12default_impl3add7git_addNCNvNtNtBc_4soak6runner14setup_producers3_0Es3_0Bc_
FNDA:0,_RNCINvNtNtNtNtCscu9j8SGJFlb_27fireworks_collaboration_lib4core3git12default_impl3add7git_addNCNvNtNtBc_4soak6runner14setup_producers3_0Es4_0Bc_
FNDA:0,_RNCINvNtNtNtNtCscu9j8SGJFlb_27fireworks_collaboration_lib4core3git12default_impl3add7git_addNCNvNtNtBc_4soak6runner14setup_producers3_0Es5_0Bc_
FNDA:0,_RNCINvNtNtNtNtCscu9j8SGJFlb_27fireworks_collaboration_lib4core3git12default_impl3add7git_addNCNvNtNtBc_4soak6runner14setup_producers3_0Es_0Bc_
FNDA:102,_RNvNtNtNtNtCscu9j8SGJFlb_27fireworks_collaboration_lib4core3git12default_impl3add19normalize_component
FNDA:2,_RINvNtNtNtNtCscu9j8SGJFlb_27fireworks_collaboration_lib4core3git12default_impl3add7git_addNCNvNtNtCsgV7FHrbFFzv_8commands6common12repo_factory11commit_file0EB1y_
FNDA:0,_RNCINvNtNtNtNtCscu9j8SGJFlb_27fireworks_collaboration_lib4core3git12default_impl3add7git_addNCNvNtNtCsgV7FHrbFFzv_8commands6common12repo_factory11commit_file0E0B1A_
FNDA:0,_RNCINvNtNtNtNtCscu9j8SGJFlb_27fireworks_collaboration_lib4core3git12default_impl3add7git_addNCNvNtNtCsgV7FHrbFFzv_8commands6common12repo_factory11commit_file0Es0_0B1A_
FNDA:0,_RNCINvNtNtNtNtCscu9j8SGJFlb_27fireworks_collaboration_lib4core3git12default_impl3add7git_addNCNvNtNtCsgV7FHrbFFzv_8commands6common12repo_factory11commit_file0Es1_0B1A_
FNDA:0,_RNCINvNtNtNtNtCscu9j8SGJFlb_27fireworks_collaboration_lib4core3git12default_impl3add7git_addNCNvNtNtCsgV7FHrbFFzv_8commands6common12repo_factory11commit_file0Es2_0B1A_
FNDA:0,_RNCINvNtNtNtNtCscu9j8SGJFlb_27fireworks_collaboration_lib4core3git12default_impl3add7git_addNCNvNtNtCsgV7FHrbFFzv_8commands6common12repo_factory11commit_file0Es3_0B1A_
FNDA:0,_RNCINvNtNtNtNtCscu9j8SGJFlb_27fireworks_collaboration_lib4core3git12default_impl3add7git_addNCNvNtNtCsgV7FHrbFFzv_8commands6common12repo_factory11commit_file0Es4_0B1A_
FNDA:0,_RNCINvNtNtNtNtCscu9j8SGJFlb_27fireworks_collaboration_lib4core3git12default_impl3add7git_addNCNvNtNtCsgV7FHrbFFzv_8commands6common12repo_factory11commit_file0Es5_0B1A_
FNDA:0,_RNCINvNtNtNtNtCscu9j8SGJFlb_27fireworks_collaboration_lib4core3git12default_impl3add7git_addNCNvNtNtCsgV7FHrbFFzv_8commands6common12repo_factory11commit_file0Es_0B1A_
FNDA:2,_RINvNtNtNtNtCscu9j8SGJFlb_27fireworks_collaboration_lib4core3git12default_impl3add7git_addNCNvNtNtCs6dua4rg4Ovk_3e2e6common12repo_factory11commit_file0EB1y_
FNDA:0,_RNCINvNtNtNtNtCscu9j8SGJFlb_27fireworks_collaboration_lib4core3git12default_impl3add7git_addNCNvNtNtCs6dua4rg4Ovk_3e2e6common12repo_factory11commit_file0E0B1A_
FNDA:0,_RNCINvNtNtNtNtCscu9j8SGJFlb_27fireworks_collaboration_lib4core3git12default_impl3add7git_addNCNvNtNtCs6dua4rg4Ovk_3e2e6common12repo_factory11commit_file0Es0_0B1A_
FNDA:0,_RNCINvNtNtNtNtCscu9j8SGJFlb_27fireworks_collaboration_lib4core3git12default_impl3add7git_addNCNvNtNtCs6dua4rg4Ovk_3e2e6common12repo_factory11commit_file0Es1_0B1A_
FNDA:0,_RNCINvNtNtNtNtCscu9j8SGJFlb_27fireworks_collaboration_lib4core3git12default_impl3add7git_addNCNvNtNtCs6dua4rg4Ovk_3e2e6common12repo_factory11commit_file0Es2_0B1A_
FNDA:0,_RNCINvNtNtNtNtCscu9j8SGJFlb_27fireworks_collaboration_lib4core3git12default_impl3add7git_addNCNvNtNtCs6dua4rg4Ovk_3e2e6common12repo_factory11commit_file0Es3_0B1A_
FNDA:0,_RNCINvNtNtNtNtCscu9j8SGJFlb_27fireworks_collaboration_lib4core3git12default_impl3add7git_addNCNvNtNtCs6dua4rg4Ovk_3e2e6common12repo_factory11commit_file0Es4_0B1A_
FNDA:0,_RNCINvNtNtNtNtCscu9j8SGJFlb_27fireworks_collaboration_lib4core3git12default_impl3add7git_addNCNvNtNtCs6dua4rg4Ovk_3e2e6common12repo_factory11commit_file0Es5_0B1A_
FNDA:0,_RNCINvNtNtNtNtCscu9j8SGJFlb_27fireworks_collaboration_lib4core3git12default_impl3add7git_addNCNvNtNtCs6dua4rg4Ovk_3e2e6common12repo_factory11commit_file0Es_0B1A_
FNDA:2,_RINvNtNtNtNtCscu9j8SGJFlb_27fireworks_collaboration_lib4core3git12default_impl3add7git_addNCNvNtNtCs5NYoXysI8dX_6events6common12repo_factory11commit_file0EB1y_
FNDA:0,_RNCINvNtNtNtNtCscu9j8SGJFlb_27fireworks_collaboration_lib4core3git12default_impl3add7git_addNCNvNtNtCs5NYoXysI8dX_6events6common12repo_factory11commit_file0E0B1A_
FNDA:0,_RNCINvNtNtNtNtCscu9j8SGJFlb_27fireworks_collaboration_lib4core3git12default_impl3add7git_addNCNvNtNtCs5NYoXysI8dX_6events6common12repo_factory11commit_file0Es0_0B1A_
FNDA:0,_RNCINvNtNtNtNtCscu9j8SGJFlb_27fireworks_collaboration_lib4core3git12default_impl3add7git_addNCNvNtNtCs5NYoXysI8dX_6events6common12repo_factory11commit_file0Es1_0B1A_
FNDA:0,_RNCINvNtNtNtNtCscu9j8SGJFlb_27fireworks_collaboration_lib4core3git12default_impl3add7git_addNCNvNtNtCs5NYoXysI8dX_6events6common12repo_factory11commit_file0Es2_0B1A_
FNDA:0,_RNCINvNtNtNtNtCscu9j8SGJFlb_27fireworks_collaboration_lib4core3git12default_impl3add7git_addNCNvNtNtCs5NYoXysI8dX_6events6common12repo_factory11commit_file0Es3_0B1A_
FNDA:0,_RNCINvNtNtNtNtCscu9j8SGJFlb_27fireworks_collaboration_lib4core3git12default_impl3add7git_addNCNvNtNtCs5NYoXysI8dX_6events6common12repo_factory11commit_file0Es4_0B1A_
FNDA:0,_RNCINvNtNtNtNtCscu9j8SGJFlb_27fireworks_collaboration_lib4core3git12default_impl3add7git_addNCNvNtNtCs5NYoXysI8dX_6events6common12repo_factory11commit_file0Es5_0B1A_
FNDA:0,_RNCINvNtNtNtNtCscu9j8SGJFlb_27fireworks_collaboration_lib4core3git12default_impl3add7git_addNCNvNtNtCs5NYoXysI8dX_6events6common12repo_factory11commit_file0Es_0B1A_
FNDA:0,_RINvNtNtNtNtCsfvgE7hV3dwJ_27fireworks_collaboration_lib4core3git12default_impl3add7git_addpEBa_
FNDA:0,_RNCINvNtNtNtNtCsfvgE7hV3dwJ_27fireworks_collaboration_lib4core3git12default_impl3add7git_addpE0Bc_
FNDA:0,_RNCINvNtNtNtNtCsfvgE7hV3dwJ_27fireworks_collaboration_lib4core3git12default_impl3add7git_addpEs0_0Bc_
FNDA:0,_RNCINvNtNtNtNtCsfvgE7hV3dwJ_27fireworks_collaboration_lib4core3git12default_impl3add7git_addpEs1_0Bc_
FNDA:0,_RNCINvNtNtNtNtCsfvgE7hV3dwJ_27fireworks_collaboration_lib4core3git12default_impl3add7git_addpEs2_0Bc_
FNDA:0,_RNCINvNtNtNtNtCsfvgE7hV3dwJ_27fireworks_collaboration_lib4core3git12default_impl3add7git_addpEs3_0Bc_
FNDA:0,_RNCINvNtNtNtNtCsfvgE7hV3dwJ_27fireworks_collaboration_lib4core3git12default_impl3add7git_addpEs4_0Bc_
FNDA:0,_RNCINvNtNtNtNtCsfvgE7hV3dwJ_27fireworks_collaboration_lib4core3git12default_impl3add7git_addpEs5_0Bc_
FNDA:0,_RNCINvNtNtNtNtCsfvgE7hV3dwJ_27fireworks_collaboration_lib4core3git12default_impl3add7git_addpEs_0Bc_
FNDA:0,_RNvNtNtNtNtCsfvgE7hV3dwJ_27fireworks_collaboration_lib4core3git12default_impl3add19normalize_component
FNDA:1,_RINvNtNtNtNtCscu9j8SGJFlb_27fireworks_collaboration_lib4core3git12default_impl3add7git_addNCNvNtNtCsgvyBa5thnhP_3git18git_add_and_commit16section_add_edges_20add_cancelled_before0EB1y_
FNDA:1,_RINvNtNtNtNtCscu9j8SGJFlb_27fireworks_collaboration_lib4core3git12default_impl3add7git_addNCNvNtNtCsgvyBa5thnhP_3git18git_add_and_commit16section_add_edges_22add_rejects_empty_lists_0EB1y_
FNDA:1,_RINvNtNtNtNtCscu9j8SGJFlb_27fireworks_collaboration_lib4core3git12default_impl3add7git_addNCNvNtNtCsgvyBa5thnhP_3git18git_add_and_commit16section_add_edges_37add_rejects_outside_path_and_absolutes0_0EB1y_
FNDA:1,_RINvNtNtNtNtCscu9j8SGJFlb_27fireworks_collaboration_lib4core3git12default_impl3add7git_addNCNvNtNtCsgvyBa5thnhP_3git18git_add_and_commit16section_add_edges_37add_rejects_outside_path_and_absolutes_0EB1y_
FNDA:1,_RINvNtNtNtNtCscu9j8SGJFlb_27fireworks_collaboration_lib4core3git12default_impl3add7git_addNCNvNtNtCsgvyBa5thnhP_3git18git_add_and_commit17section_add_basics_43add_success_with_dir_and_dedup_and_progresss_0EB1y_
FNDA:19,_RINvNtNtNtNtCscu9j8SGJFlb_27fireworks_collaboration_lib4core3git12default_impl3add7git_addNCNvNtNtCsgvyBa5thnhP_3git6common12repo_factory11commit_file0EB1y_
FNDA:32,_RINvNtNtNtNtCscu9j8SGJFlb_27fireworks_collaboration_lib4core3git12default_impl3add7git_addNCNvNtNtCsgvyBa5thnhP_3git6common8fixtures12commit_filess_0EB1y_
FNDA:2,_RINvNtNtNtNtCscu9j8SGJFlb_27fireworks_collaboration_lib4core3git12default_impl3add7git_addNCNvNtNtNtCsgvyBa5thnhP_3git9submodule6common12repo_factory11commit_file0EB1A_
FNDA:0,_RNCINvNtNtNtNtCscu9j8SGJFlb_27fireworks_collaboration_lib4core3git12default_impl3add7git_addNCNvNtNtCsgvyBa5thnhP_3git18git_add_and_commit16section_add_edges_20add_cancelled_before0E0B1A_
FNDA:0,_RNCINvNtNtNtNtCscu9j8SGJFlb_27fireworks_collaboration_lib4core3git12default_impl3add7git_addNCNvNtNtCsgvyBa5thnhP_3git18git_add_and_commit16section_add_edges_20add_cancelled_before0Es0_0B1A_
FNDA:0,_RNCINvNtNtNtNtCscu9j8SGJFlb_27fireworks_collaboration_lib4core3git12default_impl3add7git_addNCNvNtNtCsgvyBa5thnhP_3git18git_add_and_commit16section_add_edges_20add_cancelled_before0Es1_0B1A_
FNDA:0,_RNCINvNtNtNtNtCscu9j8SGJFlb_27fireworks_collaboration_lib4core3git12default_impl3add7git_addNCNvNtNtCsgvyBa5thnhP_3git18git_add_and_commit16section_add_edges_20add_cancelled_before0Es2_0B1A_
FNDA:0,_RNCINvNtNtNtNtCscu9j8SGJFlb_27fireworks_collaboration_lib4core3git12default_impl3add7git_addNCNvNtNtCsgvyBa5thnhP_3git18git_add_and_commit16section_add_edges_20add_cancelled_before0Es3_0B1A_
FNDA:0,_RNCINvNtNtNtNtCscu9j8SGJFlb_27fireworks_collaboration_lib4core3git12default_impl3add7git_addNCNvNtNtCsgvyBa5thnhP_3git18git_add_and_commit16section_add_edges_20add_cancelled_before0Es4_0B1A_
FNDA:0,_RNCINvNtNtNtNtCscu9j8SGJFlb_27fireworks_collaboration_lib4core3git12default_impl3add7git_addNCNvNtNtCsgvyBa5thnhP_3git18git_add_and_commit16section_add_edges_20add_cancelled_before0Es5_0B1A_
FNDA:0,_RNCINvNtNtNtNtCscu9j8SGJFlb_27fireworks_collaboration_lib4core3git12default_impl3add7git_addNCNvNtNtCsgvyBa5thnhP_3git18git_add_and_commit16section_add_edges_20add_cancelled_before0Es_0B1A_
FNDA:0,_RNCINvNtNtNtNtCscu9j8SGJFlb_27fireworks_collaboration_lib4core3git12default_impl3add7git_addNCNvNtNtCsgvyBa5thnhP_3git18git_add_and_commit16section_add_edges_22add_rejects_empty_lists_0E0B1A_
FNDA:0,_RNCINvNtNtNtNtCscu9j8SGJFlb_27fireworks_collaboration_lib4core3git12default_impl3add7git_addNCNvNtNtCsgvyBa5thnhP_3git18git_add_and_commit16section_add_edges_22add_rejects_empty_lists_0Es0_0B1A_
FNDA:0,_RNCINvNtNtNtNtCscu9j8SGJFlb_27fireworks_collaboration_lib4core3git12default_impl3add7git_addNCNvNtNtCsgvyBa5thnhP_3git18git_add_and_commit16section_add_edges_22add_rejects_empty_lists_0Es1_0B1A_
FNDA:0,_RNCINvNtNtNtNtCscu9j8SGJFlb_27fireworks_collaboration_lib4core3git12default_impl3add7git_addNCNvNtNtCsgvyBa5thnhP_3git18git_add_and_commit16section_add_edges_22add_rejects_empty_lists_0Es2_0B1A_
FNDA:0,_RNCINvNtNtNtNtCscu9j8SGJFlb_27fireworks_collaboration_lib4core3git12default_impl3add7git_addNCNvNtNtCsgvyBa5thnhP_3git18git_add_and_commit16section_add_edges_22add_rejects_empty_lists_0Es3_0B1A_
FNDA:0,_RNCINvNtNtNtNtCscu9j8SGJFlb_27fireworks_collaboration_lib4core3git12default_impl3add7git_addNCNvNtNtCsgvyBa5thnhP_3git18git_add_and_commit16section_add_edges_22add_rejects_empty_lists_0Es4_0B1A_
FNDA:0,_RNCINvNtNtNtNtCscu9j8SGJFlb_27fireworks_collaboration_lib4core3git12default_impl3add7git_addNCNvNtNtCsgvyBa5thnhP_3git18git_add_and_commit16section_add_edges_22add_rejects_empty_lists_0Es5_0B1A_
FNDA:0,_RNCINvNtNtNtNtCscu9j8SGJFlb_27fireworks_collaboration_lib4core3git12default_impl3add7git_addNCNvNtNtCsgvyBa5thnhP_3git18git_add_and_commit16section_add_edges_22add_rejects_empty_lists_0Es_0B1A_
FNDA:0,_RNCINvNtNtNtNtCscu9j8SGJFlb_27fireworks_collaboration_lib4core3git12default_impl3add7git_addNCNvNtNtCsgvyBa5thnhP_3git18git_add_and_commit16section_add_edges_37add_rejects_outside_path_and_absolutes0_0E0B1A_
FNDA:0,_RNCINvNtNtNtNtCscu9j8SGJFlb_27fireworks_collaboration_lib4core3git12default_impl3add7git_addNCNvNtNtCsgvyBa5thnhP_3git18git_add_and_commit16section_add_edges_37add_rejects_outside_path_and_absolutes0_0Es0_0B1A_
FNDA:0,_RNCINvNtNtNtNtCscu9j8SGJFlb_27fireworks_collaboration_lib4core3git12default_impl3add7git_addNCNvNtNtCsgvyBa5thnhP_3git18git_add_and_commit16section_add_edges_37add_rejects_outside_path_and_absolutes0_0Es1_0B1A_
FNDA:0,_RNCINvNtNtNtNtCscu9j8SGJFlb_27fireworks_collaboration_lib4core3git12default_impl3add7git_addNCNvNtNtCsgvyBa5thnhP_3git18git_add_and_commit16section_add_edges_37add_rejects_outside_path_and_absolutes0_0Es2_0B1A_
FNDA:0,_RNCINvNtNtNtNtCscu9j8SGJFlb_27fireworks_collaboration_lib4core3git12default_impl3add7git_addNCNvNtNtCsgvyBa5thnhP_3git18git_add_and_commit16section_add_edges_37add_rejects_outside_path_and_absolutes0_0Es3_0B1A_
FNDA:0,_RNCINvNtNtNtNtCscu9j8SGJFlb_27fireworks_collaboration_lib4core3git12default_impl3add7git_addNCNvNtNtCsgvyBa5thnhP_3git18git_add_and_commit16section_add_edges_37add_rejects_outside_path_and_absolutes0_0Es4_0B1A_
FNDA:0,_RNCINvNtNtNtNtCscu9j8SGJFlb_27fireworks_collaboration_lib4core3git12default_impl3add7git_addNCNvNtNtCsgvyBa5thnhP_3git18git_add_and_commit16section_add_edges_37add_rejects_outside_path_and_absolutes0_0Es5_0B1A_
FNDA:0,_RNCINvNtNtNtNtCscu9j8SGJFlb_27fireworks_collaboration_lib4core3git12default_impl3add7git_addNCNvNtNtCsgvyBa5thnhP_3git18git_add_and_commit16section_add_edges_37add_rejects_outside_path_and_absolutes0_0Es_0B1A_
FNDA:0,_RNCINvNtNtNtNtCscu9j8SGJFlb_27fireworks_collaboration_lib4core3git12default_impl3add7git_addNCNvNtNtCsgvyBa5thnhP_3git18git_add_and_commit16section_add_edges_37add_rejects_outside_path_and_absolutes_0E0B1A_
FNDA:0,_RNCINvNtNtNtNtCscu9j8SGJFlb_27fireworks_collaboration_lib4core3git12default_impl3add7git_addNCNvNtNtCsgvyBa5thnhP_3git18git_add_and_commit16section_add_edges_37add_rejects_outside_path_and_absolutes_0Es0_0B1A_
FNDA:0,_RNCINvNtNtNtNtCscu9j8SGJFlb_27fireworks_collaboration_lib4core3git12default_impl3add7git_addNCNvNtNtCsgvyBa5thnhP_3git18git_add_and_commit16section_add_edges_37add_rejects_outside_path_and_absolutes_0Es1_0B1A_
FNDA:0,_RNCINvNtNtNtNtCscu9j8SGJFlb_27fireworks_collaboration_lib4core3git12default_impl3add7git_addNCNvNtNtCsgvyBa5thnhP_3git18git_add_and_commit16section_add_edges_37add_rejects_outside_path_and_absolutes_0Es2_0B1A_
FNDA:0,_RNCINvNtNtNtNtCscu9j8SGJFlb_27fireworks_collaboration_lib4core3git12default_impl3add7git_addNCNvNtNtCsgvyBa5thnhP_3git18git_add_and_commit16section_add_edges_37add_rejects_outside_path_and_absolutes_0Es3_0B1A_
FNDA:0,_RNCINvNtNtNtNtCscu9j8SGJFlb_27fireworks_collaboration_lib4core3git12default_impl3add7git_addNCNvNtNtCsgvyBa5thnhP_3git18git_add_and_commit16section_add_edges_37add_rejects_outside_path_and_absolutes_0Es4_0B1A_
FNDA:0,_RNCINvNtNtNtNtCscu9j8SGJFlb_27fireworks_collaboration_lib4core3git12default_impl3add7git_addNCNvNtNtCsgvyBa5thnhP_3git18git_add_and_commit16section_add_edges_37add_rejects_outside_path_and_absolutes_0Es5_0B1A_
FNDA:0,_RNCINvNtNtNtNtCscu9j8SGJFlb_27fireworks_collaboration_lib4core3git12default_impl3add7git_addNCNvNtNtCsgvyBa5thnhP_3git18git_add_and_commit16section_add_edges_37add_rejects_outside_path_and_absolutes_0Es_0B1A_
FNDA:0,_RNCINvNtNtNtNtCscu9j8SGJFlb_27fireworks_collaboration_lib4core3git12default_impl3add7git_addNCNvNtNtCsgvyBa5thnhP_3git18git_add_and_commit17section_add_basics_43add_success_with_dir_and_dedup_and_progresss_0E0B1A_
FNDA:0,_RNCINvNtNtNtNtCscu9j8SGJFlb_27fireworks_collaboration_lib4core3git12default_impl3add7git_addNCNvNtNtCsgvyBa5thnhP_3git18git_add_and_commit17section_add_basics_43add_success_with_dir_and_dedup_and_progresss_0Es0_0B1A_
FNDA:0,_RNCINvNtNtNtNtCscu9j8SGJFlb_27fireworks_collaboration_lib4core3git12default_impl3add7git_addNCNvNtNtCsgvyBa5thnhP_3git18git_add_and_commit17section_add_basics_43add_success_with_dir_and_dedup_and_progresss_0Es1_0B1A_
FNDA:0,_RNCINvNtNtNtNtCscu9j8SGJFlb_27fireworks_collaboration_lib4core3git12default_impl3add7git_addNCNvNtNtCsgvyBa5thnhP_3git18git_add_and_commit17section_add_basics_43add_success_with_dir_and_dedup_and_progresss_0Es2_0B1A_
FNDA:0,_RNCINvNtNtNtNtCscu9j8SGJFlb_27fireworks_collaboration_lib4core3git12default_impl3add7git_addNCNvNtNtCsgvyBa5thnhP_3git18git_add_and_commit17section_add_basics_43add_success_with_dir_and_dedup_and_progresss_0Es3_0B1A_
FNDA:0,_RNCINvNtNtNtNtCscu9j8SGJFlb_27fireworks_collaboration_lib4core3git12default_impl3add7git_addNCNvNtNtCsgvyBa5thnhP_3git18git_add_and_commit17section_add_basics_43add_success_with_dir_and_dedup_and_progresss_0Es4_0B1A_
FNDA:0,_RNCINvNtNtNtNtCscu9j8SGJFlb_27fireworks_collaboration_lib4core3git12default_impl3add7git_addNCNvNtNtCsgvyBa5thnhP_3git18git_add_and_commit17section_add_basics_43add_success_with_dir_and_dedup_and_progresss_0Es5_0B1A_
FNDA:0,_RNCINvNtNtNtNtCscu9j8SGJFlb_27fireworks_collaboration_lib4core3git12default_impl3add7git_addNCNvNtNtCsgvyBa5thnhP_3git18git_add_and_commit17section_add_basics_43add_success_with_dir_and_dedup_and_progresss_0Es_0B1A_
FNDA:0,_RNCINvNtNtNtNtCscu9j8SGJFlb_27fireworks_collaboration_lib4core3git12default_impl3add7git_addNCNvNtNtCsgvyBa5thnhP_3git6common12repo_factory11commit_file0E0B1A_
FNDA:0,_RNCINvNtNtNtNtCscu9j8SGJFlb_27fireworks_collaboration_lib4core3git12default_impl3add7git_addNCNvNtNtCsgvyBa5thnhP_3git6common12repo_factory11commit_file0Es0_0B1A_
FNDA:0,_RNCINvNtNtNtNtCscu9j8SGJFlb_27fireworks_collaboration_lib4core3git12default_impl3add7git_addNCNvNtNtCsgvyBa5thnhP_3git6common12repo_factory11commit_file0Es1_0B1A_
FNDA:0,_RNCINvNtNtNtNtCscu9j8SGJFlb_27fireworks_collaboration_lib4core3git12default_impl3add7git_addNCNvNtNtCsgvyBa5thnhP_3git6common12repo_factory11commit_file0Es2_0B1A_
FNDA:0,_RNCINvNtNtNtNtCscu9j8SGJFlb_27fireworks_collaboration_lib4core3git12default_impl3add7git_addNCNvNtNtCsgvyBa5thnhP_3git6common12repo_factory11commit_file0Es3_0B1A_
FNDA:0,_RNCINvNtNtNtNtCscu9j8SGJFlb_27fireworks_collaboration_lib4core3git12default_impl3add7git_addNCNvNtNtCsgvyBa5thnhP_3git6common12repo_factory11commit_file0Es4_0B1A_
FNDA:0,_RNCINvNtNtNtNtCscu9j8SGJFlb_27fireworks_collaboration_lib4core3git12default_impl3add7git_addNCNvNtNtCsgvyBa5thnhP_3git6common12repo_factory11commit_file0Es5_0B1A_
FNDA:0,_RNCINvNtNtNtNtCscu9j8SGJFlb_27fireworks_collaboration_lib4core3git12default_impl3add7git_addNCNvNtNtCsgvyBa5thnhP_3git6common12repo_factory11commit_file0Es_0B1A_
FNDA:0,_RNCINvNtNtNtNtCscu9j8SGJFlb_27fireworks_collaboration_lib4core3git12default_impl3add7git_addNCNvNtNtCsgvyBa5thnhP_3git6common8fixtures12commit_filess_0E0B1A_
FNDA:0,_RNCINvNtNtNtNtCscu9j8SGJFlb_27fireworks_collaboration_lib4core3git12default_impl3add7git_addNCNvNtNtCsgvyBa5thnhP_3git6common8fixtures12commit_filess_0Es0_0B1A_
FNDA:0,_RNCINvNtNtNtNtCscu9j8SGJFlb_27fireworks_collaboration_lib4core3git12default_impl3add7git_addNCNvNtNtCsgvyBa5thnhP_3git6common8fixtures12commit_filess_0Es1_0B1A_
FNDA:0,_RNCINvNtNtNtNtCscu9j8SGJFlb_27fireworks_collaboration_lib4core3git12default_impl3add7git_addNCNvNtNtCsgvyBa5thnhP_3git6common8fixtures12commit_filess_0Es2_0B1A_
FNDA:0,_RNCINvNtNtNtNtCscu9j8SGJFlb_27fireworks_collaboration_lib4core3git12default_impl3add7git_addNCNvNtNtCsgvyBa5thnhP_3git6common8fixtures12commit_filess_0Es3_0B1A_
FNDA:0,_RNCINvNtNtNtNtCscu9j8SGJFlb_27fireworks_collaboration_lib4core3git12default_impl3add7git_addNCNvNtNtCsgvyBa5thnhP_3git6common8fixtures12commit_filess_0Es4_0B1A_
FNDA:0,_RNCINvNtNtNtNtCscu9j8SGJFlb_27fireworks_collaboration_lib4core3git12default_impl3add7git_addNCNvNtNtCsgvyBa5thnhP_3git6common8fixtures12commit_filess_0Es5_0B1A_
FNDA:0,_RNCINvNtNtNtNtCscu9j8SGJFlb_27fireworks_collaboration_lib4core3git12default_impl3add7git_addNCNvNtNtCsgvyBa5thnhP_3git6common8fixtures12commit_filess_0Es_0B1A_
FNDA:0,_RNCINvNtNtNtNtCscu9j8SGJFlb_27fireworks_collaboration_lib4core3git12default_impl3add7git_addNCNvNtNtNtCsgvyBa5thnhP_3git9submodule6common12repo_factory11commit_file0E0B1C_
FNDA:0,_RNCINvNtNtNtNtCscu9j8SGJFlb_27fireworks_collaboration_lib4core3git12default_impl3add7git_addNCNvNtNtNtCsgvyBa5thnhP_3git9submodule6common12repo_factory11commit_file0Es0_0B1C_
FNDA:0,_RNCINvNtNtNtNtCscu9j8SGJFlb_27fireworks_collaboration_lib4core3git12default_impl3add7git_addNCNvNtNtNtCsgvyBa5thnhP_3git9submodule6common12repo_factory11commit_file0Es1_0B1C_
FNDA:0,_RNCINvNtNtNtNtCscu9j8SGJFlb_27fireworks_collaboration_lib4core3git12default_impl3add7git_addNCNvNtNtNtCsgvyBa5thnhP_3git9submodule6common12repo_factory11commit_file0Es2_0B1C_
FNDA:0,_RNCINvNtNtNtNtCscu9j8SGJFlb_27fireworks_collaboration_lib4core3git12default_impl3add7git_addNCNvNtNtNtCsgvyBa5thnhP_3git9submodule6common12repo_factory11commit_file0Es3_0B1C_
FNDA:0,_RNCINvNtNtNtNtCscu9j8SGJFlb_27fireworks_collaboration_lib4core3git12default_impl3add7git_addNCNvNtNtNtCsgvyBa5thnhP_3git9submodule6common12repo_factory11commit_file0Es4_0B1C_
FNDA:0,_RNCINvNtNtNtNtCscu9j8SGJFlb_27fireworks_collaboration_lib4core3git12default_impl3add7git_addNCNvNtNtNtCsgvyBa5thnhP_3git9submodule6common12repo_factory11commit_file0Es5_0B1C_
FNDA:0,_RNCINvNtNtNtNtCscu9j8SGJFlb_27fireworks_collaboration_lib4core3git12default_impl3add7git_addNCNvNtNtNtCsgvyBa5thnhP_3git9submodule6common12repo_factory11commit_file0Es_0B1C_
FNDA:2,_RINvNtNtNtNtCscu9j8SGJFlb_27fireworks_collaboration_lib4core3git12default_impl3add7git_addNCNvNtNtCs7iVILGxhzfA_5proxy6common12repo_factory11commit_file0EB1y_
FNDA:0,_RNCINvNtNtNtNtCscu9j8SGJFlb_27fireworks_collaboration_lib4core3git12default_impl3add7git_addNCNvNtNtCs7iVILGxhzfA_5proxy6common12repo_factory11commit_file0E0B1A_
FNDA:0,_RNCINvNtNtNtNtCscu9j8SGJFlb_27fireworks_collaboration_lib4core3git12default_impl3add7git_addNCNvNtNtCs7iVILGxhzfA_5proxy6common12repo_factory11commit_file0Es0_0B1A_
FNDA:0,_RNCINvNtNtNtNtCscu9j8SGJFlb_27fireworks_collaboration_lib4core3git12default_impl3add7git_addNCNvNtNtCs7iVILGxhzfA_5proxy6common12repo_factory11commit_file0Es1_0B1A_
FNDA:0,_RNCINvNtNtNtNtCscu9j8SGJFlb_27fireworks_collaboration_lib4core3git12default_impl3add7git_addNCNvNtNtCs7iVILGxhzfA_5proxy6common12repo_factory11commit_file0Es2_0B1A_
FNDA:0,_RNCINvNtNtNtNtCscu9j8SGJFlb_27fireworks_collaboration_lib4core3git12default_impl3add7git_addNCNvNtNtCs7iVILGxhzfA_5proxy6common12repo_factory11commit_file0Es3_0B1A_
FNDA:0,_RNCINvNtNtNtNtCscu9j8SGJFlb_27fireworks_collaboration_lib4core3git12default_impl3add7git_addNCNvNtNtCs7iVILGxhzfA_5proxy6common12repo_factory11commit_file0Es4_0B1A_
FNDA:0,_RNCINvNtNtNtNtCscu9j8SGJFlb_27fireworks_collaboration_lib4core3git12default_impl3add7git_addNCNvNtNtCs7iVILGxhzfA_5proxy6common12repo_factory11commit_file0Es5_0B1A_
FNDA:0,_RNCINvNtNtNtNtCscu9j8SGJFlb_27fireworks_collaboration_lib4core3git12default_impl3add7git_addNCNvNtNtCs7iVILGxhzfA_5proxy6common12repo_factory11commit_file0Es_0B1A_
FNDA:2,_RINvNtNtNtNtCscu9j8SGJFlb_27fireworks_collaboration_lib4core3git12default_impl3add7git_addNCNvNtNtCsg9T22JMUfCw_7quality6common12repo_factory11commit_file0EB1y_
FNDA:0,_RNCINvNtNtNtNtCscu9j8SGJFlb_27fireworks_collaboration_lib4core3git12default_impl3add7git_addNCNvNtNtCsg9T22JMUfCw_7quality6common12repo_factory11commit_file0E0B1A_
FNDA:0,_RNCINvNtNtNtNtCscu9j8SGJFlb_27fireworks_collaboration_lib4core3git12default_impl3add7git_addNCNvNtNtCsg9T22JMUfCw_7quality6common12repo_factory11commit_file0Es0_0B1A_
FNDA:0,_RNCINvNtNtNtNtCscu9j8SGJFlb_27fireworks_collaboration_lib4core3git12default_impl3add7git_addNCNvNtNtCsg9T22JMUfCw_7quality6common12repo_factory11commit_file0Es1_0B1A_
FNDA:0,_RNCINvNtNtNtNtCscu9j8SGJFlb_27fireworks_collaboration_lib4core3git12default_impl3add7git_addNCNvNtNtCsg9T22JMUfCw_7quality6common12repo_factory11commit_file0Es2_0B1A_
FNDA:0,_RNCINvNtNtNtNtCscu9j8SGJFlb_27fireworks_collaboration_lib4core3git12default_impl3add7git_addNCNvNtNtCsg9T22JMUfCw_7quality6common12repo_factory11commit_file0Es3_0B1A_
FNDA:0,_RNCINvNtNtNtNtCscu9j8SGJFlb_27fireworks_collaboration_lib4core3git12default_impl3add7git_addNCNvNtNtCsg9T22JMUfCw_7quality6common12repo_factory11commit_file0Es4_0B1A_
FNDA:0,_RNCINvNtNtNtNtCscu9j8SGJFlb_27fireworks_collaboration_lib4core3git12default_impl3add7git_addNCNvNtNtCsg9T22JMUfCw_7quality6common12repo_factory11commit_file0Es5_0B1A_
FNDA:0,_RNCINvNtNtNtNtCscu9j8SGJFlb_27fireworks_collaboration_lib4core3git12default_impl3add7git_addNCNvNtNtCsg9T22JMUfCw_7quality6common12repo_factory11commit_file0Es_0B1A_
FNDA:2,_RINvNtNtNtNtCscu9j8SGJFlb_27fireworks_collaboration_lib4core3git12default_impl3add7git_addNCNvNtNtCs5bjiTMnK4Rn_9submodule6common12repo_factory11commit_file0EB1y_
FNDA:0,_RNCINvNtNtNtNtCscu9j8SGJFlb_27fireworks_collaboration_lib4core3git12default_impl3add7git_addNCNvNtNtCs5bjiTMnK4Rn_9submodule6common12repo_factory11commit_file0E0B1A_
FNDA:0,_RNCINvNtNtNtNtCscu9j8SGJFlb_27fireworks_collaboration_lib4core3git12default_impl3add7git_addNCNvNtNtCs5bjiTMnK4Rn_9submodule6common12repo_factory11commit_file0Es0_0B1A_
FNDA:0,_RNCINvNtNtNtNtCscu9j8SGJFlb_27fireworks_collaboration_lib4core3git12default_impl3add7git_addNCNvNtNtCs5bjiTMnK4Rn_9submodule6common12repo_factory11commit_file0Es1_0B1A_
FNDA:0,_RNCINvNtNtNtNtCscu9j8SGJFlb_27fireworks_collaboration_lib4core3git12default_impl3add7git_addNCNvNtNtCs5bjiTMnK4Rn_9submodule6common12repo_factory11commit_file0Es2_0B1A_
FNDA:0,_RNCINvNtNtNtNtCscu9j8SGJFlb_27fireworks_collaboration_lib4core3git12default_impl3add7git_addNCNvNtNtCs5bjiTMnK4Rn_9submodule6common12repo_factory11commit_file0Es3_0B1A_
FNDA:0,_RNCINvNtNtNtNtCscu9j8SGJFlb_27fireworks_collaboration_lib4core3git12default_impl3add7git_addNCNvNtNtCs5bjiTMnK4Rn_9submodule6common12repo_factory11commit_file0Es4_0B1A_
FNDA:0,_RNCINvNtNtNtNtCscu9j8SGJFlb_27fireworks_collaboration_lib4core3git12default_impl3add7git_addNCNvNtNtCs5bjiTMnK4Rn_9submodule6common12repo_factory11commit_file0Es5_0B1A_
FNDA:0,_RNCINvNtNtNtNtCscu9j8SGJFlb_27fireworks_collaboration_lib4core3git12default_impl3add7git_addNCNvNtNtCs5bjiTMnK4Rn_9submodule6common12repo_factory11commit_file0Es_0B1A_
FNDA:2,_RINvNtNtNtNtCscu9j8SGJFlb_27fireworks_collaboration_lib4core3git12default_impl3add7git_addNCNvNtNtCse2afPLa6SGs_5tasks6common12repo_factory11commit_file0EB1y_
FNDA:9,_RINvNtNtNtNtCscu9j8SGJFlb_27fireworks_collaboration_lib4core3git12default_impl3add7git_addNvNtCse2afPLa6SGs_5tasks14git_operations13noop_progressEB1u_
FNDA:0,_RNCINvNtNtNtNtCscu9j8SGJFlb_27fireworks_collaboration_lib4core3git12default_impl3add7git_addNCNvNtNtCse2afPLa6SGs_5tasks6common12repo_factory11commit_file0E0B1A_
FNDA:0,_RNCINvNtNtNtNtCscu9j8SGJFlb_27fireworks_collaboration_lib4core3git12default_impl3add7git_addNCNvNtNtCse2afPLa6SGs_5tasks6common12repo_factory11commit_file0Es0_0B1A_
FNDA:0,_RNCINvNtNtNtNtCscu9j8SGJFlb_27fireworks_collaboration_lib4core3git12default_impl3add7git_addNCNvNtNtCse2afPLa6SGs_5tasks6common12repo_factory11commit_file0Es1_0B1A_
FNDA:0,_RNCINvNtNtNtNtCscu9j8SGJFlb_27fireworks_collaboration_lib4core3git12default_impl3add7git_addNCNvNtNtCse2afPLa6SGs_5tasks6common12repo_factory11commit_file0Es2_0B1A_
FNDA:0,_RNCINvNtNtNtNtCscu9j8SGJFlb_27fireworks_collaboration_lib4core3git12default_impl3add7git_addNCNvNtNtCse2afPLa6SGs_5tasks6common12repo_factory11commit_file0Es3_0B1A_
FNDA:0,_RNCINvNtNtNtNtCscu9j8SGJFlb_27fireworks_collaboration_lib4core3git12default_impl3add7git_addNCNvNtNtCse2afPLa6SGs_5tasks6common12repo_factory11commit_file0Es4_0B1A_
FNDA:0,_RNCINvNtNtNtNtCscu9j8SGJFlb_27fireworks_collaboration_lib4core3git12default_impl3add7git_addNCNvNtNtCse2afPLa6SGs_5tasks6common12repo_factory11commit_file0Es5_0B1A_
FNDA:0,_RNCINvNtNtNtNtCscu9j8SGJFlb_27fireworks_collaboration_lib4core3git12default_impl3add7git_addNCNvNtNtCse2afPLa6SGs_5tasks6common12repo_factory11commit_file0Es_0B1A_
FNDA:0,_RNCINvNtNtNtNtCscu9j8SGJFlb_27fireworks_collaboration_lib4core3git12default_impl3add7git_addNvNtCse2afPLa6SGs_5tasks14git_operations13noop_progressE0B1w_
FNDA:0,_RNCINvNtNtNtNtCscu9j8SGJFlb_27fireworks_collaboration_lib4core3git12default_impl3add7git_addNvNtCse2afPLa6SGs_5tasks14git_operations13noop_progressEs0_0B1w_
FNDA:0,_RNCINvNtNtNtNtCscu9j8SGJFlb_27fireworks_collaboration_lib4core3git12default_impl3add7git_addNvNtCse2afPLa6SGs_5tasks14git_operations13noop_progressEs1_0B1w_
FNDA:0,_RNCINvNtNtNtNtCscu9j8SGJFlb_27fireworks_collaboration_lib4core3git12default_impl3add7git_addNvNtCse2afPLa6SGs_5tasks14git_operations13noop_progressEs2_0B1w_
FNDA:0,_RNCINvNtNtNtNtCscu9j8SGJFlb_27fireworks_collaboration_lib4core3git12default_impl3add7git_addNvNtCse2afPLa6SGs_5tasks14git_operations13noop_progressEs3_0B1w_
FNDA:0,_RNCINvNtNtNtNtCscu9j8SGJFlb_27fireworks_collaboration_lib4core3git12default_impl3add7git_addNvNtCse2afPLa6SGs_5tasks14git_operations13noop_progressEs4_0B1w_
FNDA:0,_RNCINvNtNtNtNtCscu9j8SGJFlb_27fireworks_collaboration_lib4core3git12default_impl3add7git_addNvNtCse2afPLa6SGs_5tasks14git_operations13noop_progressEs5_0B1w_
FNDA:0,_RNCINvNtNtNtNtCscu9j8SGJFlb_27fireworks_collaboration_lib4core3git12default_impl3add7git_addNvNtCse2afPLa6SGs_5tasks14git_operations13noop_progressEs_0B1w_
FNDA:15,_RINvNtNtNtNtCscu9j8SGJFlb_27fireworks_collaboration_lib4core3git12default_impl3add7git_addNCNvNtNtCscRE2irdvoKL_9workspace6common12repo_factory11commit_file0EB1y_
FNDA:0,_RNCINvNtNtNtNtCscu9j8SGJFlb_27fireworks_collaboration_lib4core3git12default_impl3add7git_addNCNvNtNtCscRE2irdvoKL_9workspace6common12repo_factory11commit_file0E0B1A_
FNDA:0,_RNCINvNtNtNtNtCscu9j8SGJFlb_27fireworks_collaboration_lib4core3git12default_impl3add7git_addNCNvNtNtCscRE2irdvoKL_9workspace6common12repo_factory11commit_file0Es0_0B1A_
FNDA:0,_RNCINvNtNtNtNtCscu9j8SGJFlb_27fireworks_collaboration_lib4core3git12default_impl3add7git_addNCNvNtNtCscRE2irdvoKL_9workspace6common12repo_factory11commit_file0Es1_0B1A_
FNDA:0,_RNCINvNtNtNtNtCscu9j8SGJFlb_27fireworks_collaboration_lib4core3git12default_impl3add7git_addNCNvNtNtCscRE2irdvoKL_9workspace6common12repo_factory11commit_file0Es2_0B1A_
FNDA:0,_RNCINvNtNtNtNtCscu9j8SGJFlb_27fireworks_collaboration_lib4core3git12default_impl3add7git_addNCNvNtNtCscRE2irdvoKL_9workspace6common12repo_factory11commit_file0Es3_0B1A_
FNDA:0,_RNCINvNtNtNtNtCscu9j8SGJFlb_27fireworks_collaboration_lib4core3git12default_impl3add7git_addNCNvNtNtCscRE2irdvoKL_9workspace6common12repo_factory11commit_file0Es4_0B1A_
FNDA:0,_RNCINvNtNtNtNtCscu9j8SGJFlb_27fireworks_collaboration_lib4core3git12default_impl3add7git_addNCNvNtNtCscRE2irdvoKL_9workspace6common12repo_factory11commit_file0Es5_0B1A_
FNDA:0,_RNCINvNtNtNtNtCscu9j8SGJFlb_27fireworks_collaboration_lib4core3git12default_impl3add7git_addNCNvNtNtCscRE2irdvoKL_9workspace6common12repo_factory11commit_file0Es_0B1A_
FNF:10
FNH:2
DA:11,102
DA:12,102
DA:13,102
DA:15,108
DA:16,108
DA:17,108
DA:18,108
DA:19,108
DA:20,108
DA:21,108
DA:22,2
DA:23,106
DA:24,106
DA:25,1
DA:26,1
DA:27,1
DA:28,1
DA:29,105
DA:30,105
DA:31,2
DA:32,2
DA:33,2
DA:34,2
DA:35,103
DA:37,103
DA:38,103
DA:39,207
DA:40,107
DA:41,107
DA:42,1
DA:43,106
DA:44,106
DA:45,2
DA:46,2
DA:47,2
DA:48,2
DA:49,104
DA:50,104
DA:51,103
DA:52,103
DA:55,100
DA:56,0
DA:57,0
DA:58,0
DA:60,0
DA:61,100
DA:62,100
DA:63,100
DA:64,100
DA:65,0
DA:66,0
DA:67,0
DA:69,0
DA:70,100
DA:71,100
DA:72,0
DA:73,0
DA:74,0
DA:76,0
DA:77,102
DA:78,102
DA:79,0
DA:80,102
DA:81,102
DA:82,102
DA:83,2
DA:84,2
DA:85,2
DA:86,2
DA:87,100
DA:88,100
DA:89,0
DA:90,0
DA:91,100
DA:92,0
DA:93,0
DA:94,0
DA:95,0
DA:96,100
DA:97,100
DA:98,100
DA:100,0
DA:101,0
DA:102,0
DA:103,0
DA:106,100
DA:107,2
DA:108,2
DA:109,2
DA:111,2
DA:113,2
DA:114,0
DA:115,0
DA:116,0
DA:118,0
DA:120,98
DA:121,0
DA:122,0
DA:123,0
DA:125,0
DA:127,100
DA:128,100
DA:129,100
DA:130,100
DA:131,100
DA:132,100
DA:133,100
DA:134,100
DA:135,100
DA:136,100
DA:138,98
DA:139,0
DA:140,0
DA:141,0
DA:143,0
DA:144,98
DA:145,98
DA:146,98
DA:147,98
DA:148,98
DA:149,98
DA:150,98
DA:151,98
DA:152,98
DA:153,98
DA:154,108
BRF:0
BRH:0
LF:141
LH:91
end_of_record
SF:C:\Users\34404\Documents\GitHub\fireworks-collaboration\src-tauri\src\core\git\default_impl\branch.rs
FN:23,_RINvNtNtNtNtCscu9j8SGJFlb_27fireworks_collaboration_lib4core3git12default_impl6branch10git_branchNCNCNvMNtNtNtB8_5tasks12git_registry5localNtNtB1I_8registry12TaskRegistry21spawn_git_branch_task00EBa_
FN:43,_RNCINvNtNtNtNtCscu9j8SGJFlb_27fireworks_collaboration_lib4core3git12default_impl6branch10git_branchNCNCNvMNtNtNtBa_5tasks12git_registry5localNtNtB1K_8registry12TaskRegistry21spawn_git_branch_task00E0Bc_
FN:67,_RNCINvNtNtNtNtCscu9j8SGJFlb_27fireworks_collaboration_lib4core3git12default_impl6branch10git_branchNCNCNvMNtNtNtBa_5tasks12git_registry5localNtNtB1K_8registry12TaskRegistry21spawn_git_branch_task00Es0_0Bc_
FN:75,_RNCINvNtNtNtNtCscu9j8SGJFlb_27fireworks_collaboration_lib4core3git12default_impl6branch10git_branchNCNCNvMNtNtNtBa_5tasks12git_registry5localNtNtB1K_8registry12TaskRegistry21spawn_git_branch_task00Es1_0Bc_
FN:96,_RNCINvNtNtNtNtCscu9j8SGJFlb_27fireworks_collaboration_lib4core3git12default_impl6branch10git_branchNCNCNvMNtNtNtBa_5tasks12git_registry5localNtNtB1K_8registry12TaskRegistry21spawn_git_branch_task00Es2_0Bc_
FN:102,_RNCINvNtNtNtNtCscu9j8SGJFlb_27fireworks_collaboration_lib4core3git12default_impl6branch10git_branchNCNCNvMNtNtNtBa_5tasks12git_registry5localNtNtB1K_8registry12TaskRegistry21spawn_git_branch_task00Es3_0Bc_
FN:144,_RNCINvNtNtNtNtCscu9j8SGJFlb_27fireworks_collaboration_lib4core3git12default_impl6branch10git_branchNCNCNvMNtNtNtBa_5tasks12git_registry5localNtNtB1K_8registry12TaskRegistry21spawn_git_branch_task00Es4_0Bc_
FN:150,_RNCINvNtNtNtNtCscu9j8SGJFlb_27fireworks_collaboration_lib4core3git12default_impl6branch10git_branchNCNCNvMNtNtNtBa_5tasks12git_registry5localNtNtB1K_8registry12TaskRegistry21spawn_git_branch_task00Es5_0Bc_
FN:163,_RNCINvNtNtNtNtCscu9j8SGJFlb_27fireworks_collaboration_lib4core3git12default_impl6branch10git_branchNCNCNvMNtNtNtBa_5tasks12git_registry5localNtNtB1K_8registry12TaskRegistry21spawn_git_branch_task00Es6_0Bc_
FN:169,_RNCINvNtNtNtNtCscu9j8SGJFlb_27fireworks_collaboration_lib4core3git12default_impl6branch10git_branchNCNCNvMNtNtNtBa_5tasks12git_registry5localNtNtB1K_8registry12TaskRegistry21spawn_git_branch_task00Es7_0Bc_
FN:50,_RNCINvNtNtNtNtCscu9j8SGJFlb_27fireworks_collaboration_lib4core3git12default_impl6branch10git_branchNCNCNvMNtNtNtBa_5tasks12git_registry5localNtNtB1K_8registry12TaskRegistry21spawn_git_branch_task00Es_0Bc_
FN:23,_RINvNtNtNtNtCscu9j8SGJFlb_27fireworks_collaboration_lib4core3git12default_impl6branch10git_branchNCNvMNtNtCsgV7FHrbFFzv_8commands6common12repo_factoryNtB1C_11RepoBuilder5build0EB1G_
FN:43,_RNCINvNtNtNtNtCscu9j8SGJFlb_27fireworks_collaboration_lib4core3git12default_impl6branch10git_branchNCNvMNtNtCsgV7FHrbFFzv_8commands6common12repo_factoryNtB1E_11RepoBuilder5build0E0B1I_
FN:67,_RNCINvNtNtNtNtCscu9j8SGJFlb_27fireworks_collaboration_lib4core3git12default_impl6branch10git_branchNCNvMNtNtCsgV7FHrbFFzv_8commands6common12repo_factoryNtB1E_11RepoBuilder5build0Es0_0B1I_
FN:75,_RNCINvNtNtNtNtCscu9j8SGJFlb_27fireworks_collaboration_lib4core3git12default_impl6branch10git_branchNCNvMNtNtCsgV7FHrbFFzv_8commands6common12repo_factoryNtB1E_11RepoBuilder5build0Es1_0B1I_
FN:96,_RNCINvNtNtNtNtCscu9j8SGJFlb_27fireworks_collaboration_lib4core3git12default_impl6branch10git_branchNCNvMNtNtCsgV7FHrbFFzv_8commands6common12repo_factoryNtB1E_11RepoBuilder5build0Es2_0B1I_
FN:102,_RNCINvNtNtNtNtCscu9j8SGJFlb_27fireworks_collaboration_lib4core3git12default_impl6branch10git_branchNCNvMNtNtCsgV7FHrbFFzv_8commands6common12repo_factoryNtB1E_11RepoBuilder5build0Es3_0B1I_
FN:144,_RNCINvNtNtNtNtCscu9j8SGJFlb_27fireworks_collaboration_lib4core3git12default_impl6branch10git_branchNCNvMNtNtCsgV7FHrbFFzv_8commands6common12repo_factoryNtB1E_11RepoBuilder5build0Es4_0B1I_
FN:150,_RNCINvNtNtNtNtCscu9j8SGJFlb_27fireworks_collaboration_lib4core3git12default_impl6branch10git_branchNCNvMNtNtCsgV7FHrbFFzv_8commands6common12repo_factoryNtB1E_11RepoBuilder5build0Es5_0B1I_
FN:163,_RNCINvNtNtNtNtCscu9j8SGJFlb_27fireworks_collaboration_lib4core3git12default_impl6branch10git_branchNCNvMNtNtCsgV7FHrbFFzv_8commands6common12repo_factoryNtB1E_11RepoBuilder5build0Es6_0B1I_
FN:169,_RNCINvNtNtNtNtCscu9j8SGJFlb_27fireworks_collaboration_lib4core3git12default_impl6branch10git_branchNCNvMNtNtCsgV7FHrbFFzv_8commands6common12repo_factoryNtB1E_11RepoBuilder5build0Es7_0B1I_
FN:50,_RNCINvNtNtNtNtCscu9j8SGJFlb_27fireworks_collaboration_lib4core3git12default_impl6branch10git_branchNCNvMNtNtCsgV7FHrbFFzv_8commands6common12repo_factoryNtB1E_11RepoBuilder5build0Es_0B1I_
FN:23,_RINvNtNtNtNtCscu9j8SGJFlb_27fireworks_collaboration_lib4core3git12default_impl6branch10git_branchNCNvMNtNtCs6dua4rg4Ovk_3e2e6common12repo_factoryNtB1C_11RepoBuilder5build0EB1G_
FN:43,_RNCINvNtNtNtNtCscu9j8SGJFlb_27fireworks_collaboration_lib4core3git12default_impl6branch10git_branchNCNvMNtNtCs6dua4rg4Ovk_3e2e6common12repo_factoryNtB1E_11RepoBuilder5build0E0B1I_
FN:67,_RNCINvNtNtNtNtCscu9j8SGJFlb_27fireworks_collaboration_lib4core3git12default_impl6branch10git_branchNCNvMNtNtCs6dua4rg4Ovk_3e2e6common12repo_factoryNtB1E_11RepoBuilder5build0Es0_0B1I_
FN:75,_RNCINvNtNtNtNtCscu9j8SGJFlb_27fireworks_collaboration_lib4core3git12default_impl6branch10git_branchNCNvMNtNtCs6dua4rg4Ovk_3e2e6common12repo_factoryNtB1E_11RepoBuilder5build0Es1_0B1I_
FN:96,_RNCINvNtNtNtNtCscu9j8SGJFlb_27fireworks_collaboration_lib4core3git12default_impl6branch10git_branchNCNvMNtNtCs6dua4rg4Ovk_3e2e6common12repo_factoryNtB1E_11RepoBuilder5build0Es2_0B1I_
FN:102,_RNCINvNtNtNtNtCscu9j8SGJFlb_27fireworks_collaboration_lib4core3git12default_impl6branch10git_branchNCNvMNtNtCs6dua4rg4Ovk_3e2e6common12repo_factoryNtB1E_11RepoBuilder5build0Es3_0B1I_
FN:144,_RNCINvNtNtNtNtCscu9j8SGJFlb_27fireworks_collaboration_lib4core3git12default_impl6branch10git_branchNCNvMNtNtCs6dua4rg4Ovk_3e2e6common12repo_factoryNtB1E_11RepoBuilder5build0Es4_0B1I_
FN:150,_RNCINvNtNtNtNtCscu9j8SGJFlb_27fireworks_collaboration_lib4core3git12default_impl6branch10git_branchNCNvMNtNtCs6dua4rg4Ovk_3e2e6common12repo_factoryNtB1E_11RepoBuilder5build0Es5_0B1I_
FN:163,_RNCINvNtNtNtNtCscu9j8SGJFlb_27fireworks_collaboration_lib4core3git12default_impl6branch10git_branchNCNvMNtNtCs6dua4rg4Ovk_3e2e6common12repo_factoryNtB1E_11RepoBuilder5build0Es6_0B1I_
FN:169,_RNCINvNtNtNtNtCscu9j8SGJFlb_27fireworks_collaboration_lib4core3git12default_impl6branch10git_branchNCNvMNtNtCs6dua4rg4Ovk_3e2e6common12repo_factoryNtB1E_11RepoBuilder5build0Es7_0B1I_
FN:50,_RNCINvNtNtNtNtCscu9j8SGJFlb_27fireworks_collaboration_lib4core3git12default_impl6branch10git_branchNCNvMNtNtCs6dua4rg4Ovk_3e2e6common12repo_factoryNtB1E_11RepoBuilder5build0Es_0B1I_
FN:23,_RINvNtNtNtNtCscu9j8SGJFlb_27fireworks_collaboration_lib4core3git12default_impl6branch10git_branchNCNvMNtNtCs5NYoXysI8dX_6events6common12repo_factoryNtB1C_11RepoBuilder5build0EB1G_
FN:43,_RNCINvNtNtNtNtCscu9j8SGJFlb_27fireworks_collaboration_lib4core3git12default_impl6branch10git_branchNCNvMNtNtCs5NYoXysI8dX_6events6common12repo_factoryNtB1E_11RepoBuilder5build0E0B1I_
FN:67,_RNCINvNtNtNtNtCscu9j8SGJFlb_27fireworks_collaboration_lib4core3git12default_impl6branch10git_branchNCNvMNtNtCs5NYoXysI8dX_6events6common12repo_factoryNtB1E_11RepoBuilder5build0Es0_0B1I_
FN:75,_RNCINvNtNtNtNtCscu9j8SGJFlb_27fireworks_collaboration_lib4core3git12default_impl6branch10git_branchNCNvMNtNtCs5NYoXysI8dX_6events6common12repo_factoryNtB1E_11RepoBuilder5build0Es1_0B1I_
FN:96,_RNCINvNtNtNtNtCscu9j8SGJFlb_27fireworks_collaboration_lib4core3git12default_impl6branch10git_branchNCNvMNtNtCs5NYoXysI8dX_6events6common12repo_factoryNtB1E_11RepoBuilder5build0Es2_0B1I_
FN:102,_RNCINvNtNtNtNtCscu9j8SGJFlb_27fireworks_collaboration_lib4core3git12default_impl6branch10git_branchNCNvMNtNtCs5NYoXysI8dX_6events6common12repo_factoryNtB1E_11RepoBuilder5build0Es3_0B1I_
FN:144,_RNCINvNtNtNtNtCscu9j8SGJFlb_27fireworks_collaboration_lib4core3git12default_impl6branch10git_branchNCNvMNtNtCs5NYoXysI8dX_6events6common12repo_factoryNtB1E_11RepoBuilder5build0Es4_0B1I_
FN:150,_RNCINvNtNtNtNtCscu9j8SGJFlb_27fireworks_collaboration_lib4core3git12default_impl6branch10git_branchNCNvMNtNtCs5NYoXysI8dX_6events6common12repo_factoryNtB1E_11RepoBuilder5build0Es5_0B1I_
FN:163,_RNCINvNtNtNtNtCscu9j8SGJFlb_27fireworks_collaboration_lib4core3git12default_impl6branch10git_branchNCNvMNtNtCs5NYoXysI8dX_6events6common12repo_factoryNtB1E_11RepoBuilder5build0Es6_0B1I_
FN:169,_RNCINvNtNtNtNtCscu9j8SGJFlb_27fireworks_collaboration_lib4core3git12default_impl6branch10git_branchNCNvMNtNtCs5NYoXysI8dX_6events6common12repo_factoryNtB1E_11RepoBuilder5build0Es7_0B1I_
FN:50,_RNCINvNtNtNtNtCscu9j8SGJFlb_27fireworks_collaboration_lib4core3git12default_impl6branch10git_branchNCNvMNtNtCs5NYoXysI8dX_6events6common12repo_factoryNtB1E_11RepoBuilder5build0Es_0B1I_
FN:23,_RINvNtNtNtNtCsfvgE7hV3dwJ_27fireworks_collaboration_lib4core3git12default_impl6branch10git_branchpEBa_
FN:43,_RNCINvNtNtNtNtCsfvgE7hV3dwJ_27fireworks_collaboration_lib4core3git12default_impl6branch10git_branchpE0Bc_
FN:67,_RNCINvNtNtNtNtCsfvgE7hV3dwJ_27fireworks_collaboration_lib4core3git12default_impl6branch10git_branchpEs0_0Bc_
FN:75,_RNCINvNtNtNtNtCsfvgE7hV3dwJ_27fireworks_collaboration_lib4core3git12default_impl6branch10git_branchpEs1_0Bc_
FN:96,_RNCINvNtNtNtNtCsfvgE7hV3dwJ_27fireworks_collaboration_lib4core3git12default_impl6branch10git_branchpEs2_0Bc_
FN:102,_RNCINvNtNtNtNtCsfvgE7hV3dwJ_27fireworks_collaboration_lib4core3git12default_impl6branch10git_branchpEs3_0Bc_
FN:144,_RNCINvNtNtNtNtCsfvgE7hV3dwJ_27fireworks_collaboration_lib4core3git12default_impl6branch10git_branchpEs4_0Bc_
FN:150,_RNCINvNtNtNtNtCsfvgE7hV3dwJ_27fireworks_collaboration_lib4core3git12default_impl6branch10git_branchpEs5_0Bc_
FN:163,_RNCINvNtNtNtNtCsfvgE7hV3dwJ_27fireworks_collaboration_lib4core3git12default_impl6branch10git_branchpEs6_0Bc_
FN:169,_RNCINvNtNtNtNtCsfvgE7hV3dwJ_27fireworks_collaboration_lib4core3git12default_impl6branch10git_branchpEs7_0Bc_
FN:50,_RNCINvNtNtNtNtCsfvgE7hV3dwJ_27fireworks_collaboration_lib4core3git12default_impl6branch10git_branchpEs_0Bc_
FN:23,_RINvNtNtNtNtCscu9j8SGJFlb_27fireworks_collaboration_lib4core3git12default_impl6branch10git_branchNCNvMNtNtCsgvyBa5thnhP_3git6common12repo_factoryNtB1C_11RepoBuilder5build0EB1G_
FN:23,_RINvNtNtNtNtCscu9j8SGJFlb_27fireworks_collaboration_lib4core3git12default_impl6branch10git_branchNCNvMNtNtNtCsgvyBa5thnhP_3git9submodule6common12repo_factoryNtB1C_11RepoBuilder5build0EB1I_
FN:23,_RINvNtNtNtNtCscu9j8SGJFlb_27fireworks_collaboration_lib4core3git12default_impl6branch10git_branchNCNvNtNtCsgvyBa5thnhP_3git23git_branch_and_checkout21section_branch_creates_39branch_valid_and_checkout_and_duplicate0EB1F_
FN:23,_RINvNtNtNtNtCscu9j8SGJFlb_27fireworks_collaboration_lib4core3git12default_impl6branch10git_branchNCNvNtNtCsgvyBa5thnhP_3git23git_branch_and_checkout22section_checkout_basics_32checkout_cancel_during_operation0EB1F_
FN:23,_RINvNtNtNtNtCscu9j8SGJFlb_27fireworks_collaboration_lib4core3git12default_impl6branch10git_branchNCNvNtNtNtCsgvyBa5thnhP_3git23git_branch_and_checkout21section_branch_create7helpers9branch_op0EB1H_
FN:43,_RNCINvNtNtNtNtCscu9j8SGJFlb_27fireworks_collaboration_lib4core3git12default_impl6branch10git_branchNCNvMNtNtCsgvyBa5thnhP_3git6common12repo_factoryNtB1E_11RepoBuilder5build0E0B1I_
FN:67,_RNCINvNtNtNtNtCscu9j8SGJFlb_27fireworks_collaboration_lib4core3git12default_impl6branch10git_branchNCNvMNtNtCsgvyBa5thnhP_3git6common12repo_factoryNtB1E_11RepoBuilder5build0Es0_0B1I_
FN:75,_RNCINvNtNtNtNtCscu9j8SGJFlb_27fireworks_collaboration_lib4core3git12default_impl6branch10git_branchNCNvMNtNtCsgvyBa5thnhP_3git6common12repo_factoryNtB1E_11RepoBuilder5build0Es1_0B1I_
FN:96,_RNCINvNtNtNtNtCscu9j8SGJFlb_27fireworks_collaboration_lib4core3git12default_impl6branch10git_branchNCNvMNtNtCsgvyBa5thnhP_3git6common12repo_factoryNtB1E_11RepoBuilder5build0Es2_0B1I_
FN:102,_RNCINvNtNtNtNtCscu9j8SGJFlb_27fireworks_collaboration_lib4core3git12default_impl6branch10git_branchNCNvMNtNtCsgvyBa5thnhP_3git6common12repo_factoryNtB1E_11RepoBuilder5build0Es3_0B1I_
FN:144,_RNCINvNtNtNtNtCscu9j8SGJFlb_27fireworks_collaboration_lib4core3git12default_impl6branch10git_branchNCNvMNtNtCsgvyBa5thnhP_3git6common12repo_factoryNtB1E_11RepoBuilder5build0Es4_0B1I_
FN:150,_RNCINvNtNtNtNtCscu9j8SGJFlb_27fireworks_collaboration_lib4core3git12default_impl6branch10git_branchNCNvMNtNtCsgvyBa5thnhP_3git6common12repo_factoryNtB1E_11RepoBuilder5build0Es5_0B1I_
FN:163,_RNCINvNtNtNtNtCscu9j8SGJFlb_27fireworks_collaboration_lib4core3git12default_impl6branch10git_branchNCNvMNtNtCsgvyBa5thnhP_3git6common12repo_factoryNtB1E_11RepoBuilder5build0Es6_0B1I_
FN:169,_RNCINvNtNtNtNtCscu9j8SGJFlb_27fireworks_collaboration_lib4core3git12default_impl6branch10git_branchNCNvMNtNtCsgvyBa5thnhP_3git6common12repo_factoryNtB1E_11RepoBuilder5build0Es7_0B1I_
FN:50,_RNCINvNtNtNtNtCscu9j8SGJFlb_27fireworks_collaboration_lib4core3git12default_impl6branch10git_branchNCNvMNtNtCsgvyBa5thnhP_3git6common12repo_factoryNtB1E_11RepoBuilder5build0Es_0B1I_
FN:43,_RNCINvNtNtNtNtCscu9j8SGJFlb_27fireworks_collaboration_lib4core3git12default_impl6branch10git_branchNCNvMNtNtNtCsgvyBa5thnhP_3git9submodule6common12repo_factoryNtB1E_11RepoBuilder5build0E0B1K_
FN:67,_RNCINvNtNtNtNtCscu9j8SGJFlb_27fireworks_collaboration_lib4core3git12default_impl6branch10git_branchNCNvMNtNtNtCsgvyBa5thnhP_3git9submodule6common12repo_factoryNtB1E_11RepoBuilder5build0Es0_0B1K_
FN:75,_RNCINvNtNtNtNtCscu9j8SGJFlb_27fireworks_collaboration_lib4core3git12default_impl6branch10git_branchNCNvMNtNtNtCsgvyBa5thnhP_3git9submodule6common12repo_factoryNtB1E_11RepoBuilder5build0Es1_0B1K_
FN:96,_RNCINvNtNtNtNtCscu9j8SGJFlb_27fireworks_collaboration_lib4core3git12default_impl6branch10git_branchNCNvMNtNtNtCsgvyBa5thnhP_3git9submodule6common12repo_factoryNtB1E_11RepoBuilder5build0Es2_0B1K_
FN:102,_RNCINvNtNtNtNtCscu9j8SGJFlb_27fireworks_collaboration_lib4core3git12default_impl6branch10git_branchNCNvMNtNtNtCsgvyBa5thnhP_3git9submodule6common12repo_factoryNtB1E_11RepoBuilder5build0Es3_0B1K_
FN:144,_RNCINvNtNtNtNtCscu9j8SGJFlb_27fireworks_collaboration_lib4core3git12default_impl6branch10git_branchNCNvMNtNtNtCsgvyBa5thnhP_3git9submodule6common12repo_factoryNtB1E_11RepoBuilder5build0Es4_0B1K_
FN:150,_RNCINvNtNtNtNtCscu9j8SGJFlb_27fireworks_collaboration_lib4core3git12default_impl6branch10git_branchNCNvMNtNtNtCsgvyBa5thnhP_3git9submodule6common12repo_factoryNtB1E_11RepoBuilder5build0Es5_0B1K_
FN:163,_RNCINvNtNtNtNtCscu9j8SGJFlb_27fireworks_collaboration_lib4core3git12default_impl6branch10git_branchNCNvMNtNtNtCsgvyBa5thnhP_3git9submodule6common12repo_factoryNtB1E_11RepoBuilder5build0Es6_0B1K_
FN:169,_RNCINvNtNtNtNtCscu9j8SGJFlb_27fireworks_collaboration_lib4core3git12default_impl6branch10git_branchNCNvMNtNtNtCsgvyBa5thnhP_3git9submodule6common12repo_factoryNtB1E_11RepoBuilder5build0Es7_0B1K_
FN:50,_RNCINvNtNtNtNtCscu9j8SGJFlb_27fireworks_collaboration_lib4core3git12default_impl6branch10git_branchNCNvMNtNtNtCsgvyBa5thnhP_3git9submodule6common12repo_factoryNtB1E_11RepoBuilder5build0Es_0B1K_
FN:43,_RNCINvNtNtNtNtCscu9j8SGJFlb_27fireworks_collaboration_lib4core3git12default_impl6branch10git_branchNCNvNtNtCsgvyBa5thnhP_3git23git_branch_and_checkout21section_branch_creates_39branch_valid_and_checkout_and_duplicate0E0B1H_
FN:67,_RNCINvNtNtNtNtCscu9j8SGJFlb_27fireworks_collaboration_lib4core3git12default_impl6branch10git_branchNCNvNtNtCsgvyBa5thnhP_3git23git_branch_and_checkout21section_branch_creates_39branch_valid_and_checkout_and_duplicate0Es0_0B1H_
FN:75,_RNCINvNtNtNtNtCscu9j8SGJFlb_27fireworks_collaboration_lib4core3git12default_impl6branch10git_branchNCNvNtNtCsgvyBa5thnhP_3git23git_branch_and_checkout21section_branch_creates_39branch_valid_and_checkout_and_duplicate0Es1_0B1H_
FN:96,_RNCINvNtNtNtNtCscu9j8SGJFlb_27fireworks_collaboration_lib4core3git12default_impl6branch10git_branchNCNvNtNtCsgvyBa5thnhP_3git23git_branch_and_checkout21section_branch_creates_39branch_valid_and_checkout_and_duplicate0Es2_0B1H_
FN:102,_RNCINvNtNtNtNtCscu9j8SGJFlb_27fireworks_collaboration_lib4core3git12default_impl6branch10git_branchNCNvNtNtCsgvyBa5thnhP_3git23git_branch_and_checkout21section_branch_creates_39branch_valid_and_checkout_and_duplicate0Es3_0B1H_
FN:144,_RNCINvNtNtNtNtCscu9j8SGJFlb_27fireworks_collaboration_lib4core3git12default_impl6branch10git_branchNCNvNtNtCsgvyBa5thnhP_3git23git_branch_and_checkout21section_branch_creates_39branch_valid_and_checkout_and_duplicate0Es4_0B1H_
FN:150,_RNCINvNtNtNtNtCscu9j8SGJFlb_27fireworks_collaboration_lib4core3git12default_impl6branch10git_branchNCNvNtNtCsgvyBa5thnhP_3git23git_branch_and_checkout21section_branch_creates_39branch_valid_and_checkout_and_duplicate0Es5_0B1H_
FN:163,_RNCINvNtNtNtNtCscu9j8SGJFlb_27fireworks_collaboration_lib4core3git12default_impl6branch10git_branchNCNvNtNtCsgvyBa5thnhP_3git23git_branch_and_checkout21section_branch_creates_39branch_valid_and_checkout_and_duplicate0Es6_0B1H_
FN:169,_RNCINvNtNtNtNtCscu9j8SGJFlb_27fireworks_collaboration_lib4core3git12default_impl6branch10git_branchNCNvNtNtCsgvyBa5thnhP_3git23git_branch_and_checkout21section_branch_creates_39branch_valid_and_checkout_and_duplicate0Es7_0B1H_
FN:50,_RNCINvNtNtNtNtCscu9j8SGJFlb_27fireworks_collaboration_lib4core3git12default_impl6branch10git_branchNCNvNtNtCsgvyBa5thnhP_3git23git_branch_and_checkout21section_branch_creates_39branch_valid_and_checkout_and_duplicate0Es_0B1H_
FN:43,_RNCINvNtNtNtNtCscu9j8SGJFlb_27fireworks_collaboration_lib4core3git12default_impl6branch10git_branchNCNvNtNtCsgvyBa5thnhP_3git23git_branch_and_checkout22section_checkout_basics_32checkout_cancel_during_operation0E0B1H_
FN:67,_RNCINvNtNtNtNtCscu9j8SGJFlb_27fireworks_collaboration_lib4core3git12default_impl6branch10git_branchNCNvNtNtCsgvyBa5thnhP_3git23git_branch_and_checkout22section_checkout_basics_32checkout_cancel_during_operation0Es0_0B1H_
FN:75,_RNCINvNtNtNtNtCscu9j8SGJFlb_27fireworks_collaboration_lib4core3git12default_impl6branch10git_branchNCNvNtNtCsgvyBa5thnhP_3git23git_branch_and_checkout22section_checkout_basics_32checkout_cancel_during_operation0Es1_0B1H_
FN:96,_RNCINvNtNtNtNtCscu9j8SGJFlb_27fireworks_collaboration_lib4core3git12default_impl6branch10git_branchNCNvNtNtCsgvyBa5thnhP_3git23git_branch_and_checkout22section_checkout_basics_32checkout_cancel_during_operation0Es2_0B1H_
FN:102,_RNCINvNtNtNtNtCscu9j8SGJFlb_27fireworks_collaboration_lib4core3git12default_impl6branch10git_branchNCNvNtNtCsgvyBa5thnhP_3git23git_branch_and_checkout22section_checkout_basics_32checkout_cancel_during_operation0Es3_0B1H_
FN:144,_RNCINvNtNtNtNtCscu9j8SGJFlb_27fireworks_collaboration_lib4core3git12default_impl6branch10git_branchNCNvNtNtCsgvyBa5thnhP_3git23git_branch_and_checkout22section_checkout_basics_32checkout_cancel_during_operation0Es4_0B1H_
FN:150,_RNCINvNtNtNtNtCscu9j8SGJFlb_27fireworks_collaboration_lib4core3git12default_impl6branch10git_branchNCNvNtNtCsgvyBa5thnhP_3git23git_branch_and_checkout22section_checkout_basics_32checkout_cancel_during_operation0Es5_0B1H_
FN:163,_RNCINvNtNtNtNtCscu9j8SGJFlb_27fireworks_collaboration_lib4core3git12default_impl6branch10git_branchNCNvNtNtCsgvyBa5thnhP_3git23git_branch_and_checkout22section_checkout_basics_32checkout_cancel_during_operation0Es6_0B1H_
FN:169,_RNCINvNtNtNtNtCscu9j8SGJFlb_27fireworks_collaboration_lib4core3git12default_impl6branch10git_branchNCNvNtNtCsgvyBa5thnhP_3git23git_branch_and_checkout22section_checkout_basics_32checkout_cancel_during_operation0Es7_0B1H_
FN:50,_RNCINvNtNtNtNtCscu9j8SGJFlb_27fireworks_collaboration_lib4core3git12default_impl6branch10git_branchNCNvNtNtCsgvyBa5thnhP_3git23git_branch_and_checkout22section_checkout_basics_32checkout_cancel_during_operation0Es_0B1H_
FN:43,_RNCINvNtNtNtNtCscu9j8SGJFlb_27fireworks_collaboration_lib4core3git12default_impl6branch10git_branchNCNvNtNtNtCsgvyBa5thnhP_3git23git_branch_and_checkout21section_branch_create7helpers9branch_op0E0B1J_
FN:67,_RNCINvNtNtNtNtCscu9j8SGJFlb_27fireworks_collaboration_lib4core3git12default_impl6branch10git_branchNCNvNtNtNtCsgvyBa5thnhP_3git23git_branch_and_checkout21section_branch_create7helpers9branch_op0Es0_0B1J_
FN:75,_RNCINvNtNtNtNtCscu9j8SGJFlb_27fireworks_collaboration_lib4core3git12default_impl6branch10git_branchNCNvNtNtNtCsgvyBa5thnhP_3git23git_branch_and_checkout21section_branch_create7helpers9branch_op0Es1_0B1J_
FN:96,_RNCINvNtNtNtNtCscu9j8SGJFlb_27fireworks_collaboration_lib4core3git12default_impl6branch10git_branchNCNvNtNtNtCsgvyBa5thnhP_3git23git_branch_and_checkout21section_branch_create7helpers9branch_op0Es2_0B1J_
FN:102,_RNCINvNtNtNtNtCscu9j8SGJFlb_27fireworks_collaboration_lib4core3git12default_impl6branch10git_branchNCNvNtNtNtCsgvyBa5thnhP_3git23git_branch_and_checkout21section_branch_create7helpers9branch_op0Es3_0B1J_
FN:144,_RNCINvNtNtNtNtCscu9j8SGJFlb_27fireworks_collaboration_lib4core3git12default_impl6branch10git_branchNCNvNtNtNtCsgvyBa5thnhP_3git23git_branch_and_checkout21section_branch_create7helpers9branch_op0Es4_0B1J_
FN:150,_RNCINvNtNtNtNtCscu9j8SGJFlb_27fireworks_collaboration_lib4core3git12default_impl6branch10git_branchNCNvNtNtNtCsgvyBa5thnhP_3git23git_branch_and_checkout21section_branch_create7helpers9branch_op0Es5_0B1J_
FN:163,_RNCINvNtNtNtNtCscu9j8SGJFlb_27fireworks_collaboration_lib4core3git12default_impl6branch10git_branchNCNvNtNtNtCsgvyBa5thnhP_3git23git_branch_and_checkout21section_branch_create7helpers9branch_op0Es6_0B1J_
FN:169,_RNCINvNtNtNtNtCscu9j8SGJFlb_27fireworks_collaboration_lib4core3git12default_impl6branch10git_branchNCNvNtNtNtCsgvyBa5thnhP_3git23git_branch_and_checkout21section_branch_create7helpers9branch_op0Es7_0B1J_
FN:50,_RNCINvNtNtNtNtCscu9j8SGJFlb_27fireworks_collaboration_lib4core3git12default_impl6branch10git_branchNCNvNtNtNtCsgvyBa5thnhP_3git23git_branch_and_checkout21section_branch_create7helpers9branch_op0Es_0B1J_
FN:23,_RINvNtNtNtNtCscu9j8SGJFlb_27fireworks_collaboration_lib4core3git12default_impl6branch10git_branchNCNvMNtNtCs7iVILGxhzfA_5proxy6common12repo_factoryNtB1C_11RepoBuilder5build0EB1G_
FN:43,_RNCINvNtNtNtNtCscu9j8SGJFlb_27fireworks_collaboration_lib4core3git12default_impl6branch10git_branchNCNvMNtNtCs7iVILGxhzfA_5proxy6common12repo_factoryNtB1E_11RepoBuilder5build0E0B1I_
FN:67,_RNCINvNtNtNtNtCscu9j8SGJFlb_27fireworks_collaboration_lib4core3git12default_impl6branch10git_branchNCNvMNtNtCs7iVILGxhzfA_5proxy6common12repo_factoryNtB1E_11RepoBuilder5build0Es0_0B1I_
FN:75,_RNCINvNtNtNtNtCscu9j8SGJFlb_27fireworks_collaboration_lib4core3git12default_impl6branch10git_branchNCNvMNtNtCs7iVILGxhzfA_5proxy6common12repo_factoryNtB1E_11RepoBuilder5build0Es1_0B1I_
FN:96,_RNCINvNtNtNtNtCscu9j8SGJFlb_27fireworks_collaboration_lib4core3git12default_impl6branch10git_branchNCNvMNtNtCs7iVILGxhzfA_5proxy6common12repo_factoryNtB1E_11RepoBuilder5build0Es2_0B1I_
FN:102,_RNCINvNtNtNtNtCscu9j8SGJFlb_27fireworks_collaboration_lib4core3git12default_impl6branch10git_branchNCNvMNtNtCs7iVILGxhzfA_5proxy6common12repo_factoryNtB1E_11RepoBuilder5build0Es3_0B1I_
FN:144,_RNCINvNtNtNtNtCscu9j8SGJFlb_27fireworks_collaboration_lib4core3git12default_impl6branch10git_branchNCNvMNtNtCs7iVILGxhzfA_5proxy6common12repo_factoryNtB1E_11RepoBuilder5build0Es4_0B1I_
FN:150,_RNCINvNtNtNtNtCscu9j8SGJFlb_27fireworks_collaboration_lib4core3git12default_impl6branch10git_branchNCNvMNtNtCs7iVILGxhzfA_5proxy6common12repo_factoryNtB1E_11RepoBuilder5build0Es5_0B1I_
FN:163,_RNCINvNtNtNtNtCscu9j8SGJFlb_27fireworks_collaboration_lib4core3git12default_impl6branch10git_branchNCNvMNtNtCs7iVILGxhzfA_5proxy6common12repo_factoryNtB1E_11RepoBuilder5build0Es6_0B1I_
FN:169,_RNCINvNtNtNtNtCscu9j8SGJFlb_27fireworks_collaboration_lib4core3git12default_impl6branch10git_branchNCNvMNtNtCs7iVILGxhzfA_5proxy6common12repo_factoryNtB1E_11RepoBuilder5build0Es7_0B1I_
FN:50,_RNCINvNtNtNtNtCscu9j8SGJFlb_27fireworks_collaboration_lib4core3git12default_impl6branch10git_branchNCNvMNtNtCs7iVILGxhzfA_5proxy6common12repo_factoryNtB1E_11RepoBuilder5build0Es_0B1I_
FN:23,_RINvNtNtNtNtCscu9j8SGJFlb_27fireworks_collaboration_lib4core3git12default_impl6branch10git_branchNCNvMNtNtCsg9T22JMUfCw_7quality6common12repo_factoryNtB1C_11RepoBuilder5build0EB1G_
FN:43,_RNCINvNtNtNtNtCscu9j8SGJFlb_27fireworks_collaboration_lib4core3git12default_impl6branch10git_branchNCNvMNtNtCsg9T22JMUfCw_7quality6common12repo_factoryNtB1E_11RepoBuilder5build0E0B1I_
FN:67,_RNCINvNtNtNtNtCscu9j8SGJFlb_27fireworks_collaboration_lib4core3git12default_impl6branch10git_branchNCNvMNtNtCsg9T22JMUfCw_7quality6common12repo_factoryNtB1E_11RepoBuilder5build0Es0_0B1I_
FN:75,_RNCINvNtNtNtNtCscu9j8SGJFlb_27fireworks_collaboration_lib4core3git12default_impl6branch10git_branchNCNvMNtNtCsg9T22JMUfCw_7quality6common12repo_factoryNtB1E_11RepoBuilder5build0Es1_0B1I_
FN:96,_RNCINvNtNtNtNtCscu9j8SGJFlb_27fireworks_collaboration_lib4core3git12default_impl6branch10git_branchNCNvMNtNtCsg9T22JMUfCw_7quality6common12repo_factoryNtB1E_11RepoBuilder5build0Es2_0B1I_
FN:102,_RNCINvNtNtNtNtCscu9j8SGJFlb_27fireworks_collaboration_lib4core3git12default_impl6branch10git_branchNCNvMNtNtCsg9T22JMUfCw_7quality6common12repo_factoryNtB1E_11RepoBuilder5build0Es3_0B1I_
FN:144,_RNCINvNtNtNtNtCscu9j8SGJFlb_27fireworks_collaboration_lib4core3git12default_impl6branch10git_branchNCNvMNtNtCsg9T22JMUfCw_7quality6common12repo_factoryNtB1E_11RepoBuilder5build0Es4_0B1I_
FN:150,_RNCINvNtNtNtNtCscu9j8SGJFlb_27fireworks_collaboration_lib4core3git12default_impl6branch10git_branchNCNvMNtNtCsg9T22JMUfCw_7quality6common12repo_factoryNtB1E_11RepoBuilder5build0Es5_0B1I_
FN:163,_RNCINvNtNtNtNtCscu9j8SGJFlb_27fireworks_collaboration_lib4core3git12default_impl6branch10git_branchNCNvMNtNtCsg9T22JMUfCw_7quality6common12repo_factoryNtB1E_11RepoBuilder5build0Es6_0B1I_
FN:169,_RNCINvNtNtNtNtCscu9j8SGJFlb_27fireworks_collaboration_lib4core3git12default_impl6branch10git_branchNCNvMNtNtCsg9T22JMUfCw_7quality6common12repo_factoryNtB1E_11RepoBuilder5build0Es7_0B1I_
FN:50,_RNCINvNtNtNtNtCscu9j8SGJFlb_27fireworks_collaboration_lib4core3git12default_impl6branch10git_branchNCNvMNtNtCsg9T22JMUfCw_7quality6common12repo_factoryNtB1E_11RepoBuilder5build0Es_0B1I_
FN:23,_RINvNtNtNtNtCscu9j8SGJFlb_27fireworks_collaboration_lib4core3git12default_impl6branch10git_branchNCNvMNtNtCs5bjiTMnK4Rn_9submodule6common12repo_factoryNtB1C_11RepoBuilder5build0EB1G_
FN:43,_RNCINvNtNtNtNtCscu9j8SGJFlb_27fireworks_collaboration_lib4core3git12default_impl6branch10git_branchNCNvMNtNtCs5bjiTMnK4Rn_9submodule6common12repo_factoryNtB1E_11RepoBuilder5build0E0B1I_
FN:67,_RNCINvNtNtNtNtCscu9j8SGJFlb_27fireworks_collaboration_lib4core3git12default_impl6branch10git_branchNCNvMNtNtCs5bjiTMnK4Rn_9submodule6common12repo_factoryNtB1E_11RepoBuilder5build0Es0_0B1I_
FN:75,_RNCINvNtNtNtNtCscu9j8SGJFlb_27fireworks_collaboration_lib4core3git12default_impl6branch10git_branchNCNvMNtNtCs5bjiTMnK4Rn_9submodule6common12repo_factoryNtB1E_11RepoBuilder5build0Es1_0B1I_
FN:96,_RNCINvNtNtNtNtCscu9j8SGJFlb_27fireworks_collaboration_lib4core3git12default_impl6branch10git_branchNCNvMNtNtCs5bjiTMnK4Rn_9submodule6common12repo_factoryNtB1E_11RepoBuilder5build0Es2_0B1I_
FN:102,_RNCINvNtNtNtNtCscu9j8SGJFlb_27fireworks_collaboration_lib4core3git12default_impl6branch10git_branchNCNvMNtNtCs5bjiTMnK4Rn_9submodule6common12repo_factoryNtB1E_11RepoBuilder5build0Es3_0B1I_
FN:144,_RNCINvNtNtNtNtCscu9j8SGJFlb_27fireworks_collaboration_lib4core3git12default_impl6branch10git_branchNCNvMNtNtCs5bjiTMnK4Rn_9submodule6common12repo_factoryNtB1E_11RepoBuilder5build0Es4_0B1I_
FN:150,_RNCINvNtNtNtNtCscu9j8SGJFlb_27fireworks_collaboration_lib4core3git12default_impl6branch10git_branchNCNvMNtNtCs5bjiTMnK4Rn_9submodule6common12repo_factoryNtB1E_11RepoBuilder5build0Es5_0B1I_
FN:163,_RNCINvNtNtNtNtCscu9j8SGJFlb_27fireworks_collaboration_lib4core3git12default_impl6branch10git_branchNCNvMNtNtCs5bjiTMnK4Rn_9submodule6common12repo_factoryNtB1E_11RepoBuilder5build0Es6_0B1I_
FN:169,_RNCINvNtNtNtNtCscu9j8SGJFlb_27fireworks_collaboration_lib4core3git12default_impl6branch10git_branchNCNvMNtNtCs5bjiTMnK4Rn_9submodule6common12repo_factoryNtB1E_11RepoBuilder5build0Es7_0B1I_
FN:50,_RNCINvNtNtNtNtCscu9j8SGJFlb_27fireworks_collaboration_lib4core3git12default_impl6branch10git_branchNCNvMNtNtCs5bjiTMnK4Rn_9submodule6common12repo_factoryNtB1E_11RepoBuilder5build0Es_0B1I_
FN:23,_RINvNtNtNtNtCscu9j8SGJFlb_27fireworks_collaboration_lib4core3git12default_impl6branch10git_branchNCNvMNtNtCse2afPLa6SGs_5tasks6common12repo_factoryNtB1C_11RepoBuilder5build0EB1G_
FN:43,_RNCINvNtNtNtNtCscu9j8SGJFlb_27fireworks_collaboration_lib4core3git12default_impl6branch10git_branchNCNvMNtNtCse2afPLa6SGs_5tasks6common12repo_factoryNtB1E_11RepoBuilder5build0E0B1I_
FN:67,_RNCINvNtNtNtNtCscu9j8SGJFlb_27fireworks_collaboration_lib4core3git12default_impl6branch10git_branchNCNvMNtNtCse2afPLa6SGs_5tasks6common12repo_factoryNtB1E_11RepoBuilder5build0Es0_0B1I_
FN:75,_RNCINvNtNtNtNtCscu9j8SGJFlb_27fireworks_collaboration_lib4core3git12default_impl6branch10git_branchNCNvMNtNtCse2afPLa6SGs_5tasks6common12repo_factoryNtB1E_11RepoBuilder5build0Es1_0B1I_
FN:96,_RNCINvNtNtNtNtCscu9j8SGJFlb_27fireworks_collaboration_lib4core3git12default_impl6branch10git_branchNCNvMNtNtCse2afPLa6SGs_5tasks6common12repo_factoryNtB1E_11RepoBuilder5build0Es2_0B1I_
FN:102,_RNCINvNtNtNtNtCscu9j8SGJFlb_27fireworks_collaboration_lib4core3git12default_impl6branch10git_branchNCNvMNtNtCse2afPLa6SGs_5tasks6common12repo_factoryNtB1E_11RepoBuilder5build0Es3_0B1I_
FN:144,_RNCINvNtNtNtNtCscu9j8SGJFlb_27fireworks_collaboration_lib4core3git12default_impl6branch10git_branchNCNvMNtNtCse2afPLa6SGs_5tasks6common12repo_factoryNtB1E_11RepoBuilder5build0Es4_0B1I_
FN:150,_RNCINvNtNtNtNtCscu9j8SGJFlb_27fireworks_collaboration_lib4core3git12default_impl6branch10git_branchNCNvMNtNtCse2afPLa6SGs_5tasks6common12repo_factoryNtB1E_11RepoBuilder5build0Es5_0B1I_
FN:163,_RNCINvNtNtNtNtCscu9j8SGJFlb_27fireworks_collaboration_lib4core3git12default_impl6branch10git_branchNCNvMNtNtCse2afPLa6SGs_5tasks6common12repo_factoryNtB1E_11RepoBuilder5build0Es6_0B1I_
FN:169,_RNCINvNtNtNtNtCscu9j8SGJFlb_27fireworks_collaboration_lib4core3git12default_impl6branch10git_branchNCNvMNtNtCse2afPLa6SGs_5tasks6common12repo_factoryNtB1E_11RepoBuilder5build0Es7_0B1I_
FN:50,_RNCINvNtNtNtNtCscu9j8SGJFlb_27fireworks_collaboration_lib4core3git12default_impl6branch10git_branchNCNvMNtNtCse2afPLa6SGs_5tasks6common12repo_factoryNtB1E_11RepoBuilder5build0Es_0B1I_
FN:23,_RINvNtNtNtNtCscu9j8SGJFlb_27fireworks_collaboration_lib4core3git12default_impl6branch10git_branchNCNvMNtNtCscRE2irdvoKL_9workspace6common12repo_factoryNtB1C_11RepoBuilder5build0EB1G_
FN:43,_RNCINvNtNtNtNtCscu9j8SGJFlb_27fireworks_collaboration_lib4core3git12default_impl6branch10git_branchNCNvMNtNtCscRE2irdvoKL_9workspace6common12repo_factoryNtB1E_11RepoBuilder5build0E0B1I_
FN:67,_RNCINvNtNtNtNtCscu9j8SGJFlb_27fireworks_collaboration_lib4core3git12default_impl6branch10git_branchNCNvMNtNtCscRE2irdvoKL_9workspace6common12repo_factoryNtB1E_11RepoBuilder5build0Es0_0B1I_
FN:75,_RNCINvNtNtNtNtCscu9j8SGJFlb_27fireworks_collaboration_lib4core3git12default_impl6branch10git_branchNCNvMNtNtCscRE2irdvoKL_9workspace6common12repo_factoryNtB1E_11RepoBuilder5build0Es1_0B1I_
FN:96,_RNCINvNtNtNtNtCscu9j8SGJFlb_27fireworks_collaboration_lib4core3git12default_impl6branch10git_branchNCNvMNtNtCscRE2irdvoKL_9workspace6common12repo_factoryNtB1E_11RepoBuilder5build0Es2_0B1I_
FN:102,_RNCINvNtNtNtNtCscu9j8SGJFlb_27fireworks_collaboration_lib4core3git12default_impl6branch10git_branchNCNvMNtNtCscRE2irdvoKL_9workspace6common12repo_factoryNtB1E_11RepoBuilder5build0Es3_0B1I_
FN:144,_RNCINvNtNtNtNtCscu9j8SGJFlb_27fireworks_collaboration_lib4core3git12default_impl6branch10git_branchNCNvMNtNtCscRE2irdvoKL_9workspace6common12repo_factoryNtB1E_11RepoBuilder5build0Es4_0B1I_
FN:150,_RNCINvNtNtNtNtCscu9j8SGJFlb_27fireworks_collaboration_lib4core3git12default_impl6branch10git_branchNCNvMNtNtCscRE2irdvoKL_9workspace6common12repo_factoryNtB1E_11RepoBuilder5build0Es5_0B1I_
FN:163,_RNCINvNtNtNtNtCscu9j8SGJFlb_27fireworks_collaboration_lib4core3git12default_impl6branch10git_branchNCNvMNtNtCscRE2irdvoKL_9workspace6common12repo_factoryNtB1E_11RepoBuilder5build0Es6_0B1I_
FN:169,_RNCINvNtNtNtNtCscu9j8SGJFlb_27fireworks_collaboration_lib4core3git12default_impl6branch10git_branchNCNvMNtNtCscRE2irdvoKL_9workspace6common12repo_factoryNtB1E_11RepoBuilder5build0Es7_0B1I_
FN:50,_RNCINvNtNtNtNtCscu9j8SGJFlb_27fireworks_collaboration_lib4core3git12default_impl6branch10git_branchNCNvMNtNtCscRE2irdvoKL_9workspace6common12repo_factoryNtB1E_11RepoBuilder5build0Es_0B1I_
FNDA:0,_RINvNtNtNtNtCscu9j8SGJFlb_27fireworks_collaboration_lib4core3git12default_impl6branch10git_branchNCNCNvMNtNtNtB8_5tasks12git_registry5localNtNtB1I_8registry12TaskRegistry21spawn_git_branch_task00EBa_
FNDA:0,_RNCINvNtNtNtNtCscu9j8SGJFlb_27fireworks_collaboration_lib4core3git12default_impl6branch10git_branchNCNCNvMNtNtNtBa_5tasks12git_registry5localNtNtB1K_8registry12TaskRegistry21spawn_git_branch_task00E0Bc_
FNDA:0,_RNCINvNtNtNtNtCscu9j8SGJFlb_27fireworks_collaboration_lib4core3git12default_impl6branch10git_branchNCNCNvMNtNtNtBa_5tasks12git_registry5localNtNtB1K_8registry12TaskRegistry21spawn_git_branch_task00Es0_0Bc_
FNDA:0,_RNCINvNtNtNtNtCscu9j8SGJFlb_27fireworks_collaboration_lib4core3git12default_impl6branch10git_branchNCNCNvMNtNtNtBa_5tasks12git_registry5localNtNtB1K_8registry12TaskRegistry21spawn_git_branch_task00Es1_0Bc_
FNDA:0,_RNCINvNtNtNtNtCscu9j8SGJFlb_27fireworks_collaboration_lib4core3git12default_impl6branch10git_branchNCNCNvMNtNtNtBa_5tasks12git_registry5localNtNtB1K_8registry12TaskRegistry21spawn_git_branch_task00Es2_0Bc_
FNDA:0,_RNCINvNtNtNtNtCscu9j8SGJFlb_27fireworks_collaboration_lib4core3git12default_impl6branch10git_branchNCNCNvMNtNtNtBa_5tasks12git_registry5localNtNtB1K_8registry12TaskRegistry21spawn_git_branch_task00Es3_0Bc_
FNDA:0,_RNCINvNtNtNtNtCscu9j8SGJFlb_27fireworks_collaboration_lib4core3git12default_impl6branch10git_branchNCNCNvMNtNtNtBa_5tasks12git_registry5localNtNtB1K_8registry12TaskRegistry21spawn_git_branch_task00Es4_0Bc_
FNDA:0,_RNCINvNtNtNtNtCscu9j8SGJFlb_27fireworks_collaboration_lib4core3git12default_impl6branch10git_branchNCNCNvMNtNtNtBa_5tasks12git_registry5localNtNtB1K_8registry12TaskRegistry21spawn_git_branch_task00Es5_0Bc_
FNDA:0,_RNCINvNtNtNtNtCscu9j8SGJFlb_27fireworks_collaboration_lib4core3git12default_impl6branch10git_branchNCNCNvMNtNtNtBa_5tasks12git_registry5localNtNtB1K_8registry12TaskRegistry21spawn_git_branch_task00Es6_0Bc_
FNDA:0,_RNCINvNtNtNtNtCscu9j8SGJFlb_27fireworks_collaboration_lib4core3git12default_impl6branch10git_branchNCNCNvMNtNtNtBa_5tasks12git_registry5localNtNtB1K_8registry12TaskRegistry21spawn_git_branch_task00Es7_0Bc_
FNDA:0,_RNCINvNtNtNtNtCscu9j8SGJFlb_27fireworks_collaboration_lib4core3git12default_impl6branch10git_branchNCNCNvMNtNtNtBa_5tasks12git_registry5localNtNtB1K_8registry12TaskRegistry21spawn_git_branch_task00Es_0Bc_
FNDA:2,_RINvNtNtNtNtCscu9j8SGJFlb_27fireworks_collaboration_lib4core3git12default_impl6branch10git_branchNCNvMNtNtCsgV7FHrbFFzv_8commands6common12repo_factoryNtB1C_11RepoBuilder5build0EB1G_
FNDA:0,_RNCINvNtNtNtNtCscu9j8SGJFlb_27fireworks_collaboration_lib4core3git12default_impl6branch10git_branchNCNvMNtNtCsgV7FHrbFFzv_8commands6common12repo_factoryNtB1E_11RepoBuilder5build0E0B1I_
FNDA:0,_RNCINvNtNtNtNtCscu9j8SGJFlb_27fireworks_collaboration_lib4core3git12default_impl6branch10git_branchNCNvMNtNtCsgV7FHrbFFzv_8commands6common12repo_factoryNtB1E_11RepoBuilder5build0Es0_0B1I_
FNDA:0,_RNCINvNtNtNtNtCscu9j8SGJFlb_27fireworks_collaboration_lib4core3git12default_impl6branch10git_branchNCNvMNtNtCsgV7FHrbFFzv_8commands6common12repo_factoryNtB1E_11RepoBuilder5build0Es1_0B1I_
FNDA:0,_RNCINvNtNtNtNtCscu9j8SGJFlb_27fireworks_collaboration_lib4core3git12default_impl6branch10git_branchNCNvMNtNtCsgV7FHrbFFzv_8commands6common12repo_factoryNtB1E_11RepoBuilder5build0Es2_0B1I_
FNDA:0,_RNCINvNtNtNtNtCscu9j8SGJFlb_27fireworks_collaboration_lib4core3git12default_impl6branch10git_branchNCNvMNtNtCsgV7FHrbFFzv_8commands6common12repo_factoryNtB1E_11RepoBuilder5build0Es3_0B1I_
FNDA:0,_RNCINvNtNtNtNtCscu9j8SGJFlb_27fireworks_collaboration_lib4core3git12default_impl6branch10git_branchNCNvMNtNtCsgV7FHrbFFzv_8commands6common12repo_factoryNtB1E_11RepoBuilder5build0Es4_0B1I_
FNDA:0,_RNCINvNtNtNtNtCscu9j8SGJFlb_27fireworks_collaboration_lib4core3git12default_impl6branch10git_branchNCNvMNtNtCsgV7FHrbFFzv_8commands6common12repo_factoryNtB1E_11RepoBuilder5build0Es5_0B1I_
FNDA:0,_RNCINvNtNtNtNtCscu9j8SGJFlb_27fireworks_collaboration_lib4core3git12default_impl6branch10git_branchNCNvMNtNtCsgV7FHrbFFzv_8commands6common12repo_factoryNtB1E_11RepoBuilder5build0Es6_0B1I_
FNDA:0,_RNCINvNtNtNtNtCscu9j8SGJFlb_27fireworks_collaboration_lib4core3git12default_impl6branch10git_branchNCNvMNtNtCsgV7FHrbFFzv_8commands6common12repo_factoryNtB1E_11RepoBuilder5build0Es7_0B1I_
FNDA:2,_RNCINvNtNtNtNtCscu9j8SGJFlb_27fireworks_collaboration_lib4core3git12default_impl6branch10git_branchNCNvMNtNtCsgV7FHrbFFzv_8commands6common12repo_factoryNtB1E_11RepoBuilder5build0Es_0B1I_
FNDA:2,_RINvNtNtNtNtCscu9j8SGJFlb_27fireworks_collaboration_lib4core3git12default_impl6branch10git_branchNCNvMNtNtCs6dua4rg4Ovk_3e2e6common12repo_factoryNtB1C_11RepoBuilder5build0EB1G_
FNDA:0,_RNCINvNtNtNtNtCscu9j8SGJFlb_27fireworks_collaboration_lib4core3git12default_impl6branch10git_branchNCNvMNtNtCs6dua4rg4Ovk_3e2e6common12repo_factoryNtB1E_11RepoBuilder5build0E0B1I_
FNDA:0,_RNCINvNtNtNtNtCscu9j8SGJFlb_27fireworks_collaboration_lib4core3git12default_impl6branch10git_branchNCNvMNtNtCs6dua4rg4Ovk_3e2e6common12repo_factoryNtB1E_11RepoBuilder5build0Es0_0B1I_
FNDA:0,_RNCINvNtNtNtNtCscu9j8SGJFlb_27fireworks_collaboration_lib4core3git12default_impl6branch10git_branchNCNvMNtNtCs6dua4rg4Ovk_3e2e6common12repo_factoryNtB1E_11RepoBuilder5build0Es1_0B1I_
FNDA:0,_RNCINvNtNtNtNtCscu9j8SGJFlb_27fireworks_collaboration_lib4core3git12default_impl6branch10git_branchNCNvMNtNtCs6dua4rg4Ovk_3e2e6common12repo_factoryNtB1E_11RepoBuilder5build0Es2_0B1I_
FNDA:0,_RNCINvNtNtNtNtCscu9j8SGJFlb_27fireworks_collaboration_lib4core3git12default_impl6branch10git_branchNCNvMNtNtCs6dua4rg4Ovk_3e2e6common12repo_factoryNtB1E_11RepoBuilder5build0Es3_0B1I_
FNDA:0,_RNCINvNtNtNtNtCscu9j8SGJFlb_27fireworks_collaboration_lib4core3git12default_impl6branch10git_branchNCNvMNtNtCs6dua4rg4Ovk_3e2e6common12repo_factoryNtB1E_11RepoBuilder5build0Es4_0B1I_
FNDA:0,_RNCINvNtNtNtNtCscu9j8SGJFlb_27fireworks_collaboration_lib4core3git12default_impl6branch10git_branchNCNvMNtNtCs6dua4rg4Ovk_3e2e6common12repo_factoryNtB1E_11RepoBuilder5build0Es5_0B1I_
FNDA:0,_RNCINvNtNtNtNtCscu9j8SGJFlb_27fireworks_collaboration_lib4core3git12default_impl6branch10git_branchNCNvMNtNtCs6dua4rg4Ovk_3e2e6common12repo_factoryNtB1E_11RepoBuilder5build0Es6_0B1I_
FNDA:0,_RNCINvNtNtNtNtCscu9j8SGJFlb_27fireworks_collaboration_lib4core3git12default_impl6branch10git_branchNCNvMNtNtCs6dua4rg4Ovk_3e2e6common12repo_factoryNtB1E_11RepoBuilder5build0Es7_0B1I_
FNDA:2,_RNCINvNtNtNtNtCscu9j8SGJFlb_27fireworks_collaboration_lib4core3git12default_impl6branch10git_branchNCNvMNtNtCs6dua4rg4Ovk_3e2e6common12repo_factoryNtB1E_11RepoBuilder5build0Es_0B1I_
FNDA:2,_RINvNtNtNtNtCscu9j8SGJFlb_27fireworks_collaboration_lib4core3git12default_impl6branch10git_branchNCNvMNtNtCs5NYoXysI8dX_6events6common12repo_factoryNtB1C_11RepoBuilder5build0EB1G_
FNDA:0,_RNCINvNtNtNtNtCscu9j8SGJFlb_27fireworks_collaboration_lib4core3git12default_impl6branch10git_branchNCNvMNtNtCs5NYoXysI8dX_6events6common12repo_factoryNtB1E_11RepoBuilder5build0E0B1I_
FNDA:0,_RNCINvNtNtNtNtCscu9j8SGJFlb_27fireworks_collaboration_lib4core3git12default_impl6branch10git_branchNCNvMNtNtCs5NYoXysI8dX_6events6common12repo_factoryNtB1E_11RepoBuilder5build0Es0_0B1I_
FNDA:0,_RNCINvNtNtNtNtCscu9j8SGJFlb_27fireworks_collaboration_lib4core3git12default_impl6branch10git_branchNCNvMNtNtCs5NYoXysI8dX_6events6common12repo_factoryNtB1E_11RepoBuilder5build0Es1_0B1I_
FNDA:0,_RNCINvNtNtNtNtCscu9j8SGJFlb_27fireworks_collaboration_lib4core3git12default_impl6branch10git_branchNCNvMNtNtCs5NYoXysI8dX_6events6common12repo_factoryNtB1E_11RepoBuilder5build0Es2_0B1I_
FNDA:0,_RNCINvNtNtNtNtCscu9j8SGJFlb_27fireworks_collaboration_lib4core3git12default_impl6branch10git_branchNCNvMNtNtCs5NYoXysI8dX_6events6common12repo_factoryNtB1E_11RepoBuilder5build0Es3_0B1I_
FNDA:0,_RNCINvNtNtNtNtCscu9j8SGJFlb_27fireworks_collaboration_lib4core3git12default_impl6branch10git_branchNCNvMNtNtCs5NYoXysI8dX_6events6common12repo_factoryNtB1E_11RepoBuilder5build0Es4_0B1I_
FNDA:0,_RNCINvNtNtNtNtCscu9j8SGJFlb_27fireworks_collaboration_lib4core3git12default_impl6branch10git_branchNCNvMNtNtCs5NYoXysI8dX_6events6common12repo_factoryNtB1E_11RepoBuilder5build0Es5_0B1I_
FNDA:0,_RNCINvNtNtNtNtCscu9j8SGJFlb_27fireworks_collaboration_lib4core3git12default_impl6branch10git_branchNCNvMNtNtCs5NYoXysI8dX_6events6common12repo_factoryNtB1E_11RepoBuilder5build0Es6_0B1I_
FNDA:0,_RNCINvNtNtNtNtCscu9j8SGJFlb_27fireworks_collaboration_lib4core3git12default_impl6branch10git_branchNCNvMNtNtCs5NYoXysI8dX_6events6common12repo_factoryNtB1E_11RepoBuilder5build0Es7_0B1I_
FNDA:2,_RNCINvNtNtNtNtCscu9j8SGJFlb_27fireworks_collaboration_lib4core3git12default_impl6branch10git_branchNCNvMNtNtCs5NYoXysI8dX_6events6common12repo_factoryNtB1E_11RepoBuilder5build0Es_0B1I_
FNDA:0,_RINvNtNtNtNtCsfvgE7hV3dwJ_27fireworks_collaboration_lib4core3git12default_impl6branch10git_branchpEBa_
FNDA:0,_RNCINvNtNtNtNtCsfvgE7hV3dwJ_27fireworks_collaboration_lib4core3git12default_impl6branch10git_branchpE0Bc_
FNDA:0,_RNCINvNtNtNtNtCsfvgE7hV3dwJ_27fireworks_collaboration_lib4core3git12default_impl6branch10git_branchpEs0_0Bc_
FNDA:0,_RNCINvNtNtNtNtCsfvgE7hV3dwJ_27fireworks_collaboration_lib4core3git12default_impl6branch10git_branchpEs1_0Bc_
FNDA:0,_RNCINvNtNtNtNtCsfvgE7hV3dwJ_27fireworks_collaboration_lib4core3git12default_impl6branch10git_branchpEs2_0Bc_
FNDA:0,_RNCINvNtNtNtNtCsfvgE7hV3dwJ_27fireworks_collaboration_lib4core3git12default_impl6branch10git_branchpEs3_0Bc_
FNDA:0,_RNCINvNtNtNtNtCsfvgE7hV3dwJ_27fireworks_collaboration_lib4core3git12default_impl6branch10git_branchpEs4_0Bc_
FNDA:0,_RNCINvNtNtNtNtCsfvgE7hV3dwJ_27fireworks_collaboration_lib4core3git12default_impl6branch10git_branchpEs5_0Bc_
FNDA:0,_RNCINvNtNtNtNtCsfvgE7hV3dwJ_27fireworks_collaboration_lib4core3git12default_impl6branch10git_branchpEs6_0Bc_
FNDA:0,_RNCINvNtNtNtNtCsfvgE7hV3dwJ_27fireworks_collaboration_lib4core3git12default_impl6branch10git_branchpEs7_0Bc_
FNDA:0,_RNCINvNtNtNtNtCsfvgE7hV3dwJ_27fireworks_collaboration_lib4core3git12default_impl6branch10git_branchpEs_0Bc_
FNDA:2,_RINvNtNtNtNtCscu9j8SGJFlb_27fireworks_collaboration_lib4core3git12default_impl6branch10git_branchNCNvMNtNtCsgvyBa5thnhP_3git6common12repo_factoryNtB1C_11RepoBuilder5build0EB1G_
FNDA:2,_RINvNtNtNtNtCscu9j8SGJFlb_27fireworks_collaboration_lib4core3git12default_impl6branch10git_branchNCNvMNtNtNtCsgvyBa5thnhP_3git9submodule6common12repo_factoryNtB1C_11RepoBuilder5build0EB1I_
FNDA:5,_RINvNtNtNtNtCscu9j8SGJFlb_27fireworks_collaboration_lib4core3git12default_impl6branch10git_branchNCNvNtNtCsgvyBa5thnhP_3git23git_branch_and_checkout21section_branch_creates_39branch_valid_and_checkout_and_duplicate0EB1F_
FNDA:1,_RINvNtNtNtNtCscu9j8SGJFlb_27fireworks_collaboration_lib4core3git12default_impl6branch10git_branchNCNvNtNtCsgvyBa5thnhP_3git23git_branch_and_checkout22section_checkout_basics_32checkout_cancel_during_operation0EB1F_
FNDA:24,_RINvNtNtNtNtCscu9j8SGJFlb_27fireworks_collaboration_lib4core3git12default_impl6branch10git_branchNCNvNtNtNtCsgvyBa5thnhP_3git23git_branch_and_checkout21section_branch_create7helpers9branch_op0EB1H_
FNDA:0,_RNCINvNtNtNtNtCscu9j8SGJFlb_27fireworks_collaboration_lib4core3git12default_impl6branch10git_branchNCNvMNtNtCsgvyBa5thnhP_3git6common12repo_factoryNtB1E_11RepoBuilder5build0E0B1I_
FNDA:0,_RNCINvNtNtNtNtCscu9j8SGJFlb_27fireworks_collaboration_lib4core3git12default_impl6branch10git_branchNCNvMNtNtCsgvyBa5thnhP_3git6common12repo_factoryNtB1E_11RepoBuilder5build0Es0_0B1I_
FNDA:0,_RNCINvNtNtNtNtCscu9j8SGJFlb_27fireworks_collaboration_lib4core3git12default_impl6branch10git_branchNCNvMNtNtCsgvyBa5thnhP_3git6common12repo_factoryNtB1E_11RepoBuilder5build0Es1_0B1I_
FNDA:0,_RNCINvNtNtNtNtCscu9j8SGJFlb_27fireworks_collaboration_lib4core3git12default_impl6branch10git_branchNCNvMNtNtCsgvyBa5thnhP_3git6common12repo_factoryNtB1E_11RepoBuilder5build0Es2_0B1I_
FNDA:0,_RNCINvNtNtNtNtCscu9j8SGJFlb_27fireworks_collaboration_lib4core3git12default_impl6branch10git_branchNCNvMNtNtCsgvyBa5thnhP_3git6common12repo_factoryNtB1E_11RepoBuilder5build0Es3_0B1I_
FNDA:0,_RNCINvNtNtNtNtCscu9j8SGJFlb_27fireworks_collaboration_lib4core3git12default_impl6branch10git_branchNCNvMNtNtCsgvyBa5thnhP_3git6common12repo_factoryNtB1E_11RepoBuilder5build0Es4_0B1I_
FNDA:0,_RNCINvNtNtNtNtCscu9j8SGJFlb_27fireworks_collaboration_lib4core3git12default_impl6branch10git_branchNCNvMNtNtCsgvyBa5thnhP_3git6common12repo_factoryNtB1E_11RepoBuilder5build0Es5_0B1I_
FNDA:0,_RNCINvNtNtNtNtCscu9j8SGJFlb_27fireworks_collaboration_lib4core3git12default_impl6branch10git_branchNCNvMNtNtCsgvyBa5thnhP_3git6common12repo_factoryNtB1E_11RepoBuilder5build0Es6_0B1I_
FNDA:0,_RNCINvNtNtNtNtCscu9j8SGJFlb_27fireworks_collaboration_lib4core3git12default_impl6branch10git_branchNCNvMNtNtCsgvyBa5thnhP_3git6common12repo_factoryNtB1E_11RepoBuilder5build0Es7_0B1I_
FNDA:2,_RNCINvNtNtNtNtCscu9j8SGJFlb_27fireworks_collaboration_lib4core3git12default_impl6branch10git_branchNCNvMNtNtCsgvyBa5thnhP_3git6common12repo_factoryNtB1E_11RepoBuilder5build0Es_0B1I_
FNDA:0,_RNCINvNtNtNtNtCscu9j8SGJFlb_27fireworks_collaboration_lib4core3git12default_impl6branch10git_branchNCNvMNtNtNtCsgvyBa5thnhP_3git9submodule6common12repo_factoryNtB1E_11RepoBuilder5build0E0B1K_
FNDA:0,_RNCINvNtNtNtNtCscu9j8SGJFlb_27fireworks_collaboration_lib4core3git12default_impl6branch10git_branchNCNvMNtNtNtCsgvyBa5thnhP_3git9submodule6common12repo_factoryNtB1E_11RepoBuilder5build0Es0_0B1K_
FNDA:0,_RNCINvNtNtNtNtCscu9j8SGJFlb_27fireworks_collaboration_lib4core3git12default_impl6branch10git_branchNCNvMNtNtNtCsgvyBa5thnhP_3git9submodule6common12repo_factoryNtB1E_11RepoBuilder5build0Es1_0B1K_
FNDA:0,_RNCINvNtNtNtNtCscu9j8SGJFlb_27fireworks_collaboration_lib4core3git12default_impl6branch10git_branchNCNvMNtNtNtCsgvyBa5thnhP_3git9submodule6common12repo_factoryNtB1E_11RepoBuilder5build0Es2_0B1K_
FNDA:0,_RNCINvNtNtNtNtCscu9j8SGJFlb_27fireworks_collaboration_lib4core3git12default_impl6branch10git_branchNCNvMNtNtNtCsgvyBa5thnhP_3git9submodule6common12repo_factoryNtB1E_11RepoBuilder5build0Es3_0B1K_
FNDA:0,_RNCINvNtNtNtNtCscu9j8SGJFlb_27fireworks_collaboration_lib4core3git12default_impl6branch10git_branchNCNvMNtNtNtCsgvyBa5thnhP_3git9submodule6common12repo_factoryNtB1E_11RepoBuilder5build0Es4_0B1K_
FNDA:0,_RNCINvNtNtNtNtCscu9j8SGJFlb_27fireworks_collaboration_lib4core3git12default_impl6branch10git_branchNCNvMNtNtNtCsgvyBa5thnhP_3git9submodule6common12repo_factoryNtB1E_11RepoBuilder5build0Es5_0B1K_
FNDA:0,_RNCINvNtNtNtNtCscu9j8SGJFlb_27fireworks_collaboration_lib4core3git12default_impl6branch10git_branchNCNvMNtNtNtCsgvyBa5thnhP_3git9submodule6common12repo_factoryNtB1E_11RepoBuilder5build0Es6_0B1K_
FNDA:0,_RNCINvNtNtNtNtCscu9j8SGJFlb_27fireworks_collaboration_lib4core3git12default_impl6branch10git_branchNCNvMNtNtNtCsgvyBa5thnhP_3git9submodule6common12repo_factoryNtB1E_11RepoBuilder5build0Es7_0B1K_
FNDA:2,_RNCINvNtNtNtNtCscu9j8SGJFlb_27fireworks_collaboration_lib4core3git12default_impl6branch10git_branchNCNvMNtNtNtCsgvyBa5thnhP_3git9submodule6common12repo_factoryNtB1E_11RepoBuilder5build0Es_0B1K_
FNDA:0,_RNCINvNtNtNtNtCscu9j8SGJFlb_27fireworks_collaboration_lib4core3git12default_impl6branch10git_branchNCNvNtNtCsgvyBa5thnhP_3git23git_branch_and_checkout21section_branch_creates_39branch_valid_and_checkout_and_duplicate0E0B1H_
FNDA:0,_RNCINvNtNtNtNtCscu9j8SGJFlb_27fireworks_collaboration_lib4core3git12default_impl6branch10git_branchNCNvNtNtCsgvyBa5thnhP_3git23git_branch_and_checkout21section_branch_creates_39branch_valid_and_checkout_and_duplicate0Es0_0B1H_
FNDA:0,_RNCINvNtNtNtNtCscu9j8SGJFlb_27fireworks_collaboration_lib4core3git12default_impl6branch10git_branchNCNvNtNtCsgvyBa5thnhP_3git23git_branch_and_checkout21section_branch_creates_39branch_valid_and_checkout_and_duplicate0Es1_0B1H_
FNDA:0,_RNCINvNtNtNtNtCscu9j8SGJFlb_27fireworks_collaboration_lib4core3git12default_impl6branch10git_branchNCNvNtNtCsgvyBa5thnhP_3git23git_branch_and_checkout21section_branch_creates_39branch_valid_and_checkout_and_duplicate0Es2_0B1H_
FNDA:0,_RNCINvNtNtNtNtCscu9j8SGJFlb_27fireworks_collaboration_lib4core3git12default_impl6branch10git_branchNCNvNtNtCsgvyBa5thnhP_3git23git_branch_and_checkout21section_branch_creates_39branch_valid_and_checkout_and_duplicate0Es3_0B1H_
FNDA:0,_RNCINvNtNtNtNtCscu9j8SGJFlb_27fireworks_collaboration_lib4core3git12default_impl6branch10git_branchNCNvNtNtCsgvyBa5thnhP_3git23git_branch_and_checkout21section_branch_creates_39branch_valid_and_checkout_and_duplicate0Es4_0B1H_
FNDA:0,_RNCINvNtNtNtNtCscu9j8SGJFlb_27fireworks_collaboration_lib4core3git12default_impl6branch10git_branchNCNvNtNtCsgvyBa5thnhP_3git23git_branch_and_checkout21section_branch_creates_39branch_valid_and_checkout_and_duplicate0Es5_0B1H_
FNDA:0,_RNCINvNtNtNtNtCscu9j8SGJFlb_27fireworks_collaboration_lib4core3git12default_impl6branch10git_branchNCNvNtNtCsgvyBa5thnhP_3git23git_branch_and_checkout21section_branch_creates_39branch_valid_and_checkout_and_duplicate0Es6_0B1H_
FNDA:0,_RNCINvNtNtNtNtCscu9j8SGJFlb_27fireworks_collaboration_lib4core3git12default_impl6branch10git_branchNCNvNtNtCsgvyBa5thnhP_3git23git_branch_and_checkout21section_branch_creates_39branch_valid_and_checkout_and_duplicate0Es7_0B1H_
FNDA:5,_RNCINvNtNtNtNtCscu9j8SGJFlb_27fireworks_collaboration_lib4core3git12default_impl6branch10git_branchNCNvNtNtCsgvyBa5thnhP_3git23git_branch_and_checkout21section_branch_creates_39branch_valid_and_checkout_and_duplicate0Es_0B1H_
FNDA:0,_RNCINvNtNtNtNtCscu9j8SGJFlb_27fireworks_collaboration_lib4core3git12default_impl6branch10git_branchNCNvNtNtCsgvyBa5thnhP_3git23git_branch_and_checkout22section_checkout_basics_32checkout_cancel_during_operation0E0B1H_
FNDA:0,_RNCINvNtNtNtNtCscu9j8SGJFlb_27fireworks_collaboration_lib4core3git12default_impl6branch10git_branchNCNvNtNtCsgvyBa5thnhP_3git23git_branch_and_checkout22section_checkout_basics_32checkout_cancel_during_operation0Es0_0B1H_
FNDA:0,_RNCINvNtNtNtNtCscu9j8SGJFlb_27fireworks_collaboration_lib4core3git12default_impl6branch10git_branchNCNvNtNtCsgvyBa5thnhP_3git23git_branch_and_checkout22section_checkout_basics_32checkout_cancel_during_operation0Es1_0B1H_
FNDA:0,_RNCINvNtNtNtNtCscu9j8SGJFlb_27fireworks_collaboration_lib4core3git12default_impl6branch10git_branchNCNvNtNtCsgvyBa5thnhP_3git23git_branch_and_checkout22section_checkout_basics_32checkout_cancel_during_operation0Es2_0B1H_
FNDA:0,_RNCINvNtNtNtNtCscu9j8SGJFlb_27fireworks_collaboration_lib4core3git12default_impl6branch10git_branchNCNvNtNtCsgvyBa5thnhP_3git23git_branch_and_checkout22section_checkout_basics_32checkout_cancel_during_operation0Es3_0B1H_
FNDA:0,_RNCINvNtNtNtNtCscu9j8SGJFlb_27fireworks_collaboration_lib4core3git12default_impl6branch10git_branchNCNvNtNtCsgvyBa5thnhP_3git23git_branch_and_checkout22section_checkout_basics_32checkout_cancel_during_operation0Es4_0B1H_
FNDA:0,_RNCINvNtNtNtNtCscu9j8SGJFlb_27fireworks_collaboration_lib4core3git12default_impl6branch10git_branchNCNvNtNtCsgvyBa5thnhP_3git23git_branch_and_checkout22section_checkout_basics_32checkout_cancel_during_operation0Es5_0B1H_
FNDA:0,_RNCINvNtNtNtNtCscu9j8SGJFlb_27fireworks_collaboration_lib4core3git12default_impl6branch10git_branchNCNvNtNtCsgvyBa5thnhP_3git23git_branch_and_checkout22section_checkout_basics_32checkout_cancel_during_operation0Es6_0B1H_
FNDA:0,_RNCINvNtNtNtNtCscu9j8SGJFlb_27fireworks_collaboration_lib4core3git12default_impl6branch10git_branchNCNvNtNtCsgvyBa5thnhP_3git23git_branch_and_checkout22section_checkout_basics_32checkout_cancel_during_operation0Es7_0B1H_
FNDA:1,_RNCINvNtNtNtNtCscu9j8SGJFlb_27fireworks_collaboration_lib4core3git12default_impl6branch10git_branchNCNvNtNtCsgvyBa5thnhP_3git23git_branch_and_checkout22section_checkout_basics_32checkout_cancel_during_operation0Es_0B1H_
FNDA:0,_RNCINvNtNtNtNtCscu9j8SGJFlb_27fireworks_collaboration_lib4core3git12default_impl6branch10git_branchNCNvNtNtNtCsgvyBa5thnhP_3git23git_branch_and_checkout21section_branch_create7helpers9branch_op0E0B1J_
FNDA:0,_RNCINvNtNtNtNtCscu9j8SGJFlb_27fireworks_collaboration_lib4core3git12default_impl6branch10git_branchNCNvNtNtNtCsgvyBa5thnhP_3git23git_branch_and_checkout21section_branch_create7helpers9branch_op0Es0_0B1J_
FNDA:0,_RNCINvNtNtNtNtCscu9j8SGJFlb_27fireworks_collaboration_lib4core3git12default_impl6branch10git_branchNCNvNtNtNtCsgvyBa5thnhP_3git23git_branch_and_checkout21section_branch_create7helpers9branch_op0Es1_0B1J_
FNDA:0,_RNCINvNtNtNtNtCscu9j8SGJFlb_27fireworks_collaboration_lib4core3git12default_impl6branch10git_branchNCNvNtNtNtCsgvyBa5thnhP_3git23git_branch_and_checkout21section_branch_create7helpers9branch_op0Es2_0B1J_
FNDA:0,_RNCINvNtNtNtNtCscu9j8SGJFlb_27fireworks_collaboration_lib4core3git12default_impl6branch10git_branchNCNvNtNtNtCsgvyBa5thnhP_3git23git_branch_and_checkout21section_branch_create7helpers9branch_op0Es3_0B1J_
FNDA:0,_RNCINvNtNtNtNtCscu9j8SGJFlb_27fireworks_collaboration_lib4core3git12default_impl6branch10git_branchNCNvNtNtNtCsgvyBa5thnhP_3git23git_branch_and_checkout21section_branch_create7helpers9branch_op0Es4_0B1J_
FNDA:0,_RNCINvNtNtNtNtCscu9j8SGJFlb_27fireworks_collaboration_lib4core3git12default_impl6branch10git_branchNCNvNtNtNtCsgvyBa5thnhP_3git23git_branch_and_checkout21section_branch_create7helpers9branch_op0Es5_0B1J_
FNDA:0,_RNCINvNtNtNtNtCscu9j8SGJFlb_27fireworks_collaboration_lib4core3git12default_impl6branch10git_branchNCNvNtNtNtCsgvyBa5thnhP_3git23git_branch_and_checkout21section_branch_create7helpers9branch_op0Es6_0B1J_
FNDA:0,_RNCINvNtNtNtNtCscu9j8SGJFlb_27fireworks_collaboration_lib4core3git12default_impl6branch10git_branchNCNvNtNtNtCsgvyBa5thnhP_3git23git_branch_and_checkout21section_branch_create7helpers9branch_op0Es7_0B1J_
FNDA:3,_RNCINvNtNtNtNtCscu9j8SGJFlb_27fireworks_collaboration_lib4core3git12default_impl6branch10git_branchNCNvNtNtNtCsgvyBa5thnhP_3git23git_branch_and_checkout21section_branch_create7helpers9branch_op0Es_0B1J_
FNDA:2,_RINvNtNtNtNtCscu9j8SGJFlb_27fireworks_collaboration_lib4core3git12default_impl6branch10git_branchNCNvMNtNtCs7iVILGxhzfA_5proxy6common12repo_factoryNtB1C_11RepoBuilder5build0EB1G_
FNDA:0,_RNCINvNtNtNtNtCscu9j8SGJFlb_27fireworks_collaboration_lib4core3git12default_impl6branch10git_branchNCNvMNtNtCs7iVILGxhzfA_5proxy6common12repo_factoryNtB1E_11RepoBuilder5build0E0B1I_
FNDA:0,_RNCINvNtNtNtNtCscu9j8SGJFlb_27fireworks_collaboration_lib4core3git12default_impl6branch10git_branchNCNvMNtNtCs7iVILGxhzfA_5proxy6common12repo_factoryNtB1E_11RepoBuilder5build0Es0_0B1I_
FNDA:0,_RNCINvNtNtNtNtCscu9j8SGJFlb_27fireworks_collaboration_lib4core3git12default_impl6branch10git_branchNCNvMNtNtCs7iVILGxhzfA_5proxy6common12repo_factoryNtB1E_11RepoBuilder5build0Es1_0B1I_
FNDA:0,_RNCINvNtNtNtNtCscu9j8SGJFlb_27fireworks_collaboration_lib4core3git12default_impl6branch10git_branchNCNvMNtNtCs7iVILGxhzfA_5proxy6common12repo_factoryNtB1E_11RepoBuilder5build0Es2_0B1I_
FNDA:0,_RNCINvNtNtNtNtCscu9j8SGJFlb_27fireworks_collaboration_lib4core3git12default_impl6branch10git_branchNCNvMNtNtCs7iVILGxhzfA_5proxy6common12repo_factoryNtB1E_11RepoBuilder5build0Es3_0B1I_
FNDA:0,_RNCINvNtNtNtNtCscu9j8SGJFlb_27fireworks_collaboration_lib4core3git12default_impl6branch10git_branchNCNvMNtNtCs7iVILGxhzfA_5proxy6common12repo_factoryNtB1E_11RepoBuilder5build0Es4_0B1I_
FNDA:0,_RNCINvNtNtNtNtCscu9j8SGJFlb_27fireworks_collaboration_lib4core3git12default_impl6branch10git_branchNCNvMNtNtCs7iVILGxhzfA_5proxy6common12repo_factoryNtB1E_11RepoBuilder5build0Es5_0B1I_
FNDA:0,_RNCINvNtNtNtNtCscu9j8SGJFlb_27fireworks_collaboration_lib4core3git12default_impl6branch10git_branchNCNvMNtNtCs7iVILGxhzfA_5proxy6common12repo_factoryNtB1E_11RepoBuilder5build0Es6_0B1I_
FNDA:0,_RNCINvNtNtNtNtCscu9j8SGJFlb_27fireworks_collaboration_lib4core3git12default_impl6branch10git_branchNCNvMNtNtCs7iVILGxhzfA_5proxy6common12repo_factoryNtB1E_11RepoBuilder5build0Es7_0B1I_
FNDA:2,_RNCINvNtNtNtNtCscu9j8SGJFlb_27fireworks_collaboration_lib4core3git12default_impl6branch10git_branchNCNvMNtNtCs7iVILGxhzfA_5proxy6common12repo_factoryNtB1E_11RepoBuilder5build0Es_0B1I_
FNDA:2,_RINvNtNtNtNtCscu9j8SGJFlb_27fireworks_collaboration_lib4core3git12default_impl6branch10git_branchNCNvMNtNtCsg9T22JMUfCw_7quality6common12repo_factoryNtB1C_11RepoBuilder5build0EB1G_
FNDA:0,_RNCINvNtNtNtNtCscu9j8SGJFlb_27fireworks_collaboration_lib4core3git12default_impl6branch10git_branchNCNvMNtNtCsg9T22JMUfCw_7quality6common12repo_factoryNtB1E_11RepoBuilder5build0E0B1I_
FNDA:0,_RNCINvNtNtNtNtCscu9j8SGJFlb_27fireworks_collaboration_lib4core3git12default_impl6branch10git_branchNCNvMNtNtCsg9T22JMUfCw_7quality6common12repo_factoryNtB1E_11RepoBuilder5build0Es0_0B1I_
FNDA:0,_RNCINvNtNtNtNtCscu9j8SGJFlb_27fireworks_collaboration_lib4core3git12default_impl6branch10git_branchNCNvMNtNtCsg9T22JMUfCw_7quality6common12repo_factoryNtB1E_11RepoBuilder5build0Es1_0B1I_
FNDA:0,_RNCINvNtNtNtNtCscu9j8SGJFlb_27fireworks_collaboration_lib4core3git12default_impl6branch10git_branchNCNvMNtNtCsg9T22JMUfCw_7quality6common12repo_factoryNtB1E_11RepoBuilder5build0Es2_0B1I_
FNDA:0,_RNCINvNtNtNtNtCscu9j8SGJFlb_27fireworks_collaboration_lib4core3git12default_impl6branch10git_branchNCNvMNtNtCsg9T22JMUfCw_7quality6common12repo_factoryNtB1E_11RepoBuilder5build0Es3_0B1I_
FNDA:0,_RNCINvNtNtNtNtCscu9j8SGJFlb_27fireworks_collaboration_lib4core3git12default_impl6branch10git_branchNCNvMNtNtCsg9T22JMUfCw_7quality6common12repo_factoryNtB1E_11RepoBuilder5build0Es4_0B1I_
FNDA:0,_RNCINvNtNtNtNtCscu9j8SGJFlb_27fireworks_collaboration_lib4core3git12default_impl6branch10git_branchNCNvMNtNtCsg9T22JMUfCw_7quality6common12repo_factoryNtB1E_11RepoBuilder5build0Es5_0B1I_
FNDA:0,_RNCINvNtNtNtNtCscu9j8SGJFlb_27fireworks_collaboration_lib4core3git12default_impl6branch10git_branchNCNvMNtNtCsg9T22JMUfCw_7quality6common12repo_factoryNtB1E_11RepoBuilder5build0Es6_0B1I_
FNDA:0,_RNCINvNtNtNtNtCscu9j8SGJFlb_27fireworks_collaboration_lib4core3git12default_impl6branch10git_branchNCNvMNtNtCsg9T22JMUfCw_7quality6common12repo_factoryNtB1E_11RepoBuilder5build0Es7_0B1I_
FNDA:2,_RNCINvNtNtNtNtCscu9j8SGJFlb_27fireworks_collaboration_lib4core3git12default_impl6branch10git_branchNCNvMNtNtCsg9T22JMUfCw_7quality6common12repo_factoryNtB1E_11RepoBuilder5build0Es_0B1I_
FNDA:2,_RINvNtNtNtNtCscu9j8SGJFlb_27fireworks_collaboration_lib4core3git12default_impl6branch10git_branchNCNvMNtNtCs5bjiTMnK4Rn_9submodule6common12repo_factoryNtB1C_11RepoBuilder5build0EB1G_
FNDA:0,_RNCINvNtNtNtNtCscu9j8SGJFlb_27fireworks_collaboration_lib4core3git12default_impl6branch10git_branchNCNvMNtNtCs5bjiTMnK4Rn_9submodule6common12repo_factoryNtB1E_11RepoBuilder5build0E0B1I_
FNDA:0,_RNCINvNtNtNtNtCscu9j8SGJFlb_27fireworks_collaboration_lib4core3git12default_impl6branch10git_branchNCNvMNtNtCs5bjiTMnK4Rn_9submodule6common12repo_factoryNtB1E_11RepoBuilder5build0Es0_0B1I_
FNDA:0,_RNCINvNtNtNtNtCscu9j8SGJFlb_27fireworks_collaboration_lib4core3git12default_impl6branch10git_branchNCNvMNtNtCs5bjiTMnK4Rn_9submodule6common12repo_factoryNtB1E_11RepoBuilder5build0Es1_0B1I_
FNDA:0,_RNCINvNtNtNtNtCscu9j8SGJFlb_27fireworks_collaboration_lib4core3git12default_impl6branch10git_branchNCNvMNtNtCs5bjiTMnK4Rn_9submodule6common12repo_factoryNtB1E_11RepoBuilder5build0Es2_0B1I_
FNDA:0,_RNCINvNtNtNtNtCscu9j8SGJFlb_27fireworks_collaboration_lib4core3git12default_impl6branch10git_branchNCNvMNtNtCs5bjiTMnK4Rn_9submodule6common12repo_factoryNtB1E_11RepoBuilder5build0Es3_0B1I_
FNDA:0,_RNCINvNtNtNtNtCscu9j8SGJFlb_27fireworks_collaboration_lib4core3git12default_impl6branch10git_branchNCNvMNtNtCs5bjiTMnK4Rn_9submodule6common12repo_factoryNtB1E_11RepoBuilder5build0Es4_0B1I_
FNDA:0,_RNCINvNtNtNtNtCscu9j8SGJFlb_27fireworks_collaboration_lib4core3git12default_impl6branch10git_branchNCNvMNtNtCs5bjiTMnK4Rn_9submodule6common12repo_factoryNtB1E_11RepoBuilder5build0Es5_0B1I_
FNDA:0,_RNCINvNtNtNtNtCscu9j8SGJFlb_27fireworks_collaboration_lib4core3git12default_impl6branch10git_branchNCNvMNtNtCs5bjiTMnK4Rn_9submodule6common12repo_factoryNtB1E_11RepoBuilder5build0Es6_0B1I_
FNDA:0,_RNCINvNtNtNtNtCscu9j8SGJFlb_27fireworks_collaboration_lib4core3git12default_impl6branch10git_branchNCNvMNtNtCs5bjiTMnK4Rn_9submodule6common12repo_factoryNtB1E_11RepoBuilder5build0Es7_0B1I_
FNDA:2,_RNCINvNtNtNtNtCscu9j8SGJFlb_27fireworks_collaboration_lib4core3git12default_impl6branch10git_branchNCNvMNtNtCs5bjiTMnK4Rn_9submodule6common12repo_factoryNtB1E_11RepoBuilder5build0Es_0B1I_
FNDA:2,_RINvNtNtNtNtCscu9j8SGJFlb_27fireworks_collaboration_lib4core3git12default_impl6branch10git_branchNCNvMNtNtCse2afPLa6SGs_5tasks6common12repo_factoryNtB1C_11RepoBuilder5build0EB1G_
FNDA:0,_RNCINvNtNtNtNtCscu9j8SGJFlb_27fireworks_collaboration_lib4core3git12default_impl6branch10git_branchNCNvMNtNtCse2afPLa6SGs_5tasks6common12repo_factoryNtB1E_11RepoBuilder5build0E0B1I_
FNDA:0,_RNCINvNtNtNtNtCscu9j8SGJFlb_27fireworks_collaboration_lib4core3git12default_impl6branch10git_branchNCNvMNtNtCse2afPLa6SGs_5tasks6common12repo_factoryNtB1E_11RepoBuilder5build0Es0_0B1I_
FNDA:0,_RNCINvNtNtNtNtCscu9j8SGJFlb_27fireworks_collaboration_lib4core3git12default_impl6branch10git_branchNCNvMNtNtCse2afPLa6SGs_5tasks6common12repo_factoryNtB1E_11RepoBuilder5build0Es1_0B1I_
FNDA:0,_RNCINvNtNtNtNtCscu9j8SGJFlb_27fireworks_collaboration_lib4core3git12default_impl6branch10git_branchNCNvMNtNtCse2afPLa6SGs_5tasks6common12repo_factoryNtB1E_11RepoBuilder5build0Es2_0B1I_
FNDA:0,_RNCINvNtNtNtNtCscu9j8SGJFlb_27fireworks_collaboration_lib4core3git12default_impl6branch10git_branchNCNvMNtNtCse2afPLa6SGs_5tasks6common12repo_factoryNtB1E_11RepoBuilder5build0Es3_0B1I_
FNDA:0,_RNCINvNtNtNtNtCscu9j8SGJFlb_27fireworks_collaboration_lib4core3git12default_impl6branch10git_branchNCNvMNtNtCse2afPLa6SGs_5tasks6common12repo_factoryNtB1E_11RepoBuilder5build0Es4_0B1I_
FNDA:0,_RNCINvNtNtNtNtCscu9j8SGJFlb_27fireworks_collaboration_lib4core3git12default_impl6branch10git_branchNCNvMNtNtCse2afPLa6SGs_5tasks6common12repo_factoryNtB1E_11RepoBuilder5build0Es5_0B1I_
FNDA:0,_RNCINvNtNtNtNtCscu9j8SGJFlb_27fireworks_collaboration_lib4core3git12default_impl6branch10git_branchNCNvMNtNtCse2afPLa6SGs_5tasks6common12repo_factoryNtB1E_11RepoBuilder5build0Es6_0B1I_
FNDA:0,_RNCINvNtNtNtNtCscu9j8SGJFlb_27fireworks_collaboration_lib4core3git12default_impl6branch10git_branchNCNvMNtNtCse2afPLa6SGs_5tasks6common12repo_factoryNtB1E_11RepoBuilder5build0Es7_0B1I_
FNDA:2,_RNCINvNtNtNtNtCscu9j8SGJFlb_27fireworks_collaboration_lib4core3git12default_impl6branch10git_branchNCNvMNtNtCse2afPLa6SGs_5tasks6common12repo_factoryNtB1E_11RepoBuilder5build0Es_0B1I_
FNDA:2,_RINvNtNtNtNtCscu9j8SGJFlb_27fireworks_collaboration_lib4core3git12default_impl6branch10git_branchNCNvMNtNtCscRE2irdvoKL_9workspace6common12repo_factoryNtB1C_11RepoBuilder5build0EB1G_
FNDA:0,_RNCINvNtNtNtNtCscu9j8SGJFlb_27fireworks_collaboration_lib4core3git12default_impl6branch10git_branchNCNvMNtNtCscRE2irdvoKL_9workspace6common12repo_factoryNtB1E_11RepoBuilder5build0E0B1I_
FNDA:0,_RNCINvNtNtNtNtCscu9j8SGJFlb_27fireworks_collaboration_lib4core3git12default_impl6branch10git_branchNCNvMNtNtCscRE2irdvoKL_9workspace6common12repo_factoryNtB1E_11RepoBuilder5build0Es0_0B1I_
FNDA:0,_RNCINvNtNtNtNtCscu9j8SGJFlb_27fireworks_collaboration_lib4core3git12default_impl6branch10git_branchNCNvMNtNtCscRE2irdvoKL_9workspace6common12repo_factoryNtB1E_11RepoBuilder5build0Es1_0B1I_
FNDA:0,_RNCINvNtNtNtNtCscu9j8SGJFlb_27fireworks_collaboration_lib4core3git12default_impl6branch10git_branchNCNvMNtNtCscRE2irdvoKL_9workspace6common12repo_factoryNtB1E_11RepoBuilder5build0Es2_0B1I_
FNDA:0,_RNCINvNtNtNtNtCscu9j8SGJFlb_27fireworks_collaboration_lib4core3git12default_impl6branch10git_branchNCNvMNtNtCscRE2irdvoKL_9workspace6common12repo_factoryNtB1E_11RepoBuilder5build0Es3_0B1I_
FNDA:0,_RNCINvNtNtNtNtCscu9j8SGJFlb_27fireworks_collaboration_lib4core3git12default_impl6branch10git_branchNCNvMNtNtCscRE2irdvoKL_9workspace6common12repo_factoryNtB1E_11RepoBuilder5build0Es4_0B1I_
FNDA:0,_RNCINvNtNtNtNtCscu9j8SGJFlb_27fireworks_collaboration_lib4core3git12default_impl6branch10git_branchNCNvMNtNtCscRE2irdvoKL_9workspace6common12repo_factoryNtB1E_11RepoBuilder5build0Es5_0B1I_
FNDA:0,_RNCINvNtNtNtNtCscu9j8SGJFlb_27fireworks_collaboration_lib4core3git12default_impl6branch10git_branchNCNvMNtNtCscRE2irdvoKL_9workspace6common12repo_factoryNtB1E_11RepoBuilder5build0Es6_0B1I_
FNDA:0,_RNCINvNtNtNtNtCscu9j8SGJFlb_27fireworks_collaboration_lib4core3git12default_impl6branch10git_branchNCNvMNtNtCscRE2irdvoKL_9workspace6common12repo_factoryNtB1E_11RepoBuilder5build0Es7_0B1I_
FNDA:2,_RNCINvNtNtNtNtCscu9j8SGJFlb_27fireworks_collaboration_lib4core3git12default_impl6branch10git_branchNCNvMNtNtCscRE2irdvoKL_9workspace6common12repo_factoryNtB1E_11RepoBuilder5build0Es_0B1I_
FNF:11
FNH:2
DA:23,50
DA:24,50
DA:25,50
DA:26,50
DA:27,50
DA:28,50
DA:29,50
DA:30,50
DA:31,50
DA:32,1
DA:33,49
DA:34,49
DA:35,0
DA:36,0
DA:37,0
DA:38,0
DA:39,49
DA:40,49
DA:41,49
DA:43,31
DA:44,0
DA:45,0
DA:46,0
DA:48,0
DA:50,31
DA:53,31
DA:54,31
DA:56,2
DA:57,1
DA:58,0
DA:59,0
DA:60,0
DA:61,0
DA:62,1
DA:63,1
DA:64,0
DA:65,1
DA:66,1
DA:67,1
DA:68,0
DA:69,0
DA:70,0
DA:72,0
DA:73,1
DA:74,1
DA:75,1
DA:76,0
DA:77,0
DA:78,0
DA:80,0
DA:81,0
DA:82,1
DA:83,1
DA:84,1
DA:85,1
DA:86,1
DA:87,0
DA:88,1
DA:90,0
DA:91,0
DA:92,0
DA:93,0
DA:94,0
DA:95,0
DA:96,0
DA:97,0
DA:98,0
DA:99,0
DA:101,0
DA:102,0
DA:103,0
DA:104,0
DA:105,0
DA:107,0
DA:108,0
DA:109,0
DA:110,0
DA:111,0
DA:112,0
DA:113,0
DA:114,0
DA:115,0
DA:116,0
DA:117,1
DA:118,1
DA:119,1
DA:120,1
DA:121,1
DA:122,1
DA:123,1
DA:124,1
DA:125,1
DA:126,1
DA:127,1
DA:128,1
DA:129,29
DA:132,29
DA:133,27
DA:135,2
DA:136,2
DA:137,2
DA:138,2
DA:141,27
DA:142,0
DA:143,27
DA:144,27
DA:145,0
DA:146,0
DA:147,0
DA:149,0
DA:150,27
DA:151,0
DA:152,0
DA:153,0
DA:155,0
DA:156,27
DA:157,0
DA:158,0
DA:159,0
DA:160,0
DA:161,0
DA:162,0
DA:163,0
DA:164,0
DA:165,0
DA:166,0
DA:168,0
DA:169,0
DA:170,0
DA:171,0
DA:172,0
DA:174,0
DA:175,0
DA:176,0
DA:177,0
DA:178,0
DA:179,0
DA:180,0
DA:181,0
DA:182,0
DA:183,0
DA:184,27
DA:185,27
DA:186,27
DA:187,27
DA:188,27
DA:189,27
DA:190,27
DA:191,27
DA:192,27
DA:193,27
DA:194,27
DA:195,27
DA:196,50
BRF:0
BRH:0
LF:173
LH:73
end_of_record
SF:C:\Users\34404\Documents\GitHub\fireworks-collaboration\src-tauri\src\core\git\default_impl\checkout.rs
FN:18,_RINvNtNtNtNtCscu9j8SGJFlb_27fireworks_collaboration_lib4core3git12default_impl8checkout12git_checkoutNCNCNvMNtNtNtB8_5tasks12git_registry5localNtNtB1M_8registry12TaskRegistry23spawn_git_checkout_task00EBa_
FN:44,_RNCINvNtNtNtNtCscu9j8SGJFlb_27fireworks_collaboration_lib4core3git12default_impl8checkout12git_checkoutNCNCNvMNtNtNtBa_5tasks12git_registry5localNtNtB1O_8registry12TaskRegistry23spawn_git_checkout_task00E0Bc_
FN:70,_RNCINvNtNtNtNtCscu9j8SGJFlb_27fireworks_collaboration_lib4core3git12default_impl8checkout12git_checkoutNCNCNvMNtNtNtBa_5tasks12git_registry5localNtNtB1O_8registry12TaskRegistry23spawn_git_checkout_task00Es0_0Bc_
FN:97,_RNCINvNtNtNtNtCscu9j8SGJFlb_27fireworks_collaboration_lib4core3git12default_impl8checkout12git_checkoutNCNCNvMNtNtNtBa_5tasks12git_registry5localNtNtB1O_8registry12TaskRegistry23spawn_git_checkout_task00Es1_0Bc_
FN:98,_RNCINvNtNtNtNtCscu9j8SGJFlb_27fireworks_collaboration_lib4core3git12default_impl8checkout12git_checkoutNCNCNvMNtNtNtBa_5tasks12git_registry5localNtNtB1O_8registry12TaskRegistry23spawn_git_checkout_task00Es2_0Bc_
FN:102,_RNCINvNtNtNtNtCscu9j8SGJFlb_27fireworks_collaboration_lib4core3git12default_impl8checkout12git_checkoutNCNCNvMNtNtNtBa_5tasks12git_registry5localNtNtB1O_8registry12TaskRegistry23spawn_git_checkout_task00Es3_0Bc_
FN:108,_RNCINvNtNtNtNtCscu9j8SGJFlb_27fireworks_collaboration_lib4core3git12default_impl8checkout12git_checkoutNCNCNvMNtNtNtBa_5tasks12git_registry5localNtNtB1O_8registry12TaskRegistry23spawn_git_checkout_task00Es4_0Bc_
FN:119,_RNCINvNtNtNtNtCscu9j8SGJFlb_27fireworks_collaboration_lib4core3git12default_impl8checkout12git_checkoutNCNCNvMNtNtNtBa_5tasks12git_registry5localNtNtB1O_8registry12TaskRegistry23spawn_git_checkout_task00Es5_0Bc_
FN:128,_RNCINvNtNtNtNtCscu9j8SGJFlb_27fireworks_collaboration_lib4core3git12default_impl8checkout12git_checkoutNCNCNvMNtNtNtBa_5tasks12git_registry5localNtNtB1O_8registry12TaskRegistry23spawn_git_checkout_task00Es6_0Bc_
FN:61,_RNCINvNtNtNtNtCscu9j8SGJFlb_27fireworks_collaboration_lib4core3git12default_impl8checkout12git_checkoutNCNCNvMNtNtNtBa_5tasks12git_registry5localNtNtB1O_8registry12TaskRegistry23spawn_git_checkout_task00Es_0Bc_
FN:18,_RINvNtNtNtNtCsfvgE7hV3dwJ_27fireworks_collaboration_lib4core3git12default_impl8checkout12git_checkoutpEBa_
FN:44,_RNCINvNtNtNtNtCsfvgE7hV3dwJ_27fireworks_collaboration_lib4core3git12default_impl8checkout12git_checkoutpE0Bc_
FN:70,_RNCINvNtNtNtNtCsfvgE7hV3dwJ_27fireworks_collaboration_lib4core3git12default_impl8checkout12git_checkoutpEs0_0Bc_
FN:97,_RNCINvNtNtNtNtCsfvgE7hV3dwJ_27fireworks_collaboration_lib4core3git12default_impl8checkout12git_checkoutpEs1_0Bc_
FN:98,_RNCINvNtNtNtNtCsfvgE7hV3dwJ_27fireworks_collaboration_lib4core3git12default_impl8checkout12git_checkoutpEs2_0Bc_
FN:102,_RNCINvNtNtNtNtCsfvgE7hV3dwJ_27fireworks_collaboration_lib4core3git12default_impl8checkout12git_checkoutpEs3_0Bc_
FN:108,_RNCINvNtNtNtNtCsfvgE7hV3dwJ_27fireworks_collaboration_lib4core3git12default_impl8checkout12git_checkoutpEs4_0Bc_
FN:119,_RNCINvNtNtNtNtCsfvgE7hV3dwJ_27fireworks_collaboration_lib4core3git12default_impl8checkout12git_checkoutpEs5_0Bc_
FN:128,_RNCINvNtNtNtNtCsfvgE7hV3dwJ_27fireworks_collaboration_lib4core3git12default_impl8checkout12git_checkoutpEs6_0Bc_
FN:61,_RNCINvNtNtNtNtCsfvgE7hV3dwJ_27fireworks_collaboration_lib4core3git12default_impl8checkout12git_checkoutpEs_0Bc_
FN:18,_RINvNtNtNtNtCscu9j8SGJFlb_27fireworks_collaboration_lib4core3git12default_impl8checkout12git_checkoutNCNvNtNtCsgvyBa5thnhP_3git23git_branch_and_checkout21section_branch_creates_39branch_valid_and_checkout_and_duplicates_0EB1J_
FN:18,_RINvNtNtNtNtCscu9j8SGJFlb_27fireworks_collaboration_lib4core3git12default_impl8checkout12git_checkoutNCNvNtNtNtCsgvyBa5thnhP_3git23git_branch_and_checkout22section_checkout_basic7helpers11checkout_op0EB1L_
FN:44,_RNCINvNtNtNtNtCscu9j8SGJFlb_27fireworks_collaboration_lib4core3git12default_impl8checkout12git_checkoutNCNvNtNtCsgvyBa5thnhP_3git23git_branch_and_checkout21section_branch_creates_39branch_valid_and_checkout_and_duplicates_0E0B1L_
FN:70,_RNCINvNtNtNtNtCscu9j8SGJFlb_27fireworks_collaboration_lib4core3git12default_impl8checkout12git_checkoutNCNvNtNtCsgvyBa5thnhP_3git23git_branch_and_checkout21section_branch_creates_39branch_valid_and_checkout_and_duplicates_0Es0_0B1L_
FN:97,_RNCINvNtNtNtNtCscu9j8SGJFlb_27fireworks_collaboration_lib4core3git12default_impl8checkout12git_checkoutNCNvNtNtCsgvyBa5thnhP_3git23git_branch_and_checkout21section_branch_creates_39branch_valid_and_checkout_and_duplicates_0Es1_0B1L_
FN:98,_RNCINvNtNtNtNtCscu9j8SGJFlb_27fireworks_collaboration_lib4core3git12default_impl8checkout12git_checkoutNCNvNtNtCsgvyBa5thnhP_3git23git_branch_and_checkout21section_branch_creates_39branch_valid_and_checkout_and_duplicates_0Es2_0B1L_
FN:102,_RNCINvNtNtNtNtCscu9j8SGJFlb_27fireworks_collaboration_lib4core3git12default_impl8checkout12git_checkoutNCNvNtNtCsgvyBa5thnhP_3git23git_branch_and_checkout21section_branch_creates_39branch_valid_and_checkout_and_duplicates_0Es3_0B1L_
FN:108,_RNCINvNtNtNtNtCscu9j8SGJFlb_27fireworks_collaboration_lib4core3git12default_impl8checkout12git_checkoutNCNvNtNtCsgvyBa5thnhP_3git23git_branch_and_checkout21section_branch_creates_39branch_valid_and_checkout_and_duplicates_0Es4_0B1L_
FN:119,_RNCINvNtNtNtNtCscu9j8SGJFlb_27fireworks_collaboration_lib4core3git12default_impl8checkout12git_checkoutNCNvNtNtCsgvyBa5thnhP_3git23git_branch_and_checkout21section_branch_creates_39branch_valid_and_checkout_and_duplicates_0Es5_0B1L_
FN:128,_RNCINvNtNtNtNtCscu9j8SGJFlb_27fireworks_collaboration_lib4core3git12default_impl8checkout12git_checkoutNCNvNtNtCsgvyBa5thnhP_3git23git_branch_and_checkout21section_branch_creates_39branch_valid_and_checkout_and_duplicates_0Es6_0B1L_
FN:61,_RNCINvNtNtNtNtCscu9j8SGJFlb_27fireworks_collaboration_lib4core3git12default_impl8checkout12git_checkoutNCNvNtNtCsgvyBa5thnhP_3git23git_branch_and_checkout21section_branch_creates_39branch_valid_and_checkout_and_duplicates_0Es_0B1L_
FN:44,_RNCINvNtNtNtNtCscu9j8SGJFlb_27fireworks_collaboration_lib4core3git12default_impl8checkout12git_checkoutNCNvNtNtNtCsgvyBa5thnhP_3git23git_branch_and_checkout22section_checkout_basic7helpers11checkout_op0E0B1N_
FN:70,_RNCINvNtNtNtNtCscu9j8SGJFlb_27fireworks_collaboration_lib4core3git12default_impl8checkout12git_checkoutNCNvNtNtNtCsgvyBa5thnhP_3git23git_branch_and_checkout22section_checkout_basic7helpers11checkout_op0Es0_0B1N_
FN:97,_RNCINvNtNtNtNtCscu9j8SGJFlb_27fireworks_collaboration_lib4core3git12default_impl8checkout12git_checkoutNCNvNtNtNtCsgvyBa5thnhP_3git23git_branch_and_checkout22section_checkout_basic7helpers11checkout_op0Es1_0B1N_
FN:98,_RNCINvNtNtNtNtCscu9j8SGJFlb_27fireworks_collaboration_lib4core3git12default_impl8checkout12git_checkoutNCNvNtNtNtCsgvyBa5thnhP_3git23git_branch_and_checkout22section_checkout_basic7helpers11checkout_op0Es2_0B1N_
FN:102,_RNCINvNtNtNtNtCscu9j8SGJFlb_27fireworks_collaboration_lib4core3git12default_impl8checkout12git_checkoutNCNvNtNtNtCsgvyBa5thnhP_3git23git_branch_and_checkout22section_checkout_basic7helpers11checkout_op0Es3_0B1N_
FN:108,_RNCINvNtNtNtNtCscu9j8SGJFlb_27fireworks_collaboration_lib4core3git12default_impl8checkout12git_checkoutNCNvNtNtNtCsgvyBa5thnhP_3git23git_branch_and_checkout22section_checkout_basic7helpers11checkout_op0Es4_0B1N_
FN:119,_RNCINvNtNtNtNtCscu9j8SGJFlb_27fireworks_collaboration_lib4core3git12default_impl8checkout12git_checkoutNCNvNtNtNtCsgvyBa5thnhP_3git23git_branch_and_checkout22section_checkout_basic7helpers11checkout_op0Es5_0B1N_
FN:128,_RNCINvNtNtNtNtCscu9j8SGJFlb_27fireworks_collaboration_lib4core3git12default_impl8checkout12git_checkoutNCNvNtNtNtCsgvyBa5thnhP_3git23git_branch_and_checkout22section_checkout_basic7helpers11checkout_op0Es6_0B1N_
FN:61,_RNCINvNtNtNtNtCscu9j8SGJFlb_27fireworks_collaboration_lib4core3git12default_impl8checkout12git_checkoutNCNvNtNtNtCsgvyBa5thnhP_3git23git_branch_and_checkout22section_checkout_basic7helpers11checkout_op0Es_0B1N_
FN:18,_RINvNtNtNtNtCscu9j8SGJFlb_27fireworks_collaboration_lib4core3git12default_impl8checkout12git_checkoutNvNtCse2afPLa6SGs_5tasks14git_operations13noop_progressEB1F_
FN:44,_RNCINvNtNtNtNtCscu9j8SGJFlb_27fireworks_collaboration_lib4core3git12default_impl8checkout12git_checkoutNvNtCse2afPLa6SGs_5tasks14git_operations13noop_progressE0B1H_
FN:70,_RNCINvNtNtNtNtCscu9j8SGJFlb_27fireworks_collaboration_lib4core3git12default_impl8checkout12git_checkoutNvNtCse2afPLa6SGs_5tasks14git_operations13noop_progressEs0_0B1H_
FN:97,_RNCINvNtNtNtNtCscu9j8SGJFlb_27fireworks_collaboration_lib4core3git12default_impl8checkout12git_checkoutNvNtCse2afPLa6SGs_5tasks14git_operations13noop_progressEs1_0B1H_
FN:98,_RNCINvNtNtNtNtCscu9j8SGJFlb_27fireworks_collaboration_lib4core3git12default_impl8checkout12git_checkoutNvNtCse2afPLa6SGs_5tasks14git_operations13noop_progressEs2_0B1H_
FN:102,_RNCINvNtNtNtNtCscu9j8SGJFlb_27fireworks_collaboration_lib4core3git12default_impl8checkout12git_checkoutNvNtCse2afPLa6SGs_5tasks14git_operations13noop_progressEs3_0B1H_
FN:108,_RNCINvNtNtNtNtCscu9j8SGJFlb_27fireworks_collaboration_lib4core3git12default_impl8checkout12git_checkoutNvNtCse2afPLa6SGs_5tasks14git_operations13noop_progressEs4_0B1H_
FN:119,_RNCINvNtNtNtNtCscu9j8SGJFlb_27fireworks_collaboration_lib4core3git12default_impl8checkout12git_checkoutNvNtCse2afPLa6SGs_5tasks14git_operations13noop_progressEs5_0B1H_
FN:128,_RNCINvNtNtNtNtCscu9j8SGJFlb_27fireworks_collaboration_lib4core3git12default_impl8checkout12git_checkoutNvNtCse2afPLa6SGs_5tasks14git_operations13noop_progressEs6_0B1H_
FN:61,_RNCINvNtNtNtNtCscu9j8SGJFlb_27fireworks_collaboration_lib4core3git12default_impl8checkout12git_checkoutNvNtCse2afPLa6SGs_5tasks14git_operations13noop_progressEs_0B1H_
FNDA:0,_RINvNtNtNtNtCscu9j8SGJFlb_27fireworks_collaboration_lib4core3git12default_impl8checkout12git_checkoutNCNCNvMNtNtNtB8_5tasks12git_registry5localNtNtB1M_8registry12TaskRegistry23spawn_git_checkout_task00EBa_
FNDA:0,_RNCINvNtNtNtNtCscu9j8SGJFlb_27fireworks_collaboration_lib4core3git12default_impl8checkout12git_checkoutNCNCNvMNtNtNtBa_5tasks12git_registry5localNtNtB1O_8registry12TaskRegistry23spawn_git_checkout_task00E0Bc_
FNDA:0,_RNCINvNtNtNtNtCscu9j8SGJFlb_27fireworks_collaboration_lib4core3git12default_impl8checkout12git_checkoutNCNCNvMNtNtNtBa_5tasks12git_registry5localNtNtB1O_8registry12TaskRegistry23spawn_git_checkout_task00Es0_0Bc_
FNDA:0,_RNCINvNtNtNtNtCscu9j8SGJFlb_27fireworks_collaboration_lib4core3git12default_impl8checkout12git_checkoutNCNCNvMNtNtNtBa_5tasks12git_registry5localNtNtB1O_8registry12TaskRegistry23spawn_git_checkout_task00Es1_0Bc_
FNDA:0,_RNCINvNtNtNtNtCscu9j8SGJFlb_27fireworks_collaboration_lib4core3git12default_impl8checkout12git_checkoutNCNCNvMNtNtNtBa_5tasks12git_registry5localNtNtB1O_8registry12TaskRegistry23spawn_git_checkout_task00Es2_0Bc_
FNDA:0,_RNCINvNtNtNtNtCscu9j8SGJFlb_27fireworks_collaboration_lib4core3git12default_impl8checkout12git_checkoutNCNCNvMNtNtNtBa_5tasks12git_registry5localNtNtB1O_8registry12TaskRegistry23spawn_git_checkout_task00Es3_0Bc_
FNDA:0,_RNCINvNtNtNtNtCscu9j8SGJFlb_27fireworks_collaboration_lib4core3git12default_impl8checkout12git_checkoutNCNCNvMNtNtNtBa_5tasks12git_registry5localNtNtB1O_8registry12TaskRegistry23spawn_git_checkout_task00Es4_0Bc_
FNDA:0,_RNCINvNtNtNtNtCscu9j8SGJFlb_27fireworks_collaboration_lib4core3git12default_impl8checkout12git_checkoutNCNCNvMNtNtNtBa_5tasks12git_registry5localNtNtB1O_8registry12TaskRegistry23spawn_git_checkout_task00Es5_0Bc_
FNDA:0,_RNCINvNtNtNtNtCscu9j8SGJFlb_27fireworks_collaboration_lib4core3git12default_impl8checkout12git_checkoutNCNCNvMNtNtNtBa_5tasks12git_registry5localNtNtB1O_8registry12TaskRegistry23spawn_git_checkout_task00Es6_0Bc_
FNDA:0,_RNCINvNtNtNtNtCscu9j8SGJFlb_27fireworks_collaboration_lib4core3git12default_impl8checkout12git_checkoutNCNCNvMNtNtNtBa_5tasks12git_registry5localNtNtB1O_8registry12TaskRegistry23spawn_git_checkout_task00Es_0Bc_
FNDA:0,_RINvNtNtNtNtCsfvgE7hV3dwJ_27fireworks_collaboration_lib4core3git12default_impl8checkout12git_checkoutpEBa_
FNDA:0,_RNCINvNtNtNtNtCsfvgE7hV3dwJ_27fireworks_collaboration_lib4core3git12default_impl8checkout12git_checkoutpE0Bc_
FNDA:0,_RNCINvNtNtNtNtCsfvgE7hV3dwJ_27fireworks_collaboration_lib4core3git12default_impl8checkout12git_checkoutpEs0_0Bc_
FNDA:0,_RNCINvNtNtNtNtCsfvgE7hV3dwJ_27fireworks_collaboration_lib4core3git12default_impl8checkout12git_checkoutpEs1_0Bc_
FNDA:0,_RNCINvNtNtNtNtCsfvgE7hV3dwJ_27fireworks_collaboration_lib4core3git12default_impl8checkout12git_checkoutpEs2_0Bc_
FNDA:0,_RNCINvNtNtNtNtCsfvgE7hV3dwJ_27fireworks_collaboration_lib4core3git12default_impl8checkout12git_checkoutpEs3_0Bc_
FNDA:0,_RNCINvNtNtNtNtCsfvgE7hV3dwJ_27fireworks_collaboration_lib4core3git12default_impl8checkout12git_checkoutpEs4_0Bc_
FNDA:0,_RNCINvNtNtNtNtCsfvgE7hV3dwJ_27fireworks_collaboration_lib4core3git12default_impl8checkout12git_checkoutpEs5_0Bc_
FNDA:0,_RNCINvNtNtNtNtCsfvgE7hV3dwJ_27fireworks_collaboration_lib4core3git12default_impl8checkout12git_checkoutpEs6_0Bc_
FNDA:0,_RNCINvNtNtNtNtCsfvgE7hV3dwJ_27fireworks_collaboration_lib4core3git12default_impl8checkout12git_checkoutpEs_0Bc_
FNDA:1,_RINvNtNtNtNtCscu9j8SGJFlb_27fireworks_collaboration_lib4core3git12default_impl8checkout12git_checkoutNCNvNtNtCsgvyBa5thnhP_3git23git_branch_and_checkout21section_branch_creates_39branch_valid_and_checkout_and_duplicates_0EB1J_
